 LUNAClient-GMTool

 Timestamp is 6547066c (Sun Nov 05 05:05:16 2023)

 Preferred load address is 00400000

 Start         Length     Name                   Class
 0001:00000000 00136aedH .textbss                DATA
 0002:00000000 00287beeH .text                   CODE
 0002:00287bf0 0000f76eH .text$x                 CODE
 0002:00297360 00001cd5H .text$yc                CODE
 0002:00299040 00001a9cH .text$yd                CODE
 0003:00000000 0003213aH .rdata                  DATA
 0003:0003213c 0000017fH .rdata$debug            DATA
 0003:000322bc 0000045cH .rdata$r                DATA
 0003:00032718 00000104H .rtc$IAA                DATA
 0003:0003281c 00000113H .rtc$IMZ                DATA
 0003:00032930 00000104H .rtc$IZZ                DATA
 0003:00032a34 00000104H .rtc$TAA                DATA
 0003:00032b38 00000113H .rtc$TMZ                DATA
 0003:00032c4c 00000104H .rtc$TZZ                DATA
 0003:00032d50 00012e7bH .xdata$x                DATA
 0003:00045bcc 00000104H ATL$__a                 DATA
 0003:00045cd0 00000104H ATL$__z                 DATA
 0003:00045dd4 00000000H .edata                  DATA
 0004:00000000 00000104H .CRT$XCA                DATA
 0004:00000104 00000104H .CRT$XCAA               DATA
 0004:00000208 00000109H .CRT$XCL                DATA
 0004:00000314 00000300H .CRT$XCU                DATA
 0004:00000614 00000104H .CRT$XCZ                DATA
 0004:00000718 00000104H .CRT$XIA                DATA
 0004:0000081c 00000113H .CRT$XIC                DATA
 0004:00000930 00000104H .CRT$XIY                DATA
 0004:00000a34 00000104H .CRT$XIZ                DATA
 0004:00000b38 00000104H .CRT$XPA                DATA
 0004:00000c3c 00000109H .CRT$XPX                DATA
 0004:00000d48 00000104H .CRT$XPZ                DATA
 0004:00000e4c 00000104H .CRT$XTA                DATA
 0004:00000f50 00000104H .CRT$XTB                DATA
 0004:00001054 00000104H .CRT$XTZ                DATA
 0004:00001160 001875d2H .data                   DATA
 0004:00188740 0004cb30H .bss                    DATA
 0005:00000000 00000118H .idata$2                DATA
 0005:00000118 00000014H .idata$3                DATA
 0005:0000012c 000007f0H .idata$4                DATA
 0005:0000091c 000007f0H .idata$5                DATA
 0005:0000110c 00001791H .idata$6                DATA
 0006:00000000 00000691H .rsrc$01                DATA
 0006:000006a0 00004206H .rsrc$02                DATA

  Address         Publics by Value              Rva+Base     Lib:Object

 0000:00000000       ___safe_se_handler_count   00000000     <absolute>
 0000:00000000       __except_list              00000000     <absolute>
 0000:00000000       ___safe_se_handler_table   00000000     <absolute>
 0000:00000000       ___ImageBase               00400000     <linker-defined>
 0001:00000000       __enc$textbss$begin        00401000     <linker-defined>
 0001:00136aed       __enc$textbss$end          00537aed     <linker-defined>
 0002:00027710       ?_AtlGetThreadACPThunk@ATL@@YGIXZ 0055f710 f i LUNAClient.obj
 0002:00027790       ?InterlockedExchangePointer@@YGPAXPAPAXPAX@Z 0055f790 f i LUNAClient.obj
 0002:000277a0       ?_AtlGetThreadACPFake@ATL@@YGIXZ 0055f7a0 f i LUNAClient.obj
 0002:00027830       ?_AtlGetThreadACPReal@ATL@@YGIXZ 0055f830 f i LUNAClient.obj
 0002:00027840       ??_H@YGXPAXIHP6EPAX0@Z@Z   0055f840 f i LUNAClient.obj
 0002:00027880       ??_Estringdispid@CComTypeInfoHolder@ATL@@QAEPAXI@Z 0055f880 f i LUNAClient.obj
 0002:000278f0       ??1stringdispid@CComTypeInfoHolder@ATL@@QAE@XZ 0055f8f0 f i LUNAClient.obj
 0002:00027900       ??1CComBSTR@ATL@@QAE@XZ    0055f900 f i LUNAClient.obj
 0002:00027910       ?ClearDirectory@@YAXPBD@Z  0055f910 f   LUNAClient.obj
 0002:00027a70       _WinMain@16                0055fa70 f   LUNAClient.obj
 0002:00027d60       ?Init@CComModule@ATL@@QAEJPAU_ATL_OBJMAP_ENTRY30@2@PAUHINSTANCE__@@PBU_GUID@@@Z 0055fd60 f i LUNAClient.obj
 0002:00027e00       ?Term@CComModule@ATL@@QAEXXZ 0055fe00 f i LUNAClient.obj
 0002:00027e80       ?Term@CAtlModule@ATL@@QAEXXZ 0055fe80 f i LUNAClient.obj
 0002:00027ed0       ?Term@CComCriticalSection@ATL@@QAEJXZ 0055fed0 f i LUNAClient.obj
 0002:00027ee0       ?AtlCallTermFunc@ATL@@YGXPAU_ATL_MODULE70@1@@Z 0055fee0 f i LUNAClient.obj
 0002:00027f40       ?_AtlRaiseException@ATL@@YAXKK@Z 0055ff40 f i LUNAClient.obj
 0002:00027f60       ?AtlAxWinTerm@ATL@@YAHXZ   0055ff60 f i LUNAClient.obj
 0002:00027fb0       ?GetModuleInstance@CAtlBaseModule@ATL@@QAEPAUHINSTANCE__@@XZ 0055ffb0 f i LUNAClient.obj
 0002:00027fc0       _AtlAxWinInit@0            0055ffc0 f i LUNAClient.obj
 0002:00028480       ?_AtlGetConversionACP@ATL@@YGIXZ 00560480 f i LUNAClient.obj
 0002:00028490       ?AtlA2WHelper@@YGPAGPAGPBDHI@Z 00560490 f i LUNAClient.obj
 0002:000284e0       ??1?$CComPtr@UIUnknown@@@ATL@@QAE@XZ 005604e0 f i LUNAClient.obj
 0002:000284f0       ?SetWindowLongPtrA@@YAJPAUHWND__@@HJ@Z 005604f0 f i LUNAClient.obj
 0002:00028510       ?GetWindowLongPtrA@@YAJPAUHWND__@@H@Z 00560510 f i LUNAClient.obj
 0002:00028530       ??1?$CComPtr@UIStream@@@ATL@@QAE@XZ 00560530 f i LUNAClient.obj
 0002:00028850       ??0CComBSTR@ATL@@QAE@XZ    00560850 f i LUNAClient.obj
 0002:00028860       ??BCComBSTR@ATL@@QBEPAGXZ  00560860 f i LUNAClient.obj
 0002:00028870       ?ParseInitData@_DialogSplitHelper@ATL@@SAJPAUIStream@@PAPAG@Z 00560870 f i LUNAClient.obj
 0002:00028ac0       ??0CComBSTR@ATL@@QAE@H@Z   00560ac0 f i LUNAClient.obj
 0002:00028b00       ?AtlThrow@ATL@@YGXJ@Z      00560b00 f i LUNAClient.obj
 0002:00028b30       ??0CAtlException@ATL@@QAE@J@Z 00560b30 f i LUNAClient.obj
 0002:00028b40       ?Length@CComBSTR@ATL@@QBEIXZ 00560b40 f i LUNAClient.obj
 0002:00028b60       ?Detach@CComBSTR@ATL@@QAEPAGXZ 00560b60 f i LUNAClient.obj
 0002:00028b70       _AtlAxCreateControlLic@20  00560b70 f i LUNAClient.obj
 0002:00028bb0       _AtlAxCreateControlLicEx@32 00560bb0 f i LUNAClient.obj
 0002:00028d20       ??0CComBSTR@ATL@@QAE@PBG@Z 00560d20 f i LUNAClient.obj
 0002:00028d60       ??1?$CComPtr@UIAxWinHostWindowLic@@@ATL@@QAE@XZ 00560d60 f i LUNAClient.obj
 0002:00028d70       ?MyRegisterClass@@YAGPAUHINSTANCE__@@@Z 00560d70 f   LUNAClient.obj
 0002:00028e00       ?InitInstance@@YAHPAUHINSTANCE__@@H@Z 00560e00 f   LUNAClient.obj
 0002:00028f40       ?GetDispInfo@CGameResourceManager@@QAEXPAUDISPLAY_INFO@@@Z 00560f40 f i LUNAClient.obj
 0002:00028f80       ?WndProc@@YGJPAUHWND__@@IIJ@Z 00560f80 f   LUNAClient.obj
 0002:00029460       ?GetCurStateNum@CMainGame@@QAEHXZ 00561460 f i LUNAClient.obj
 0002:00029470       ?GetDirectInput@CKeyboard@@QAEPAUIDirectInputDevice8A@@XZ 00561470 f i LUNAClient.obj
 0002:00029480       ?GetKeyboard@CUserInput@@QAEPAVCKeyboard@@XZ 00561480 f i LUNAClient.obj
 0002:00029490       ?GetMouse@CUserInput@@QAEPAVCMouse@@XZ 00561490 f i LUNAClient.obj
 0002:000294a0       ?SetCtrlPushed@cIMEWnd@@QAEXH@Z 005614a0 f i LUNAClient.obj
 0002:000294b0       ?GetBaseNetwork@CMHNetwork@@QAEPAUISC_BaseNetwork@@XZ 005614b0 f i LUNAClient.obj
 0002:000294c0       ?About@@YGJPAUHWND__@@IIJ@Z 005614c0 f   LUNAClient.obj
 0002:00029510       ?GetPatchVersion@@YAHXZ    00561510 f   LUNAClient.obj
 0002:00029600       ?EnterClientApplication@@YAHXZ 00561600 f   LUNAClient.obj
 0002:00029610       ?LeaveClientApplication@@YAXXZ 00561610 f   LUNAClient.obj
 0002:00029640       ?CheckResourceFile@@YAHXZ  00561640 f   LUNAClient.obj
 0002:00029b70       ?ChangeVerInfo@@YAXXZ      00561b70 f   LUNAClient.obj
 0002:00029c30       ?SaveFileList@@YAHXZ       00561c30 f   LUNAClient.obj
 0002:00029ed0       ??0?$CComPtr@UIUnknown@@@ATL@@QAE@XZ 00561ed0 f i LUNAClient.obj
 0002:00029ee0       ??1?$CComPtrBase@UIUnknown@@@ATL@@QAE@XZ 00561ee0 f i LUNAClient.obj
 0002:00029ef0       ??I?$CComPtrBase@UIUnknown@@@ATL@@QAEPAPAUIUnknown@@XZ 00561ef0 f i LUNAClient.obj
 0002:00029f00       ??C?$CComPtrBase@UIUnknown@@@ATL@@QBEPAV?$_NoAddRefReleaseOnCComPtr@UIUnknown@@@1@XZ 00561f00 f i LUNAClient.obj
 0002:00029f10       ?GetWndClassName@?$CAxWindowT@VCWindow@ATL@@@ATL@@SAPBDXZ 00561f10 f i LUNAClient.obj
 0002:00029f20       ?GetWndClassName@?$CAxWindow2T@VCWindow@ATL@@@ATL@@SAPBDXZ 00561f20 f i LUNAClient.obj
 0002:00029f30       ??0?$CComPtr@UIStream@@@ATL@@QAE@XZ 00561f30 f i LUNAClient.obj
 0002:00029f40       ??1?$CComPtrBase@UIStream@@@ATL@@QAE@XZ 00561f40 f i LUNAClient.obj
 0002:00029f50       ??B?$CComPtrBase@UIStream@@@ATL@@QBEPAUIStream@@XZ 00561f50 f i LUNAClient.obj
 0002:00029f60       ??I?$CComPtrBase@UIStream@@@ATL@@QAEPAPAUIStream@@XZ 00561f60 f i LUNAClient.obj
 0002:00029f70       ?CreateInstance@?$CComCreator@V?$CComPolyObject@VCAxHostWindow@ATL@@@ATL@@@ATL@@SGJPAXABU_GUID@@PAPAX@Z 00561f70 f i LUNAClient.obj
 0002:0002a0b0       ?_AtlFinalConstruct@CComObjectRootBase@ATL@@QAEJXZ 005620b0 f i LUNAClient.obj
 0002:0002a0c0       ?SetVoid@CComObjectRootBase@ATL@@QAEXPAX@Z 005620c0 f i LUNAClient.obj
 0002:0002a0d0       ?InternalFinalConstructAddRef@CComObjectRootBase@ATL@@QAEXXZ 005620d0 f i LUNAClient.obj
 0002:0002a0e0       ?InternalFinalConstructRelease@CComObjectRootBase@ATL@@QAEXXZ 005620e0 f i LUNAClient.obj
 0002:0002a0f0       ??0?$CComPtr@UIAxWinHostWindowLic@@@ATL@@QAE@XZ 005620f0 f i LUNAClient.obj
 0002:0002a100       ??1?$CComPtrBase@UIAxWinHostWindowLic@@@ATL@@QAE@XZ 00562100 f i LUNAClient.obj
 0002:0002a110       ??I?$CComPtrBase@UIAxWinHostWindowLic@@@ATL@@QAEPAPAUIAxWinHostWindowLic@@XZ 00562110 f i LUNAClient.obj
 0002:0002a120       ??C?$CComPtrBase@UIAxWinHostWindowLic@@@ATL@@QBEPAV?$_NoAddRefReleaseOnCComPtr@UIAxWinHostWindowLic@@@1@XZ 00562120 f i LUNAClient.obj
 0002:0002a130       ??0?$CComPtrBase@UIUnknown@@@ATL@@IAE@XZ 00562130 f i LUNAClient.obj
 0002:0002a140       ??0?$CComPtrBase@UIStream@@@ATL@@IAE@XZ 00562140 f i LUNAClient.obj
 0002:0002a150       ??0?$CComPtrBase@UIAxWinHostWindowLic@@@ATL@@IAE@XZ 00562150 f i LUNAClient.obj
 0002:0002a160       ??0?$CComPolyObject@VCAxHostWindow@ATL@@@ATL@@QAE@PAX@Z 00562160 f i LUNAClient.obj
 0002:0002a1f0       ??0IUnknown@@QAE@XZ        005621f0 f i LUNAClient.obj
 0002:0002a200       ??0?$CComObjectRootEx@VCComSingleThreadModel@ATL@@@ATL@@QAE@XZ 00562200 f i LUNAClient.obj
 0002:0002a210       ??0CComObjectRootBase@ATL@@QAE@XZ 00562210 f i LUNAClient.obj
 0002:0002a220       ?FinalConstruct@?$CComPolyObject@VCAxHostWindow@ATL@@@ATL@@QAEJXZ 00562220 f i LUNAClient.obj
 0002:0002a260       ?FinalConstruct@CComObjectRootBase@ATL@@QAEJXZ 00562260 f i LUNAClient.obj
 0002:0002a270       ?InternalAddRef@?$CComObjectRootEx@VCComSingleThreadModel@ATL@@@ATL@@QAEKXZ 00562270 f i LUNAClient.obj
 0002:0002a280       ?Increment@CComSingleThreadModel@ATL@@SGKPAJ@Z 00562280 f i LUNAClient.obj
 0002:0002a2a0       ?InternalRelease@?$CComObjectRootEx@VCComSingleThreadModel@ATL@@@ATL@@QAEKXZ 005622a0 f i LUNAClient.obj
 0002:0002a2b0       ?Decrement@CComSingleThreadModel@ATL@@SGKPAJ@Z 005622b0 f i LUNAClient.obj
 0002:0002a2d0       ?AddRef@?$CComPolyObject@VCAxHostWindow@ATL@@@ATL@@UAGKXZ 005622d0 f i LUNAClient.obj
 0002:0002a2f0       ?Release@?$CComPolyObject@VCAxHostWindow@ATL@@@ATL@@UAGKXZ 005622f0 f i LUNAClient.obj
 0002:0002a330       ?QueryInterface@?$CComPolyObject@VCAxHostWindow@ATL@@@ATL@@UAGJABU_GUID@@PAPAX@Z 00562330 f i LUNAClient.obj
 0002:0002a3a0       ?InlineIsEqualUnknown@ATL@@YGHABU_GUID@@@Z 005623a0 f i LUNAClient.obj
 0002:0002a3e0       ?_InternalQueryInterface@CAxHostWindow@ATL@@QAEJABU_GUID@@PAPAX@Z 005623e0 f i LUNAClient.obj
 0002:0002a410       ?InternalQueryInterface@CComObjectRootBase@ATL@@SGJPAXPBU_ATL_INTMAP_ENTRY@2@ABU_GUID@@PAPAX@Z 00562410 f i LUNAClient.obj
 0002:0002a420       ?AtlInternalQueryInterface@ATL@@YGJPAXPBU_ATL_INTMAP_ENTRY@1@ABU_GUID@@PAPAX@Z 00562420 f i LUNAClient.obj
 0002:0002a530       _InlineIsEqualGUID         00562530 f i LUNAClient.obj
 0002:0002a570       ?_GetEntries@CAxHostWindow@ATL@@SGPBU_ATL_INTMAP_ENTRY@2@XZ 00562570 f i LUNAClient.obj
 0002:0002a580       ??_E?$CComPolyObject@VCAxHostWindow@ATL@@@ATL@@UAEPAXI@Z 00562580 f i LUNAClient.obj
 0002:0002a580       ??_G?$CComPolyObject@VCAxHostWindow@ATL@@@ATL@@UAEPAXI@Z 00562580 f i LUNAClient.obj
 0002:0002a5b0       ??1?$CComPolyObject@VCAxHostWindow@ATL@@@ATL@@UAE@XZ 005625b0 f i LUNAClient.obj
 0002:0002a630       ??1?$CComContainedObject@VCAxHostWindow@ATL@@@ATL@@UAE@XZ 00562630 f i LUNAClient.obj
 0002:0002a640       ??1CAxHostWindow@ATL@@UAE@XZ 00562640 f i LUNAClient.obj
 0002:0002a730       ??1?$CComPtr@UIDispatch@@@ATL@@QAE@XZ 00562730 f i LUNAClient.obj
 0002:0002a740       ??1?$CWindowImpl@VCAxHostWindow@ATL@@VCWindow@2@V?$CWinTraits@$0FGAAAAAA@$0A@@2@@ATL@@UAE@XZ 00562740 f i LUNAClient.obj
 0002:0002a750       ??1?$CWindowImplBaseT@VCWindow@ATL@@V?$CWinTraits@$0FGAAAAAA@$0A@@2@@ATL@@UAE@XZ 00562750 f i LUNAClient.obj
 0002:0002a760       ??1?$CComPtr@UIOleObject@@@ATL@@QAE@XZ 00562760 f i LUNAClient.obj
 0002:0002a770       ??1?$CComPtr@UIOleInPlaceFrame@@@ATL@@QAE@XZ 00562770 f i LUNAClient.obj
 0002:0002a780       ??1?$CComPtr@UIOleInPlaceUIWindow@@@ATL@@QAE@XZ 00562780 f i LUNAClient.obj
 0002:0002a790       ??1?$CComPtr@UIViewObjectEx@@@ATL@@QAE@XZ 00562790 f i LUNAClient.obj
 0002:0002a7a0       ??1?$CComPtr@UIOleInPlaceObjectWindowless@@@ATL@@QAE@XZ 005627a0 f i LUNAClient.obj
 0002:0002a7b0       ??1?$CComPtr@UIDocHostUIHandlerDispatch@@@ATL@@QAE@XZ 005627b0 f i LUNAClient.obj
 0002:0002a7c0       ??1?$CComPtr@UIFontDisp@@@ATL@@QAE@XZ 005627c0 f i LUNAClient.obj
 0002:0002a7d0       ??1?$CComPtr@UIServiceProvider@@@ATL@@QAE@XZ 005627d0 f i LUNAClient.obj
 0002:0002a7e0       ??1?$CComPtrBase@UIDispatch@@@ATL@@QAE@XZ 005627e0 f i LUNAClient.obj
 0002:0002a7f0       ??1?$CWindowImplRoot@VCWindow@ATL@@@ATL@@UAE@XZ 005627f0 f i LUNAClient.obj
 0002:0002a800       ??1?$IObjectWithSiteImpl@VCAxHostWindow@ATL@@@ATL@@UAE@XZ 00562800 f i LUNAClient.obj
 0002:0002a810       ??1?$CComPtrBase@UIOleObject@@@ATL@@QAE@XZ 00562810 f i LUNAClient.obj
 0002:0002a820       ??1?$CComPtrBase@UIOleInPlaceFrame@@@ATL@@QAE@XZ 00562820 f i LUNAClient.obj
 0002:0002a830       ??1?$CComPtrBase@UIOleInPlaceUIWindow@@@ATL@@QAE@XZ 00562830 f i LUNAClient.obj
 0002:0002a840       ??1?$CComPtrBase@UIViewObjectEx@@@ATL@@QAE@XZ 00562840 f i LUNAClient.obj
 0002:0002a850       ??1?$CComPtrBase@UIOleInPlaceObjectWindowless@@@ATL@@QAE@XZ 00562850 f i LUNAClient.obj
 0002:0002a860       ??1?$CComPtrBase@UIDocHostUIHandlerDispatch@@@ATL@@QAE@XZ 00562860 f i LUNAClient.obj
 0002:0002a870       ??1?$CComPtrBase@UIFontDisp@@@ATL@@QAE@XZ 00562870 f i LUNAClient.obj
 0002:0002a880       ??1?$CComPtrBase@UIServiceProvider@@@ATL@@QAE@XZ 00562880 f i LUNAClient.obj
 0002:0002a890       ??1CWndProcThunk@ATL@@QAE@XZ 00562890 f i LUNAClient.obj
 0002:0002a8a0       ??1CDynamicStdCallThunk@ATL@@QAE@XZ 005628a0 f i LUNAClient.obj
 0002:0002a8c0       ?FinalRelease@?$CComPolyObject@VCAxHostWindow@ATL@@@ATL@@QAEXXZ 005628c0 f i LUNAClient.obj
 0002:0002a8e0       ?FinalRelease@CComObjectRootBase@ATL@@QAEXXZ 005628e0 f i LUNAClient.obj
 0002:0002a8f0       ?FinalRelease@CAxHostWindow@ATL@@QAEXXZ 005628f0 f i LUNAClient.obj
 0002:0002a900       ?ReleaseAll@CAxHostWindow@ATL@@QAEXXZ 00562900 f i LUNAClient.obj
 0002:0002ab00       ?AtlUnadvise@ATL@@YGJPAUIUnknown@@ABU_GUID@@K@Z 00562b00 f i LUNAClient.obj
 0002:0002abc0       ??1?$CComPtr@UIConnectionPointContainer@@@ATL@@QAE@XZ 00562bc0 f i LUNAClient.obj
 0002:0002abd0       ??1?$CComPtr@UIConnectionPoint@@@ATL@@QAE@XZ 00562bd0 f i LUNAClient.obj
 0002:0002abe0       ??1?$CComPtr@UIObjectWithSite@@@ATL@@QAE@XZ 00562be0 f i LUNAClient.obj
 0002:0002abf0       ??B?$CComPtrBase@UIUnknown@@@ATL@@QBEPAUIUnknown@@XZ 00562bf0 f i LUNAClient.obj
 0002:0002ac00       ?Release@?$CComPtrBase@UIUnknown@@@ATL@@QAEXXZ 00562c00 f i LUNAClient.obj
 0002:0002ac20       ??0?$CComPtr@UIConnectionPointContainer@@@ATL@@QAE@XZ 00562c20 f i LUNAClient.obj
 0002:0002ac30       ??1?$CComPtrBase@UIConnectionPointContainer@@@ATL@@QAE@XZ 00562c30 f i LUNAClient.obj
 0002:0002ac40       ??I?$CComPtrBase@UIConnectionPointContainer@@@ATL@@QAEPAPAUIConnectionPointContainer@@XZ 00562c40 f i LUNAClient.obj
 0002:0002ac50       ??C?$CComPtrBase@UIConnectionPointContainer@@@ATL@@QBEPAV?$_NoAddRefReleaseOnCComPtr@UIConnectionPointContainer@@@1@XZ 00562c50 f i LUNAClient.obj
 0002:0002ac60       ??0?$CComPtr@UIConnectionPoint@@@ATL@@QAE@XZ 00562c60 f i LUNAClient.obj
 0002:0002ac70       ??1?$CComPtrBase@UIConnectionPoint@@@ATL@@QAE@XZ 00562c70 f i LUNAClient.obj
 0002:0002ac80       ??I?$CComPtrBase@UIConnectionPoint@@@ATL@@QAEPAPAUIConnectionPoint@@XZ 00562c80 f i LUNAClient.obj
 0002:0002ac90       ??C?$CComPtrBase@UIConnectionPoint@@@ATL@@QBEPAV?$_NoAddRefReleaseOnCComPtr@UIConnectionPoint@@@1@XZ 00562c90 f i LUNAClient.obj
 0002:0002aca0       ??B?$CComPtrBase@UIOleObject@@@ATL@@QBEPAUIOleObject@@XZ 00562ca0 f i LUNAClient.obj
 0002:0002acb0       ??C?$CComPtrBase@UIOleObject@@@ATL@@QBEPAV?$_NoAddRefReleaseOnCComPtr@UIOleObject@@@1@XZ 00562cb0 f i LUNAClient.obj
 0002:0002acc0       ?Release@?$CComPtrBase@UIOleObject@@@ATL@@QAEXXZ 00562cc0 f i LUNAClient.obj
 0002:0002ace0       ?Release@?$CComPtrBase@UIOleInPlaceFrame@@@ATL@@QAEXXZ 00562ce0 f i LUNAClient.obj
 0002:0002ad00       ?Release@?$CComPtrBase@UIOleInPlaceUIWindow@@@ATL@@QAEXXZ 00562d00 f i LUNAClient.obj
 0002:0002ad20       ??B?$CComPtrBase@UIViewObjectEx@@@ATL@@QBEPAUIViewObjectEx@@XZ 00562d20 f i LUNAClient.obj
 0002:0002ad30       ??C?$CComPtrBase@UIViewObjectEx@@@ATL@@QBEPAV?$_NoAddRefReleaseOnCComPtr@UIViewObjectEx@@@1@XZ 00562d30 f i LUNAClient.obj
 0002:0002ad40       ?Release@?$CComPtrBase@UIViewObjectEx@@@ATL@@QAEXXZ 00562d40 f i LUNAClient.obj
 0002:0002ad60       ?Release@?$CComPtrBase@UIOleInPlaceObjectWindowless@@@ATL@@QAEXXZ 00562d60 f i LUNAClient.obj
 0002:0002ad80       ??0?$CComPtr@UIObjectWithSite@@@ATL@@QAE@XZ 00562d80 f i LUNAClient.obj
 0002:0002ad90       ??1?$CComPtrBase@UIObjectWithSite@@@ATL@@QAE@XZ 00562d90 f i LUNAClient.obj
 0002:0002ada0       ??B?$CComPtrBase@UIObjectWithSite@@@ATL@@QBEPAUIObjectWithSite@@XZ 00562da0 f i LUNAClient.obj
 0002:0002adb0       ??I?$CComPtrBase@UIObjectWithSite@@@ATL@@QAEPAPAUIObjectWithSite@@XZ 00562db0 f i LUNAClient.obj
 0002:0002adc0       ??C?$CComPtrBase@UIObjectWithSite@@@ATL@@QBEPAV?$_NoAddRefReleaseOnCComPtr@UIObjectWithSite@@@1@XZ 00562dc0 f i LUNAClient.obj
 0002:0002add0       ??0?$CComPtrBase@UIConnectionPointContainer@@@ATL@@IAE@XZ 00562dd0 f i LUNAClient.obj
 0002:0002ade0       ??0?$CComPtrBase@UIConnectionPoint@@@ATL@@IAE@XZ 00562de0 f i LUNAClient.obj
 0002:0002adf0       ??0?$CComPtrBase@UIObjectWithSite@@@ATL@@IAE@XZ 00562df0 f i LUNAClient.obj
 0002:0002ae00       ??0?$CComContainedObject@VCAxHostWindow@ATL@@@ATL@@QAE@PAX@Z 00562e00 f i LUNAClient.obj
 0002:0002ae80       ??0CAxHostWindow@ATL@@QAE@XZ 00562e80 f i LUNAClient.obj
 0002:0002b030       ??0?$CComPtr@UIDispatch@@@ATL@@QAE@XZ 00563030 f i LUNAClient.obj
 0002:0002b040       ?OnFinalMessage@CAxHostWindow@ATL@@UAEXPAUHWND__@@@Z 00563040 f i LUNAClient.obj
 0002:0002b060       ?ProcessWindowMessage@CAxHostWindow@ATL@@UAEHPAUHWND__@@IIJAAJK@Z 00563060 f i LUNAClient.obj
 0002:0002ba30       ?OnForwardMsg@CAxHostWindow@ATL@@QAEJIIJAAH@Z 00563a30 f i LUNAClient.obj
 0002:0002bae0       ?OnGetUnknown@CAxHostWindow@ATL@@QAEJIIJAAH@Z 00563ae0 f i LUNAClient.obj
 0002:0002bb00       ?OnGetControl@CAxHostWindow@ATL@@QAEJIIJAAH@Z 00563b00 f i LUNAClient.obj
 0002:0002bb30       ?OnEraseBackground@CAxHostWindow@ATL@@QAEJIIJAAH@Z 00563b30 f i LUNAClient.obj
 0002:0002bb60       ?OnMouseActivate@CAxHostWindow@ATL@@QAEJIIJAAH@Z 00563b60 f i LUNAClient.obj
 0002:0002bc90       ?OnSetFocus@CAxHostWindow@ATL@@QAEJIIJAAH@Z 00563c90 f i LUNAClient.obj
 0002:0002be40       ?IsChild@CWindow@ATL@@QBEHPAUHWND__@@@Z 00563e40 f i LUNAClient.obj
 0002:0002be60       ?OnKillFocus@CAxHostWindow@ATL@@QAEJIIJAAH@Z 00563e60 f i LUNAClient.obj
 0002:0002be80       ?OnSize@CAxHostWindow@ATL@@QAEJIIJAAH@Z 00563e80 f i LUNAClient.obj
 0002:0002bf80       ?AtlPixelToHiMetric@ATL@@YGXPBUtagSIZE@@PAU2@@Z 00563f80 f i LUNAClient.obj
 0002:0002c000       ?OnDestroy@CAxHostWindow@ATL@@QAEJIIJAAH@Z 00564000 f i LUNAClient.obj
 0002:0002c050       ?OnWindowMessage@CAxHostWindow@ATL@@QAEJIIJAAH@Z 00564050 f i LUNAClient.obj
 0002:0002c0d0       ?OnWindowlessMouseMessage@CAxHostWindow@ATL@@QAEJIIJAAH@Z 005640d0 f i LUNAClient.obj
 0002:0002c180       ?OnPaint@CAxHostWindow@ATL@@QAEJIIJAAH@Z 00564180 f i LUNAClient.obj
 0002:0002c400       ?GetClientRect@CWindow@ATL@@QBEHPAUtagRECT@@@Z 00564400 f i LUNAClient.obj
 0002:0002c420       ?CreateControl@CAxHostWindow@ATL@@UAGJPBGPAUHWND__@@PAUIStream@@@Z 00564420 f i LUNAClient.obj
 0002:0002c4c0       ?CreateControlEx@CAxHostWindow@ATL@@UAGJPBGPAUHWND__@@PAUIStream@@PAPAUIUnknown@@ABU_GUID@@PAU5@@Z 005644c0 f i LUNAClient.obj
 0002:0002c500       ?AttachControl@CAxHostWindow@ATL@@UAGJPAUIUnknown@@PAUHWND__@@@Z 00564500 f i LUNAClient.obj
 0002:0002c5d0       ?RedrawWindow@CWindow@ATL@@QAEHPBUtagRECT@@PAUHRGN__@@I@Z 005645d0 f i LUNAClient.obj
 0002:0002c600       ?QueryControl@CAxHostWindow@ATL@@UAGJABU_GUID@@PAPAX@Z 00564600 f i LUNAClient.obj
 0002:0002c660       ?SetExternalDispatch@CAxHostWindow@ATL@@UAGJPAUIDispatch@@@Z 00564660 f i LUNAClient.obj
 0002:0002c680       ??4?$CComPtr@UIDispatch@@@ATL@@QAEPAUIDispatch@@PAU2@@Z 00564680 f i LUNAClient.obj
 0002:0002c6a0       ?AtlComPtrAssign@ATL@@YGPAUIUnknown@@PAPAU2@PAU2@@Z 005646a0 f i LUNAClient.obj
 0002:0002c6e0       ?SetExternalUIHandler@CAxHostWindow@ATL@@UAGJPAUIDocHostUIHandlerDispatch@@@Z 005646e0 f i LUNAClient.obj
 0002:0002c700       ?CreateControlLic@CAxHostWindow@ATL@@UAGJPBGPAUHWND__@@PAUIStream@@PAG@Z 00564700 f i LUNAClient.obj
 0002:0002c7a0       ?CreateControlLicEx@CAxHostWindow@ATL@@UAGJPBGPAUHWND__@@PAUIStream@@PAPAUIUnknown@@ABU_GUID@@PAU5@PAG@Z 005647a0 f i LUNAClient.obj
 0002:0002cd20       ?ocslen@@YAHPBG@Z          00564d20 f i LUNAClient.obj
 0002:0002cd30       ??0CComVariant@ATL@@QAE@XZ 00564d30 f i LUNAClient.obj
 0002:0002cd50       ??1CComVariant@ATL@@QAE@XZ 00564d50 f i LUNAClient.obj
 0002:0002cd60       ??0CComVariant@ATL@@QAE@PBG@Z 00564d60 f i LUNAClient.obj
 0002:0002cd80       ??4CComVariant@ATL@@QAEAAV01@PBG@Z 00564d80 f i LUNAClient.obj
 0002:0002cdd0       ?Clear@CComVariant@ATL@@QAEJXZ 00564dd0 f i LUNAClient.obj
 0002:0002cde0       ?AtlAdvise@ATL@@YGJPAUIUnknown@@0ABU_GUID@@PAK@Z 00564de0 f i LUNAClient.obj
 0002:0002ceb0       ?GetStyle@CWindow@ATL@@QBEKXZ 00564eb0 f i LUNAClient.obj
 0002:0002cec0       ?SetWindowLongA@CWindow@ATL@@QAEJHJ@Z 00564ec0 f i LUNAClient.obj
 0002:0002cee0       ?SetWindowPos@CWindow@ATL@@QAEHPAUHWND__@@HHHHI@Z 00564ee0 f i LUNAClient.obj
 0002:0002cf20       ?IsParentDialog@CWindow@ATL@@QAEHXZ 00564f20 f i LUNAClient.obj
 0002:0002cfa0       ??BCWindow@ATL@@QBEPAUHWND__@@XZ 00564fa0 f i LUNAClient.obj
 0002:0002cfb0       ?GetParent@CWindow@ATL@@QBE?AV12@XZ 00564fb0 f i LUNAClient.obj
 0002:0002cfe0       ??0CWindow@ATL@@QAE@PAUHWND__@@@Z 00564fe0 f i LUNAClient.obj
 0002:0002d2a0       ?AtlW2AHelper@@YGPADPADPBGHI@Z 005652a0 f i LUNAClient.obj
 0002:0002d2f0       ?FindOneOf@CAtlModule@ATL@@SAPBDPBD0@Z 005652f0 f i LUNAClient.obj
 0002:0002d350       ??1?$CComPtr@UIClassFactory2@@@ATL@@QAE@XZ 00565350 f i LUNAClient.obj
 0002:0002d360       ?ShowContextMenu@CAxHostWindow@ATL@@UAGJKPAUtagPOINT@@PAUIUnknown@@PAUIDispatch@@@Z 00565360 f i LUNAClient.obj
 0002:0002d3d0       ?GetHostInfo@CAxHostWindow@ATL@@UAGJPAU_DOCHOSTUIINFO@@@Z 005653d0 f i LUNAClient.obj
 0002:0002d450       ?ShowUI@CAxHostWindow@ATL@@UAGJKPAUIOleInPlaceActiveObject@@PAUIOleCommandTarget@@PAUIOleInPlaceFrame@@PAUIOleInPlaceUIWindow@@@Z 00565450 f i LUNAClient.obj
 0002:0002d4c0       ?HideUI@CAxHostWindow@ATL@@UAGJXZ 005654c0 f i LUNAClient.obj
 0002:0002d500       ?UpdateUI@CAxHostWindow@ATL@@UAGJXZ 00565500 f i LUNAClient.obj
 0002:0002d540       ?EnableModeless@CAxHostWindow@ATL@@UAGJH@Z 00565540 f i LUNAClient.obj
 0002:0002d590       ?OnDocWindowActivate@CAxHostWindow@ATL@@UAGJH@Z 00565590 f i LUNAClient.obj
 0002:0002d5e0       ?OnFrameWindowActivate@CAxHostWindow@ATL@@UAGJH@Z 005655e0 f i LUNAClient.obj
 0002:0002d630       ?ResizeBorder@CAxHostWindow@ATL@@UAGJPBUtagRECT@@PAUIOleInPlaceUIWindow@@H@Z 00565630 f i LUNAClient.obj
 0002:0002d6a0       ?TranslateAcceleratorA@CAxHostWindow@ATL@@UAGJPAUtagMSG@@PBU_GUID@@K@Z 005656a0 f i LUNAClient.obj
 0002:0002d770       ??0CComBSTR@ATL@@QAE@ABU_GUID@@@Z 00565770 f i LUNAClient.obj
 0002:0002d7f0       ?GetOptionKeyPath@CAxHostWindow@ATL@@UAGJPAPAGK@Z 005657f0 f i LUNAClient.obj
 0002:0002d8d0       ?ocscpy@@YAPAGPAGPBG@Z     005658d0 f i LUNAClient.obj
 0002:0002d910       ?ByteLength@CComBSTR@ATL@@QBEIXZ 00565910 f i LUNAClient.obj
 0002:0002d930       ?GetDropTarget@CAxHostWindow@ATL@@UAGJPAUIDropTarget@@PAPAU3@@Z 00565930 f i LUNAClient.obj
 0002:0002da40       ?GetExternal@CAxHostWindow@ATL@@UAGJPAPAUIDispatch@@@Z 00565a40 f i LUNAClient.obj
 0002:0002dac0       ?TranslateUrl@CAxHostWindow@ATL@@UAGJKPAGPAPAG@Z 00565ac0 f i LUNAClient.obj
 0002:0002dc50       ??ICComBSTR@ATL@@QAEPAPAGXZ 00565c50 f i LUNAClient.obj
 0002:0002dc60       ?FilterDataObject@CAxHostWindow@ATL@@UAGJPAUIDataObject@@PAPAU3@@Z 00565c60 f i LUNAClient.obj
 0002:0002dd70       ?Invoke@CAxHostWindow@ATL@@UAGJJABU_GUID@@KGPAUtagDISPPARAMS@@PAUtagVARIANT@@PAUtagEXCEPINFO@@PAI@Z 00565d70 f i LUNAClient.obj
 0002:0002de50       ?FireAmbientPropertyChange@CAxHostWindow@ATL@@QAEJJ@Z 00565e50 f i LUNAClient.obj
 0002:0002dee0       ?put_AllowWindowlessActivation@CAxHostWindow@ATL@@UAGJF@Z 00565ee0 f i LUNAClient.obj
 0002:0002df00       ?get_AllowWindowlessActivation@CAxHostWindow@ATL@@UAGJPAF@Z 00565f00 f i LUNAClient.obj
 0002:0002df30       ?put_BackColor@CAxHostWindow@ATL@@UAGJK@Z 00565f30 f i LUNAClient.obj
 0002:0002df70       ?get_BackColor@CAxHostWindow@ATL@@UAGJPAK@Z 00565f70 f i LUNAClient.obj
 0002:0002dfa0       ?put_ForeColor@CAxHostWindow@ATL@@UAGJK@Z 00565fa0 f i LUNAClient.obj
 0002:0002dfd0       ?get_ForeColor@CAxHostWindow@ATL@@UAGJPAK@Z 00565fd0 f i LUNAClient.obj
 0002:0002e000       ?put_LocaleID@CAxHostWindow@ATL@@UAGJK@Z 00566000 f i LUNAClient.obj
 0002:0002e030       ?get_LocaleID@CAxHostWindow@ATL@@UAGJPAK@Z 00566030 f i LUNAClient.obj
 0002:0002e060       ?put_UserMode@CAxHostWindow@ATL@@UAGJF@Z 00566060 f i LUNAClient.obj
 0002:0002e0a0       ?get_UserMode@CAxHostWindow@ATL@@UAGJPAF@Z 005660a0 f i LUNAClient.obj
 0002:0002e0d0       ?put_DisplayAsDefault@CAxHostWindow@ATL@@UAGJF@Z 005660d0 f i LUNAClient.obj
 0002:0002e110       ?get_DisplayAsDefault@CAxHostWindow@ATL@@UAGJPAF@Z 00566110 f i LUNAClient.obj
 0002:0002e140       ?put_Font@CAxHostWindow@ATL@@UAGJPAUIFontDisp@@@Z 00566140 f i LUNAClient.obj
 0002:0002e180       ?get_Font@CAxHostWindow@ATL@@UAGJPAPAUIFontDisp@@@Z 00566180 f i LUNAClient.obj
 0002:0002e3a0       ?AtlHresultFromLastError@ATL@@YAJXZ 005663a0 f i LUNAClient.obj
 0002:0002e3c0       ?put_MessageReflect@CAxHostWindow@ATL@@UAGJF@Z 005663c0 f i LUNAClient.obj
 0002:0002e400       ?get_MessageReflect@CAxHostWindow@ATL@@UAGJPAF@Z 00566400 f i LUNAClient.obj
 0002:0002e430       ?get_ShowGrabHandles@CAxHostWindow@ATL@@UAGJPAF@Z 00566430 f i LUNAClient.obj
 0002:0002e450       ?get_ShowHatching@CAxHostWindow@ATL@@UAGJPAF@Z 00566450 f i LUNAClient.obj
 0002:0002e470       ?put_DocHostFlags@CAxHostWindow@ATL@@UAGJK@Z 00566470 f i LUNAClient.obj
 0002:0002e4a0       ?get_DocHostFlags@CAxHostWindow@ATL@@UAGJPAK@Z 005664a0 f i LUNAClient.obj
 0002:0002e4d0       ?put_DocHostDoubleClickFlags@CAxHostWindow@ATL@@UAGJK@Z 005664d0 f i LUNAClient.obj
 0002:0002e4f0       ?get_DocHostDoubleClickFlags@CAxHostWindow@ATL@@UAGJPAK@Z 005664f0 f i LUNAClient.obj
 0002:0002e520       ?put_AllowContextMenu@CAxHostWindow@ATL@@UAGJF@Z 00566520 f i LUNAClient.obj
 0002:0002e550       ?get_AllowContextMenu@CAxHostWindow@ATL@@UAGJPAF@Z 00566550 f i LUNAClient.obj
 0002:0002e580       ?put_AllowShowUI@CAxHostWindow@ATL@@UAGJF@Z 00566580 f i LUNAClient.obj
 0002:0002e5b0       ?get_AllowShowUI@CAxHostWindow@ATL@@UAGJPAF@Z 005665b0 f i LUNAClient.obj
 0002:0002e5e0       ?put_OptionKeyPath@CAxHostWindow@ATL@@UAGJPAG@Z 005665e0 f i LUNAClient.obj
 0002:0002e600       ??4CComBSTR@ATL@@QAEAAV01@PBG@Z 00566600 f i LUNAClient.obj
 0002:0002e650       ?get_OptionKeyPath@CAxHostWindow@ATL@@UAGJPAPAG@Z 00566650 f i LUNAClient.obj
 0002:0002e690       ?SetAmbientDispatch@CAxHostWindow@ATL@@UAGJPAUIDispatch@@@Z 00566690 f i LUNAClient.obj
 0002:0002e6b0       ?SetSite@CAxHostWindow@ATL@@UAGJPAUIUnknown@@@Z 005666b0 f i LUNAClient.obj
 0002:0002e730       ?SaveObject@CAxHostWindow@ATL@@UAGJXZ 00566730 f i LUNAClient.obj
 0002:0002e740       ?GetMoniker@CAxHostWindow@ATL@@UAGJKKPAPAUIMoniker@@@Z 00566740 f i LUNAClient.obj
 0002:0002e750       ?GetContainer@CAxHostWindow@ATL@@UAGJPAPAUIOleContainer@@@Z 00566750 f i LUNAClient.obj
 0002:0002e7c0       ?ShowObject@CAxHostWindow@ATL@@UAGJXZ 005667c0 f i LUNAClient.obj
 0002:0002e840       ?GetDC@CWindow@ATL@@QAEPAUHDC__@@XZ 00566840 f i LUNAClient.obj
 0002:0002e850       ?ReleaseDC@CWindow@ATL@@QAEHPAUHDC__@@@Z 00566850 f i LUNAClient.obj
 0002:0002e870       ?OnShowWindow@CAxHostWindow@ATL@@UAGJH@Z 00566870 f i LUNAClient.obj
 0002:0002e880       ?RequestNewObjectLayout@CAxHostWindow@ATL@@UAGJXZ 00566880 f i LUNAClient.obj
 0002:0002e890       ?GetWindow@CAxHostWindow@ATL@@UAGJPAPAUHWND__@@@Z 00566890 f i LUNAClient.obj
 0002:0002e8b0       ?ContextSensitiveHelp@CAxHostWindow@ATL@@UAGJH@Z 005668b0 f i LUNAClient.obj
 0002:0002e8c0       ?CanInPlaceActivate@CAxHostWindow@ATL@@UAGJXZ 005668c0 f i LUNAClient.obj
 0002:0002e8d0       ?OnInPlaceActivate@CAxHostWindow@ATL@@UAGJXZ 005668d0 f i LUNAClient.obj
 0002:0002e940       ?OnUIActivate@CAxHostWindow@ATL@@UAGJXZ 00566940 f i LUNAClient.obj
 0002:0002e950       ?GetWindowContext@CAxHostWindow@ATL@@UAGJPAPAUIOleInPlaceFrame@@PAPAUIOleInPlaceUIWindow@@PAUtagRECT@@2PAUtagOIFI@@@Z 00566950 f i LUNAClient.obj
 0002:0002eb30       ?Scroll@CAxHostWindow@ATL@@UAGJUtagSIZE@@@Z 00566b30 f i LUNAClient.obj
 0002:0002eb40       ?OnUIDeactivate@CAxHostWindow@ATL@@UAGJH@Z 00566b40 f i LUNAClient.obj
 0002:0002eb50       ?OnInPlaceDeactivate@CAxHostWindow@ATL@@UAGJXZ 00566b50 f i LUNAClient.obj
 0002:0002eb70       ?DiscardUndoState@CAxHostWindow@ATL@@UAGJXZ 00566b70 f i LUNAClient.obj
 0002:0002eb80       ?DeactivateAndUndo@CAxHostWindow@ATL@@UAGJXZ 00566b80 f i LUNAClient.obj
 0002:0002eb90       ?OnPosRectChange@CAxHostWindow@ATL@@UAGJPBUtagRECT@@@Z 00566b90 f i LUNAClient.obj
 0002:0002eba0       ?OnInPlaceActivateEx@CAxHostWindow@ATL@@UAGJPAHK@Z 00566ba0 f i LUNAClient.obj
 0002:0002ec80       ?OnInPlaceDeactivateEx@CAxHostWindow@ATL@@UAGJH@Z 00566c80 f i LUNAClient.obj
 0002:0002eca0       ?RequestUIActivate@CAxHostWindow@ATL@@UAGJXZ 00566ca0 f i LUNAClient.obj
 0002:0002ecb0       ?CanWindowlessActivate@CAxHostWindow@ATL@@UAGJXZ 00566cb0 f i LUNAClient.obj
 0002:0002ecd0       ?GetCapture@CAxHostWindow@ATL@@UAGJXZ 00566cd0 f i LUNAClient.obj
 0002:0002ecf0       ?SetCapture@CAxHostWindow@ATL@@UAGJH@Z 00566cf0 f i LUNAClient.obj
 0002:0002ed30       ?SetCapture@CWindow@ATL@@QAEPAUHWND__@@XZ 00566d30 f i LUNAClient.obj
 0002:0002ed40       ?GetFocus@CAxHostWindow@ATL@@UAGJXZ 00566d40 f i LUNAClient.obj
 0002:0002ed60       ?SetFocus@CAxHostWindow@ATL@@UAGJH@Z 00566d60 f i LUNAClient.obj
 0002:0002ed90       ?GetDC@CAxHostWindow@ATL@@UAGJPBUtagRECT@@KPAPAUHDC__@@@Z 00566d90 f i LUNAClient.obj
 0002:0002eed0       ?ReleaseDC@CAxHostWindow@ATL@@UAGJPAUHDC__@@@Z 00566ed0 f i LUNAClient.obj
 0002:0002ef80       ?InvalidateRect@CAxHostWindow@ATL@@UAGJPBUtagRECT@@H@Z 00566f80 f i LUNAClient.obj
 0002:0002efb0       ?InvalidateRect@CWindow@ATL@@QAEHPBUtagRECT@@H@Z 00566fb0 f i LUNAClient.obj
 0002:0002efd0       ?InvalidateRgn@CAxHostWindow@ATL@@UAGJPAUHRGN__@@H@Z 00566fd0 f i LUNAClient.obj
 0002:0002f000       ?InvalidateRgn@CWindow@ATL@@QAEXPAUHRGN__@@H@Z 00567000 f i LUNAClient.obj
 0002:0002f020       ?ScrollRect@CAxHostWindow@ATL@@UAGJHHPBUtagRECT@@0@Z 00567020 f i LUNAClient.obj
 0002:0002f030       ?AdjustRect@CAxHostWindow@ATL@@UAGJPAUtagRECT@@@Z 00567030 f i LUNAClient.obj
 0002:0002f040       ?OnDefWindowMessage@CAxHostWindow@ATL@@UAGJIIJPAJ@Z 00567040 f i LUNAClient.obj
 0002:0002f070       ?OnControlInfoChanged@CAxHostWindow@ATL@@UAGJXZ 00567070 f i LUNAClient.obj
 0002:0002f080       ?LockInPlaceActive@CAxHostWindow@ATL@@UAGJH@Z 00567080 f i LUNAClient.obj
 0002:0002f090       ?GetExtendedControl@CAxHostWindow@ATL@@UAGJPAPAUIDispatch@@@Z 00567090 f i LUNAClient.obj
 0002:0002f0c0       ?TransformCoords@CAxHostWindow@ATL@@UAGJPAU_POINTL@@PAUtagPOINTF@@K@Z 005670c0 f i LUNAClient.obj
 0002:0002f0d0       ?TranslateAcceleratorA@CAxHostWindow@ATL@@UAGJPAUtagMSG@@K@Z 005670d0 f i LUNAClient.obj
 0002:0002f0e0       ?OnFocus@CAxHostWindow@ATL@@UAGJH@Z 005670e0 f i LUNAClient.obj
 0002:0002f110       ?ShowPropertyFrame@CAxHostWindow@ATL@@UAGJXZ 00567110 f i LUNAClient.obj
 0002:0002f120       ?OnDataChange@CAxHostWindow@ATL@@UAGXPAUtagFORMATETC@@PAUtagSTGMEDIUM@@@Z 00567120 f i LUNAClient.obj
 0002:0002f130       ?OnViewChange@CAxHostWindow@ATL@@UAGXKJ@Z 00567130 f i LUNAClient.obj
 0002:0002f140       ?OnRename@CAxHostWindow@ATL@@UAGXPAUIMoniker@@@Z 00567140 f i LUNAClient.obj
 0002:0002f150       ?OnSave@CAxHostWindow@ATL@@UAGXXZ 00567150 f i LUNAClient.obj
 0002:0002f160       ?OnClose@CAxHostWindow@ATL@@UAGXXZ 00567160 f i LUNAClient.obj
 0002:0002f170       ?ParseDisplayName@CAxHostWindow@ATL@@UAGJPAUIBindCtx@@PAGPAKPAPAUIMoniker@@@Z 00567170 f i LUNAClient.obj
 0002:0002f180       ?EnumObjects@CAxHostWindow@ATL@@UAGJKPAPAUIEnumUnknown@@@Z 00567180 f i LUNAClient.obj
 0002:0002f2b0       ?LockContainer@CAxHostWindow@ATL@@UAGJH@Z 005672b0 f i LUNAClient.obj
 0002:0002f2e0       ?ActivateAx@CAxHostWindow@ATL@@QAEJPAUIUnknown@@_NPAUIStream@@@Z 005672e0 f i LUNAClient.obj
 0002:0002f8f0       ?AtlHiMetricToPixel@ATL@@YGXPBUtagSIZE@@PAU2@@Z 005678f0 f i LUNAClient.obj
 0002:0002f970       ?SubclassWindow@CAxHostWindow@ATL@@QAEXPAUHWND__@@@Z 00567970 f i LUNAClient.obj
 0002:0002f9a0       ?ReleaseWindow@CAxHostWindow@ATL@@QAEXXZ 005679a0 f i LUNAClient.obj
 0002:0002f9d0       ?ReflectNotifications@CAxHostWindow@ATL@@QAEJIIJAAH@Z 005679d0 f i LUNAClient.obj
 0002:0002fbe0       ?GetDlgItem@CWindow@ATL@@QBE?AV12@H@Z 00567be0 f i LUNAClient.obj
 0002:0002fc10       ?QueryService@CAxHostWindow@ATL@@UAGJABU_GUID@@0PAPAX@Z 00567c10 f i LUNAClient.obj
 0002:0002fc80       ??0?$CWindowImpl@VCAxHostWindow@ATL@@VCWindow@2@V?$CWinTraits@$0FGAAAAAA@$0A@@2@@ATL@@QAE@XZ 00567c80 f i LUNAClient.obj
 0002:0002fc90       ??0IAxWinHostWindowLic@@QAE@XZ 00567c90 f i LUNAClient.obj
 0002:0002fca0       ??0IOleClientSite@@QAE@XZ  00567ca0 f i LUNAClient.obj
 0002:0002fcb0       ??0IOleInPlaceSiteWindowless@@QAE@XZ 00567cb0 f i LUNAClient.obj
 0002:0002fcc0       ??0IOleControlSite@@QAE@XZ 00567cc0 f i LUNAClient.obj
 0002:0002fcd0       ??0IOleContainer@@QAE@XZ   00567cd0 f i LUNAClient.obj
 0002:0002fce0       ??0?$IObjectWithSiteImpl@VCAxHostWindow@ATL@@@ATL@@QAE@XZ 00567ce0 f i LUNAClient.obj
 0002:0002fd00       ??0IServiceProvider@@QAE@XZ 00567d00 f i LUNAClient.obj
 0002:0002fd10       ??0IAdviseSink@@QAE@XZ     00567d10 f i LUNAClient.obj
 0002:0002fd20       ??0IDocHostUIHandler@@QAE@XZ 00567d20 f i LUNAClient.obj
 0002:0002fd30       ??0?$IDispatchImpl@UIAxWinAmbientDispatchEx@@$1?_GUID_b2d0778b_ac99_4c58_a5c8_e7724e5316b5@@3U__s_GUID@@B$1?m_libid@CAtlModule@ATL@@2U_GUID@@A$0PPPP@$0PPPP@VCComTypeInfoHolder@ATL@@@ATL@@QAE@XZ 00567d30 f i LUNAClient.obj
 0002:0002fd40       ??1?$CComQIPtr@UIOleInPlaceActiveObject@@$1?_GUID_00000117_0000_0000_c000_000000000046@@3U__s_GUID@@B@ATL@@QAE@XZ 00567d40 f i LUNAClient.obj
 0002:0002fd50       ??1?$CComPtr@UIOleInPlaceActiveObject@@@ATL@@QAE@XZ 00567d50 f i LUNAClient.obj
 0002:0002fd60       ??1?$CComPtr@UIOleClientSite@@@ATL@@QAE@XZ 00567d60 f i LUNAClient.obj
 0002:0002fd70       ??1?$CComPtr@UIPersistStreamInit@@@ATL@@QAE@XZ 00567d70 f i LUNAClient.obj
 0002:0002fd80       ??1?$CComPtr@UIWebBrowser2@@@ATL@@QAE@XZ 00567d80 f i LUNAClient.obj
 0002:0002fd90       ??1?$CComQIPtr@UIOleControl@@$1?_GUID_b196b288_bab4_101a_b69c_00aa00341d07@@3U__s_GUID@@B@ATL@@QAE@XZ 00567d90 f i LUNAClient.obj
 0002:0002fda0       ??1?$CComQIPtr@UIOleClientSite@@$1?_GUID_00000118_0000_0000_c000_000000000046@@3U__s_GUID@@B@ATL@@QAE@XZ 00567da0 f i LUNAClient.obj
 0002:0002fdb0       ??1?$CComQIPtr@UIPersistStreamInit@@$1?_GUID_7fd52380_4e07_101b_ae2d_08002b2ec713@@3U__s_GUID@@B@ATL@@QAE@XZ 00567db0 f i LUNAClient.obj
 0002:0002fdc0       ??1?$CComQIPtr@UIPersistStream@@$1?_GUID_00000109_0000_0000_c000_000000000046@@3U__s_GUID@@B@ATL@@QAE@XZ 00567dc0 f i LUNAClient.obj
 0002:0002fdd0       ??1?$CComPtr@UIPersistStream@@@ATL@@QAE@XZ 00567dd0 f i LUNAClient.obj
 0002:0002fde0       ??1?$CComQIPtr@UIAdviseSink@@$1?_GUID_0000010f_0000_0000_c000_000000000046@@3U__s_GUID@@B@ATL@@QAE@XZ 00567de0 f i LUNAClient.obj
 0002:0002fdf0       ??0IAxWinHostWindow@@QAE@XZ 00567df0 f i LUNAClient.obj
 0002:0002fe00       ??0IOleInPlaceSiteEx@@QAE@XZ 00567e00 f i LUNAClient.obj
 0002:0002fe10       ??0IParseDisplayName@@QAE@XZ 00567e10 f i LUNAClient.obj
 0002:0002fe20       ??0IObjectWithSite@@QAE@XZ 00567e20 f i LUNAClient.obj
 0002:0002fe30       ??0IAxWinAmbientDispatchEx@@QAE@XZ 00567e30 f i LUNAClient.obj
 0002:0002fe40       ??1?$CComPtr@UIOleControl@@@ATL@@QAE@XZ 00567e40 f i LUNAClient.obj
 0002:0002fe50       ??1?$CComPtr@UIAdviseSink@@@ATL@@QAE@XZ 00567e50 f i LUNAClient.obj
 0002:0002fe60       ??0IOleInPlaceSite@@QAE@XZ 00567e60 f i LUNAClient.obj
 0002:0002fe70       ??0IOleWindow@@QAE@XZ      00567e70 f i LUNAClient.obj
 0002:0002fe80       ??0IAxWinAmbientDispatch@@QAE@XZ 00567e80 f i LUNAClient.obj
 0002:0002fe90       ??0IDispatch@@QAE@XZ       00567e90 f i LUNAClient.obj
 0002:0002fea0       ??0?$CComPtrBase@UIDispatch@@@ATL@@IAE@XZ 00567ea0 f i LUNAClient.obj
 0002:0002feb0       ??B?$CComPtrBase@UIDispatch@@@ATL@@QBEPAUIDispatch@@XZ 00567eb0 f i LUNAClient.obj
 0002:0002fec0       ??C?$CComPtrBase@UIDispatch@@@ATL@@QBEPAV?$_NoAddRefReleaseOnCComPtr@UIDispatch@@@1@XZ 00567ec0 f i LUNAClient.obj
 0002:0002fed0       ?CopyTo@?$CComPtrBase@UIDispatch@@@ATL@@QAEJPAPAUIDispatch@@@Z 00567ed0 f i LUNAClient.obj
 0002:0002ff00       ??0?$CComPtr@UIUnknown@@@ATL@@QAE@PAUIUnknown@@@Z 00567f00 f i LUNAClient.obj
 0002:0002ff20       ??4?$CComPtr@UIUnknown@@@ATL@@QAEPAUIUnknown@@PAU2@@Z 00567f20 f i LUNAClient.obj
 0002:0002ff40       ??8?$CComPtrBase@UIUnknown@@@ATL@@QBE_NPAUIUnknown@@@Z 00567f40 f i LUNAClient.obj
 0002:0002ff60       ??1?$CComPtrBase@UIPersistStream@@@ATL@@QAE@XZ 00567f60 f i LUNAClient.obj
 0002:0002ff70       ??B?$CComPtrBase@UIPersistStream@@@ATL@@QBEPAUIPersistStream@@XZ 00567f70 f i LUNAClient.obj
 0002:0002ff80       ??C?$CComPtrBase@UIPersistStream@@@ATL@@QBEPAV?$_NoAddRefReleaseOnCComPtr@UIPersistStream@@@1@XZ 00567f80 f i LUNAClient.obj
 0002:0002ff90       ??0?$CComPtr@UIClassFactory2@@@ATL@@QAE@XZ 00567f90 f i LUNAClient.obj
 0002:0002ffa0       ??1?$CComPtrBase@UIClassFactory2@@@ATL@@QAE@XZ 00567fa0 f i LUNAClient.obj
 0002:0002ffb0       ??I?$CComPtrBase@UIClassFactory2@@@ATL@@QAEPAPAUIClassFactory2@@XZ 00567fb0 f i LUNAClient.obj
 0002:0002ffc0       ??C?$CComPtrBase@UIClassFactory2@@@ATL@@QBEPAV?$_NoAddRefReleaseOnCComPtr@UIClassFactory2@@@1@XZ 00567fc0 f i LUNAClient.obj
 0002:0002ffd0       ??0?$CWindowImplBaseT@VCWindow@ATL@@V?$CWinTraits@$0FGAAAAAA@$0A@@2@@ATL@@QAE@XZ 00567fd0 f i LUNAClient.obj
 0002:0002fff0       ?GetWindowProc@?$CWindowImplBaseT@VCWindow@ATL@@V?$CWinTraits@$0FGAAAAAA@$0A@@2@@ATL@@UAEP6GJPAUHWND__@@IIJ@ZXZ 00567ff0 f i LUNAClient.obj
 0002:00030000       ?DestroyWindow@?$CWindowImplBaseT@VCWindow@ATL@@V?$CWinTraits@$0FGAAAAAA@$0A@@2@@ATL@@QAEHXZ 00568000 f i LUNAClient.obj
 0002:00030010       ?DefWindowProcA@?$CWindowImplBaseT@VCWindow@ATL@@V?$CWinTraits@$0FGAAAAAA@$0A@@2@@ATL@@QAEJXZ 00568010 f i LUNAClient.obj
 0002:00030040       ?DefWindowProcA@?$CWindowImplBaseT@VCWindow@ATL@@V?$CWinTraits@$0FGAAAAAA@$0A@@2@@ATL@@QAEJIIJ@Z 00568040 f i LUNAClient.obj
 0002:00030070       ??1?$CComPtrBase@UIOleInPlaceActiveObject@@@ATL@@QAE@XZ 00568070 f i LUNAClient.obj
 0002:00030080       ??B?$CComPtrBase@UIOleInPlaceActiveObject@@@ATL@@QBEPAUIOleInPlaceActiveObject@@XZ 00568080 f i LUNAClient.obj
 0002:00030090       ??C?$CComPtrBase@UIOleInPlaceActiveObject@@@ATL@@QBEPAV?$_NoAddRefReleaseOnCComPtr@UIOleInPlaceActiveObject@@@1@XZ 00568090 f i LUNAClient.obj
 0002:000300a0       ?SetSite@?$IObjectWithSiteImpl@VCAxHostWindow@ATL@@@ATL@@UAGJPAUIUnknown@@@Z 005680a0 f i LUNAClient.obj
 0002:000300e0       ?GetSite@?$IObjectWithSiteImpl@VCAxHostWindow@ATL@@@ATL@@UAGJABU_GUID@@PAPAX@Z 005680e0 f i LUNAClient.obj
 0002:00030150       ?GetTypeInfoCount@?$IDispatchImpl@UIAxWinAmbientDispatchEx@@$1?_GUID_b2d0778b_ac99_4c58_a5c8_e7724e5316b5@@3U__s_GUID@@B$1?m_libid@CAtlModule@ATL@@2U_GUID@@A$0PPPP@$0PPPP@VCComTypeInfoHolder@ATL@@@ATL@@UAGJPAI@Z 00568150 f i LUNAClient.obj
 0002:00030180       ?GetTypeInfo@?$IDispatchImpl@UIAxWinAmbientDispatchEx@@$1?_GUID_b2d0778b_ac99_4c58_a5c8_e7724e5316b5@@3U__s_GUID@@B$1?m_libid@CAtlModule@ATL@@2U_GUID@@A$0PPPP@$0PPPP@VCComTypeInfoHolder@ATL@@@ATL@@UAGJIKPAPAUITypeInfo@@@Z 00568180 f i LUNAClient.obj
 0002:000301b0       ?GetTypeInfo@CComTypeInfoHolder@ATL@@QAEJIKPAPAUITypeInfo@@@Z 005681b0 f i LUNAClient.obj
 0002:000301d0       ?GetTI@CComTypeInfoHolder@ATL@@QAEJKPAPAUITypeInfo@@@Z 005681d0 f i LUNAClient.obj
 0002:00030230       ?GetTI@CComTypeInfoHolder@ATL@@QAEJK@Z 00568230 f i LUNAClient.obj
 0002:000305c0       ?_AtlVerifyStackAvailable@_ATL_SAFE_ALLOCA_IMPL@ATL@@YA_NK@Z 005685c0 f i LUNAClient.obj
 0002:00030670       ?AddTermFunc@CAtlModule@ATL@@QAEJP6GXK@ZK@Z 00568670 f i LUNAClient.obj
 0002:000306b0       ?AtlModuleAddTermFunc@ATL@@YGJPAU_ATL_MODULE70@1@P6GXK@ZK@Z 005686b0 f i LUNAClient.obj
 0002:000307b0       ??1?$CComPtr@UITypeInfo@@@ATL@@QAE@XZ 005687b0 f i LUNAClient.obj
 0002:000307c0       ?Cleanup@CComTypeInfoHolder@ATL@@SGXK@Z 005687c0 f i LUNAClient.obj
 0002:00030810       ?LoadNameCache@CComTypeInfoHolder@ATL@@QAEJPAUITypeInfo@@@Z 00568810 f i LUNAClient.obj
 0002:00030a20       ?Attach@CComBSTR@ATL@@QAEXPAG@Z 00568a20 f i LUNAClient.obj
 0002:00030a50       ??0stringdispid@CComTypeInfoHolder@ATL@@QAE@XZ 00568a50 f i LUNAClient.obj
 0002:00030a70       ??1?$CComPtr@UITypeInfo2@@@ATL@@QAE@XZ 00568a70 f i LUNAClient.obj
 0002:00030a80       ??0?$CAtlSafeAllocBufferManager@VCCRTAllocator@ATL@@@_ATL_SAFE_ALLOCA_IMPL@ATL@@QAE@XZ 00568a80 f i LUNAClient.obj
 0002:00030a90       ?Allocate@?$CAtlSafeAllocBufferManager@VCCRTAllocator@ATL@@@_ATL_SAFE_ALLOCA_IMPL@ATL@@QAEPAXK@Z 00568a90 f i LUNAClient.obj
 0002:00030ad0       ?Allocate@CCRTAllocator@ATL@@SAPAXI@Z 00568ad0 f i LUNAClient.obj
 0002:00030ae0       ??1?$CAtlSafeAllocBufferManager@VCCRTAllocator@ATL@@@_ATL_SAFE_ALLOCA_IMPL@ATL@@QAE@XZ 00568ae0 f i LUNAClient.obj
 0002:00030b10       ?Free@CCRTAllocator@ATL@@SAXPAX@Z 00568b10 f i LUNAClient.obj
 0002:00030b20       ??0?$CComPtr@UITypeInfo@@@ATL@@QAE@XZ 00568b20 f i LUNAClient.obj
 0002:00030b30       ??0?$CComPtr@UITypeInfo@@@ATL@@QAE@ABV01@@Z 00568b30 f i LUNAClient.obj
 0002:00030b50       ??1?$CComPtrBase@UITypeInfo@@@ATL@@QAE@XZ 00568b50 f i LUNAClient.obj
 0002:00030b60       ??I?$CComPtrBase@UITypeInfo@@@ATL@@QAEPAPAUITypeInfo@@XZ 00568b60 f i LUNAClient.obj
 0002:00030b70       ??C?$CComPtrBase@UITypeInfo@@@ATL@@QBEPAV?$_NoAddRefReleaseOnCComPtr@UITypeInfo@@@1@XZ 00568b70 f i LUNAClient.obj
 0002:00030b80       ?Detach@?$CComPtrBase@UITypeInfo@@@ATL@@QAEPAUITypeInfo@@XZ 00568b80 f i LUNAClient.obj
 0002:00030b90       ??0?$CComPtr@UITypeInfo2@@@ATL@@QAE@XZ 00568b90 f i LUNAClient.obj
 0002:00030ba0       ??1?$CComPtrBase@UITypeInfo2@@@ATL@@QAE@XZ 00568ba0 f i LUNAClient.obj
 0002:00030bb0       ??I?$CComPtrBase@UITypeInfo2@@@ATL@@QAEPAPAUITypeInfo2@@XZ 00568bb0 f i LUNAClient.obj
 0002:00030bc0       ?GetIDsOfNames@?$IDispatchImpl@UIAxWinAmbientDispatchEx@@$1?_GUID_b2d0778b_ac99_4c58_a5c8_e7724e5316b5@@3U__s_GUID@@B$1?m_libid@CAtlModule@ATL@@2U_GUID@@A$0PPPP@$0PPPP@VCComTypeInfoHolder@ATL@@@ATL@@UAGJABU_GUID@@PAPAGIKPAJ@Z 00568bc0 f i LUNAClient.obj
 0002:00030bf0       ?GetIDsOfNames@CComTypeInfoHolder@ATL@@QAEJABU_GUID@@PAPAGIKPAJ@Z 00568bf0 f i LUNAClient.obj
 0002:00030d20       ?EnsureTI@CComTypeInfoHolder@ATL@@QAEJK@Z 00568d20 f i LUNAClient.obj
 0002:00030d40       ?Invoke@?$IDispatchImpl@UIAxWinAmbientDispatchEx@@$1?_GUID_b2d0778b_ac99_4c58_a5c8_e7724e5316b5@@3U__s_GUID@@B$1?m_libid@CAtlModule@ATL@@2U_GUID@@A$0PPPP@$0PPPP@VCComTypeInfoHolder@ATL@@@ATL@@UAGJJABU_GUID@@KGPAUtagDISPPARAMS@@PAUtagVARIANT@@PAUtagEXCEPINFO@@PAI@Z 00568d40 f i LUNAClient.obj
 0002:00030d50       ?Invoke@CComTypeInfoHolder@ATL@@QAEJPAUIDispatch@@JABU_GUID@@KGPAUtagDISPPARAMS@@PAUtagVARIANT@@PAUtagEXCEPINFO@@PAI@Z 00568d50 f i LUNAClient.obj
 0002:00030db0       ??0?$CComPtr@UIOleObject@@@ATL@@QAE@XZ 00568db0 f i LUNAClient.obj
 0002:00030dc0       ??I?$CComPtrBase@UIOleObject@@@ATL@@QAEPAPAUIOleObject@@XZ 00568dc0 f i LUNAClient.obj
 0002:00030dd0       ??0?$CComPtr@UIOleInPlaceFrame@@@ATL@@QAE@XZ 00568dd0 f i LUNAClient.obj
 0002:00030de0       ??I?$CComPtrBase@UIOleInPlaceFrame@@@ATL@@QAEPAPAUIOleInPlaceFrame@@XZ 00568de0 f i LUNAClient.obj
 0002:00030df0       ??7?$CComPtrBase@UIOleInPlaceFrame@@@ATL@@QBE_NXZ 00568df0 f i LUNAClient.obj
 0002:00030e00       ?CopyTo@?$CComPtrBase@UIOleInPlaceFrame@@@ATL@@QAEJPAPAUIOleInPlaceFrame@@@Z 00568e00 f i LUNAClient.obj
 0002:00030e30       ??0?$CComPtr@UIOleInPlaceUIWindow@@@ATL@@QAE@XZ 00568e30 f i LUNAClient.obj
 0002:00030e40       ??I?$CComPtrBase@UIOleInPlaceUIWindow@@@ATL@@QAEPAPAUIOleInPlaceUIWindow@@XZ 00568e40 f i LUNAClient.obj
 0002:00030e50       ??7?$CComPtrBase@UIOleInPlaceUIWindow@@@ATL@@QBE_NXZ 00568e50 f i LUNAClient.obj
 0002:00030e60       ?CopyTo@?$CComPtrBase@UIOleInPlaceUIWindow@@@ATL@@QAEJPAPAUIOleInPlaceUIWindow@@@Z 00568e60 f i LUNAClient.obj
 0002:00030e90       ??0?$CComPtr@UIViewObjectEx@@@ATL@@QAE@XZ 00568e90 f i LUNAClient.obj
 0002:00030ea0       ??I?$CComPtrBase@UIViewObjectEx@@@ATL@@QAEPAPAUIViewObjectEx@@XZ 00568ea0 f i LUNAClient.obj
 0002:00030eb0       ??8?$CComPtrBase@UIViewObjectEx@@@ATL@@QBE_NPAUIViewObjectEx@@@Z 00568eb0 f i LUNAClient.obj
 0002:00030ed0       ??0?$CComPtr@UIOleInPlaceObjectWindowless@@@ATL@@QAE@XZ 00568ed0 f i LUNAClient.obj
 0002:00030ee0       ??B?$CComPtrBase@UIOleInPlaceObjectWindowless@@@ATL@@QBEPAUIOleInPlaceObjectWindowless@@XZ 00568ee0 f i LUNAClient.obj
 0002:00030ef0       ??I?$CComPtrBase@UIOleInPlaceObjectWindowless@@@ATL@@QAEPAPAUIOleInPlaceObjectWindowless@@XZ 00568ef0 f i LUNAClient.obj
 0002:00030f00       ??C?$CComPtrBase@UIOleInPlaceObjectWindowless@@@ATL@@QBEPAV?$_NoAddRefReleaseOnCComPtr@UIOleInPlaceObjectWindowless@@@1@XZ 00568f00 f i LUNAClient.obj
 0002:00030f10       ??0?$CComPtr@UIDocHostUIHandlerDispatch@@@ATL@@QAE@XZ 00568f10 f i LUNAClient.obj
 0002:00030f20       ??4?$CComPtr@UIDocHostUIHandlerDispatch@@@ATL@@QAEPAUIDocHostUIHandlerDispatch@@PAU2@@Z 00568f20 f i LUNAClient.obj
 0002:00030f40       ??B?$CComPtrBase@UIDocHostUIHandlerDispatch@@@ATL@@QBEPAUIDocHostUIHandlerDispatch@@XZ 00568f40 f i LUNAClient.obj
 0002:00030f50       ??C?$CComPtrBase@UIDocHostUIHandlerDispatch@@@ATL@@QBEPAV?$_NoAddRefReleaseOnCComPtr@UIDocHostUIHandlerDispatch@@@1@XZ 00568f50 f i LUNAClient.obj
 0002:00030f60       ??0?$CComPtr@UIFontDisp@@@ATL@@QAE@XZ 00568f60 f i LUNAClient.obj
 0002:00030f70       ??4?$CComPtr@UIFontDisp@@@ATL@@QAEPAUIFontDisp@@PAU2@@Z 00568f70 f i LUNAClient.obj
 0002:00030f90       ??I?$CComPtrBase@UIFontDisp@@@ATL@@QAEPAPAUIFontDisp@@XZ 00568f90 f i LUNAClient.obj
 0002:00030fa0       ??8?$CComPtrBase@UIFontDisp@@@ATL@@QBE_NPAUIFontDisp@@@Z 00568fa0 f i LUNAClient.obj
 0002:00030fc0       ?CopyTo@?$CComPtrBase@UIFontDisp@@@ATL@@QAEJPAPAUIFontDisp@@@Z 00568fc0 f i LUNAClient.obj
 0002:00030ff0       ??0?$CComPtr@UIServiceProvider@@@ATL@@QAE@XZ 00568ff0 f i LUNAClient.obj
 0002:00031000       ??B?$CComPtrBase@UIServiceProvider@@@ATL@@QBEPAUIServiceProvider@@XZ 00569000 f i LUNAClient.obj
 0002:00031010       ??I?$CComPtrBase@UIServiceProvider@@@ATL@@QAEPAPAUIServiceProvider@@XZ 00569010 f i LUNAClient.obj
 0002:00031020       ??C?$CComPtrBase@UIServiceProvider@@@ATL@@QBEPAV?$_NoAddRefReleaseOnCComPtr@UIServiceProvider@@@1@XZ 00569020 f i LUNAClient.obj
 0002:00031030       ?Release@?$CComPtrBase@UIServiceProvider@@@ATL@@QAEXXZ 00569030 f i LUNAClient.obj
 0002:00031050       ??0?$CComQIPtr@UIOleInPlaceActiveObject@@$1?_GUID_00000117_0000_0000_c000_000000000046@@3U__s_GUID@@B@ATL@@QAE@PAUIUnknown@@@Z 00569050 f i LUNAClient.obj
 0002:00031080       ??0?$CComPtr@UIOleInPlaceActiveObject@@@ATL@@QAE@XZ 00569080 f i LUNAClient.obj
 0002:00031090       ??0?$CComPtr@UIOleClientSite@@@ATL@@QAE@XZ 00569090 f i LUNAClient.obj
 0002:000310a0       ??1?$CComPtrBase@UIOleClientSite@@@ATL@@QAE@XZ 005690a0 f i LUNAClient.obj
 0002:000310b0       ??B?$CComPtrBase@UIOleClientSite@@@ATL@@QBEPAUIOleClientSite@@XZ 005690b0 f i LUNAClient.obj
 0002:000310c0       ??I?$CComPtrBase@UIOleClientSite@@@ATL@@QAEPAPAUIOleClientSite@@XZ 005690c0 f i LUNAClient.obj
 0002:000310d0       ??0?$CComPtr@UIPersistStreamInit@@@ATL@@QAE@XZ 005690d0 f i LUNAClient.obj
 0002:000310e0       ??1?$CComPtrBase@UIPersistStreamInit@@@ATL@@QAE@XZ 005690e0 f i LUNAClient.obj
 0002:000310f0       ??B?$CComPtrBase@UIPersistStreamInit@@@ATL@@QBEPAUIPersistStreamInit@@XZ 005690f0 f i LUNAClient.obj
 0002:00031100       ??I?$CComPtrBase@UIPersistStreamInit@@@ATL@@QAEPAPAUIPersistStreamInit@@XZ 00569100 f i LUNAClient.obj
 0002:00031110       ??C?$CComPtrBase@UIPersistStreamInit@@@ATL@@QBEPAV?$_NoAddRefReleaseOnCComPtr@UIPersistStreamInit@@@1@XZ 00569110 f i LUNAClient.obj
 0002:00031120       ??0?$CComPtr@UIWebBrowser2@@@ATL@@QAE@XZ 00569120 f i LUNAClient.obj
 0002:00031130       ??1?$CComPtrBase@UIWebBrowser2@@@ATL@@QAE@XZ 00569130 f i LUNAClient.obj
 0002:00031140       ??B?$CComPtrBase@UIWebBrowser2@@@ATL@@QBEPAUIWebBrowser2@@XZ 00569140 f i LUNAClient.obj
 0002:00031150       ??I?$CComPtrBase@UIWebBrowser2@@@ATL@@QAEPAPAUIWebBrowser2@@XZ 00569150 f i LUNAClient.obj
 0002:00031160       ??C?$CComPtrBase@UIWebBrowser2@@@ATL@@QBEPAV?$_NoAddRefReleaseOnCComPtr@UIWebBrowser2@@@1@XZ 00569160 f i LUNAClient.obj
 0002:00031170       ??0?$CComQIPtr@UIOleControl@@$1?_GUID_b196b288_bab4_101a_b69c_00aa00341d07@@3U__s_GUID@@B@ATL@@QAE@PAUIUnknown@@@Z 00569170 f i LUNAClient.obj
 0002:000311a0       ??1?$CComPtrBase@UIOleControl@@@ATL@@QAE@XZ 005691a0 f i LUNAClient.obj
 0002:000311b0       ??B?$CComPtrBase@UIOleControl@@@ATL@@QBEPAUIOleControl@@XZ 005691b0 f i LUNAClient.obj
 0002:000311c0       ??C?$CComPtrBase@UIOleControl@@@ATL@@QBEPAV?$_NoAddRefReleaseOnCComPtr@UIOleControl@@@1@XZ 005691c0 f i LUNAClient.obj
 0002:000311d0       ??0?$CComObject@V?$CComEnum@UIEnumUnknown@@$1?_GUID_00000100_0000_0000_c000_000000000046@@3U__s_GUID@@BPAUIUnknown@@V?$_CopyInterface@UIUnknown@@@ATL@@VCComMultiThreadModel@6@@ATL@@@ATL@@QAE@PAX@Z 005691d0 f i LUNAClient.obj
 0002:00031200       ?AddRef@?$CComObject@V?$CComEnum@UIEnumUnknown@@$1?_GUID_00000100_0000_0000_c000_000000000046@@3U__s_GUID@@BPAUIUnknown@@V?$_CopyInterface@UIUnknown@@@ATL@@VCComMultiThreadModel@6@@ATL@@@ATL@@UAGKXZ 00569200 f i LUNAClient.obj
 0002:00031220       ?Release@?$CComObject@V?$CComEnum@UIEnumUnknown@@$1?_GUID_00000100_0000_0000_c000_000000000046@@3U__s_GUID@@BPAUIUnknown@@V?$_CopyInterface@UIUnknown@@@ATL@@VCComMultiThreadModel@6@@ATL@@@ATL@@UAGKXZ 00569220 f i LUNAClient.obj
 0002:00031260       ?QueryInterface@?$CComObject@V?$CComEnum@UIEnumUnknown@@$1?_GUID_00000100_0000_0000_c000_000000000046@@3U__s_GUID@@BPAUIUnknown@@V?$_CopyInterface@UIUnknown@@@ATL@@VCComMultiThreadModel@6@@ATL@@@ATL@@UAGJABU_GUID@@PAPAX@Z 00569260 f i LUNAClient.obj
 0002:00031280       ?Reset@?$CComEnumImpl@UIEnumUnknown@@$1?_GUID_00000100_0000_0000_c000_000000000046@@3U__s_GUID@@BPAUIUnknown@@V?$_CopyInterface@UIUnknown@@@ATL@@@ATL@@UAGJXZ 00569280 f i LUNAClient.obj
 0002:000312a0       ??0?$CComQIPtr@UIOleClientSite@@$1?_GUID_00000118_0000_0000_c000_000000000046@@3U__s_GUID@@B@ATL@@QAE@PAUIUnknown@@@Z 005692a0 f i LUNAClient.obj
 0002:000312d0       ??0?$CComQIPtr@UIPersistStreamInit@@$1?_GUID_7fd52380_4e07_101b_ae2d_08002b2ec713@@3U__s_GUID@@B@ATL@@QAE@PAUIUnknown@@@Z 005692d0 f i LUNAClient.obj
 0002:00031300       ??0?$CComQIPtr@UIPersistStream@@$1?_GUID_00000109_0000_0000_c000_000000000046@@3U__s_GUID@@B@ATL@@QAE@PAUIUnknown@@@Z 00569300 f i LUNAClient.obj
 0002:00031330       ??0?$CComPtr@UIPersistStream@@@ATL@@QAE@XZ 00569330 f i LUNAClient.obj
 0002:00031340       ??0?$CComQIPtr@UIAdviseSink@@$1?_GUID_0000010f_0000_0000_c000_000000000046@@3U__s_GUID@@B@ATL@@QAE@PAUIUnknown@@@Z 00569340 f i LUNAClient.obj
 0002:00031370       ??1?$CComPtrBase@UIAdviseSink@@@ATL@@QAE@XZ 00569370 f i LUNAClient.obj
 0002:00031380       ??B?$CComPtrBase@UIAdviseSink@@@ATL@@QBEPAUIAdviseSink@@XZ 00569380 f i LUNAClient.obj
 0002:00031390       ??_G?$CComObject@V?$CComEnum@UIEnumUnknown@@$1?_GUID_00000100_0000_0000_c000_000000000046@@3U__s_GUID@@BPAUIUnknown@@V?$_CopyInterface@UIUnknown@@@ATL@@VCComMultiThreadModel@6@@ATL@@@ATL@@UAEPAXI@Z 00569390 f i LUNAClient.obj
 0002:00031390       ??_E?$CComObject@V?$CComEnum@UIEnumUnknown@@$1?_GUID_00000100_0000_0000_c000_000000000046@@3U__s_GUID@@BPAUIUnknown@@V?$_CopyInterface@UIUnknown@@@ATL@@VCComMultiThreadModel@6@@ATL@@@ATL@@UAEPAXI@Z 00569390 f i LUNAClient.obj
 0002:000313c0       ??1?$CComObject@V?$CComEnum@UIEnumUnknown@@$1?_GUID_00000100_0000_0000_c000_000000000046@@3U__s_GUID@@BPAUIUnknown@@V?$_CopyInterface@UIUnknown@@@ATL@@VCComMultiThreadModel@6@@ATL@@@ATL@@UAE@XZ 005693c0 f i LUNAClient.obj
 0002:000313f0       ??0?$CComEnum@UIEnumUnknown@@$1?_GUID_00000100_0000_0000_c000_000000000046@@3U__s_GUID@@BPAUIUnknown@@V?$_CopyInterface@UIUnknown@@@ATL@@VCComMultiThreadModel@6@@ATL@@QAE@XZ 005693f0 f i LUNAClient.obj
 0002:00031450       ??0?$CComObjectRootEx@VCComMultiThreadModel@ATL@@@ATL@@QAE@XZ 00569450 f i LUNAClient.obj
 0002:00031470       ??0CComAutoCriticalSection@ATL@@QAE@XZ 00569470 f i LUNAClient.obj
 0002:000314a0       ??0CComCriticalSection@ATL@@QAE@XZ 005694a0 f i LUNAClient.obj
 0002:000314c0       ?Init@CComCriticalSection@ATL@@QAEJXZ 005694c0 f i LUNAClient.obj
 0002:00031560       ??1?$CComEnum@UIEnumUnknown@@$1?_GUID_00000100_0000_0000_c000_000000000046@@3U__s_GUID@@BPAUIUnknown@@V?$_CopyInterface@UIUnknown@@@ATL@@VCComMultiThreadModel@6@@ATL@@UAE@XZ 00569560 f i LUNAClient.obj
 0002:00031590       ??1?$CComObjectRootEx@VCComMultiThreadModel@ATL@@@ATL@@QAE@XZ 00569590 f i LUNAClient.obj
 0002:000315a0       ??1CComAutoCriticalSection@ATL@@QAE@XZ 005695a0 f i LUNAClient.obj
 0002:000315b0       ??0?$CComPtrBase@UIUnknown@@@ATL@@IAE@PAUIUnknown@@@Z 005695b0 f i LUNAClient.obj
 0002:000315d0       ??0?$CComPtrBase@UIPersistStream@@@ATL@@IAE@XZ 005695d0 f i LUNAClient.obj
 0002:000315e0       ??0?$CComPtrBase@UITypeInfo@@@ATL@@IAE@XZ 005695e0 f i LUNAClient.obj
 0002:000315f0       ??0?$CComPtrBase@UITypeInfo@@@ATL@@IAE@PAUITypeInfo@@@Z 005695f0 f i LUNAClient.obj
 0002:00031610       ?InternalAddRef@?$CComObjectRootEx@VCComMultiThreadModel@ATL@@@ATL@@QAEKXZ 00569610 f i LUNAClient.obj
 0002:00031620       ?Increment@CComMultiThreadModel@ATL@@SGKPAJ@Z 00569620 f i LUNAClient.obj
 0002:00031630       ?InternalRelease@?$CComObjectRootEx@VCComMultiThreadModel@ATL@@@ATL@@QAEKXZ 00569630 f i LUNAClient.obj
 0002:00031640       ?Decrement@CComMultiThreadModel@ATL@@SGKPAJ@Z 00569640 f i LUNAClient.obj
 0002:00031650       ??0?$CComPtrBase@UITypeInfo2@@@ATL@@IAE@XZ 00569650 f i LUNAClient.obj
 0002:00031660       ??0?$CWindowImplRoot@VCWindow@ATL@@@ATL@@QAE@XZ 00569660 f i LUNAClient.obj
 0002:000316a0       ??0?$CComPtrBase@UIClassFactory2@@@ATL@@IAE@XZ 005696a0 f i LUNAClient.obj
 0002:000316b0       ??0?$CComPtrBase@UIOleInPlaceActiveObject@@@ATL@@IAE@XZ 005696b0 f i LUNAClient.obj
 0002:000316c0       ??0?$CComPtrBase@UIOleObject@@@ATL@@IAE@XZ 005696c0 f i LUNAClient.obj
 0002:000316d0       ??0?$CComPtrBase@UIOleInPlaceFrame@@@ATL@@IAE@XZ 005696d0 f i LUNAClient.obj
 0002:000316e0       ??0?$CComPtrBase@UIOleInPlaceUIWindow@@@ATL@@IAE@XZ 005696e0 f i LUNAClient.obj
 0002:000316f0       ??0?$CComPtrBase@UIViewObjectEx@@@ATL@@IAE@XZ 005696f0 f i LUNAClient.obj
 0002:00031700       ??0?$CComPtrBase@UIOleInPlaceObjectWindowless@@@ATL@@IAE@XZ 00569700 f i LUNAClient.obj
 0002:00031710       ??0?$CComPtrBase@UIDocHostUIHandlerDispatch@@@ATL@@IAE@XZ 00569710 f i LUNAClient.obj
 0002:00031720       ??0?$CComPtrBase@UIFontDisp@@@ATL@@IAE@XZ 00569720 f i LUNAClient.obj
 0002:00031730       ??0?$CComPtrBase@UIServiceProvider@@@ATL@@IAE@XZ 00569730 f i LUNAClient.obj
 0002:00031740       ??0?$CComPtrBase@UIOleClientSite@@@ATL@@IAE@XZ 00569740 f i LUNAClient.obj
 0002:00031750       ??0?$CComPtrBase@UIPersistStreamInit@@@ATL@@IAE@XZ 00569750 f i LUNAClient.obj
 0002:00031760       ??0?$CComPtrBase@UIWebBrowser2@@@ATL@@IAE@XZ 00569760 f i LUNAClient.obj
 0002:00031770       ??0?$CComPtr@UIOleControl@@@ATL@@QAE@XZ 00569770 f i LUNAClient.obj
 0002:00031780       ?_InternalQueryInterface@?$CComEnum@UIEnumUnknown@@$1?_GUID_00000100_0000_0000_c000_000000000046@@3U__s_GUID@@BPAUIUnknown@@V?$_CopyInterface@UIUnknown@@@ATL@@VCComMultiThreadModel@6@@ATL@@QAEJABU_GUID@@PAPAX@Z 00569780 f i LUNAClient.obj
 0002:000317b0       ??0?$CComEnumImpl@UIEnumUnknown@@$1?_GUID_00000100_0000_0000_c000_000000000046@@3U__s_GUID@@BPAUIUnknown@@V?$_CopyInterface@UIUnknown@@@ATL@@@ATL@@QAE@XZ 005697b0 f i LUNAClient.obj
 0002:000317e0       ??0?$CComPtr@UIAdviseSink@@@ATL@@QAE@XZ 005697e0 f i LUNAClient.obj
 0002:000317f0       ?GetData@CAtlSafeAllocBufferNode@?$CAtlSafeAllocBufferManager@VCCRTAllocator@ATL@@@_ATL_SAFE_ALLOCA_IMPL@ATL@@QAEPAXXZ 005697f0 f i LUNAClient.obj
 0002:00031800       ?AddRef@?$CComContainedObject@VCAxHostWindow@ATL@@@ATL@@UAGKXZ 00569800 f i LUNAClient.obj
 0002:00031820       ?OuterAddRef@CComObjectRootBase@ATL@@QAEKXZ 00569820 f i LUNAClient.obj
 0002:00031830       ?Release@?$CComContainedObject@VCAxHostWindow@ATL@@@ATL@@UAGKXZ 00569830 f i LUNAClient.obj
 0002:00031850       ?OuterRelease@CComObjectRootBase@ATL@@QAEKXZ 00569850 f i LUNAClient.obj
 0002:00031860       ?QueryInterface@?$CComContainedObject@VCAxHostWindow@ATL@@@ATL@@UAGJABU_GUID@@PAPAX@Z 00569860 f i LUNAClient.obj
 0002:00031880       ?OuterQueryInterface@CComObjectRootBase@ATL@@QAEJABU_GUID@@PAPAX@Z 00569880 f i LUNAClient.obj
 0002:000318a0       ?GetControllingUnknown@?$CComContainedObject@VCAxHostWindow@ATL@@@ATL@@UAEPAUIUnknown@@XZ 005698a0 f i LUNAClient.obj
 0002:000318b0       ??0CMessageMap@ATL@@QAE@XZ 005698b0 f i LUNAClient.obj
 0002:000318c0       ??0CWndProcThunk@ATL@@QAE@XZ 005698c0 f i LUNAClient.obj
 0002:000318e0       ??0CDynamicStdCallThunk@ATL@@QAE@XZ 005698e0 f i LUNAClient.obj
 0002:000318f0       ??0IEnumUnknown@@QAE@XZ    005698f0 f i LUNAClient.obj
 0002:00031900       ??0?$CComPtrBase@UIOleControl@@@ATL@@IAE@XZ 00569900 f i LUNAClient.obj
 0002:00031910       ?_GetEntries@?$CComEnum@UIEnumUnknown@@$1?_GUID_00000100_0000_0000_c000_000000000046@@3U__s_GUID@@BPAUIUnknown@@V?$_CopyInterface@UIUnknown@@@ATL@@VCComMultiThreadModel@6@@ATL@@SGPBU_ATL_INTMAP_ENTRY@2@XZ 00569910 f i LUNAClient.obj
 0002:00031920       ??0?$CComPtrBase@UIAdviseSink@@@ATL@@IAE@XZ 00569920 f i LUNAClient.obj
 0002:00031930       ??_E?$CComContainedObject@VCAxHostWindow@ATL@@@ATL@@UAEPAXI@Z 00569930 f i LUNAClient.obj
 0002:00031930       ??_G?$CComContainedObject@VCAxHostWindow@ATL@@@ATL@@UAEPAXI@Z 00569930 f i LUNAClient.obj
 0002:00031960       ??0?$CComCritSecLock@VCComCriticalSection@ATL@@@ATL@@QAE@AAVCComCriticalSection@1@_N@Z 00569960 f i LUNAClient.obj
 0002:000319a0       ??1?$CComCritSecLock@VCComCriticalSection@ATL@@@ATL@@QAE@XZ 005699a0 f i LUNAClient.obj
 0002:000319b0       ?Lock@?$CComCritSecLock@VCComCriticalSection@ATL@@@ATL@@QAEJXZ 005699b0 f i LUNAClient.obj
 0002:000319d0       ?Lock@CComCriticalSection@ATL@@QAEJXZ 005699d0 f i LUNAClient.obj
 0002:000319e0       ??$QueryInterface@UITypeInfo2@@@IUnknown@@QAGJPAPAUITypeInfo2@@@Z 005699e0 f i LUNAClient.obj
 0002:00031a00       ??$?4UITypeInfo2@@@?$CComPtr@UITypeInfo@@@ATL@@QAEPAUITypeInfo@@ABV?$CComPtr@UITypeInfo2@@@1@@Z 00569a00 f i LUNAClient.obj
 0002:00031a30       ?AtlComQIPtrAssign@ATL@@YGPAUIUnknown@@PAPAU2@PAU2@ABU_GUID@@@Z 00569a30 f i LUNAClient.obj
 0002:00031a80       ?WindowProc@?$CWindowImplBaseT@VCWindow@ATL@@V?$CWinTraits@$0FGAAAAAA@$0A@@2@@ATL@@SGJPAUHWND__@@IIJ@Z 00569a80 f i LUNAClient.obj
 0002:00031bc0       ??0_ATL_MSG@ATL@@QAE@PAUHWND__@@IIJH@Z 00569bc0 f i LUNAClient.obj
 0002:00031c10       ?SubclassWindow@?$CWindowImplBaseT@VCWindow@ATL@@V?$CWinTraits@$0FGAAAAAA@$0A@@2@@ATL@@QAEHPAUHWND__@@@Z 00569c10 f i LUNAClient.obj
 0002:00031c70       ?Init@CWndProcThunk@ATL@@QAEXP6GJPAUHWND__@@IIJ@ZPAX@Z 00569c70 f i LUNAClient.obj
 0002:00031c80       ?Init@CDynamicStdCallThunk@ATL@@QAEXKPAX@Z 00569c80 f i LUNAClient.obj
 0002:00031cc0       ?Init@_stdcallthunk@ATL@@QAEXKPAX@Z 00569cc0 f i LUNAClient.obj
 0002:00031d00       ?GetWNDPROC@CWndProcThunk@ATL@@QAEP6GJPAUHWND__@@IIJ@ZXZ 00569d00 f i LUNAClient.obj
 0002:00031d10       ?GetCodeAddress@CDynamicStdCallThunk@ATL@@QAEPAXXZ 00569d10 f i LUNAClient.obj
 0002:00031d20       ?GetCodeAddress@_stdcallthunk@ATL@@QAEPAXXZ 00569d20 f i LUNAClient.obj
 0002:00031d30       ?UnsubclassWindow@?$CWindowImplBaseT@VCWindow@ATL@@V?$CWinTraits@$0FGAAAAAA@$0A@@2@@ATL@@QAEPAUHWND__@@H@Z 00569d30 f i LUNAClient.obj
 0002:00031db0       ?CreateInstance@?$CComObject@VCAxFrameWindow@ATL@@@ATL@@SGJPAPAV12@@Z 00569db0 f i LUNAClient.obj
 0002:00031eb0       ?CreateInstance@?$CComObject@VCAxUIWindow@ATL@@@ATL@@SGJPAPAV12@@Z 00569eb0 f i LUNAClient.obj
 0002:00031fb0       ??$QueryInterface@UIDispatch@@@?$CComPtrBase@UIOleObject@@@ATL@@QBEJPAPAUIDispatch@@@Z 00569fb0 f i LUNAClient.obj
 0002:00031fd0       ??1?$CComEnumImpl@UIEnumUnknown@@$1?_GUID_00000100_0000_0000_c000_000000000046@@3U__s_GUID@@BPAUIUnknown@@V?$_CopyInterface@UIUnknown@@@ATL@@@ATL@@UAE@XZ 00569fd0 f i LUNAClient.obj
 0002:00032060       ?Next@?$CComEnumImpl@UIEnumUnknown@@$1?_GUID_00000100_0000_0000_c000_000000000046@@3U__s_GUID@@BPAUIUnknown@@V?$_CopyInterface@UIUnknown@@@ATL@@@ATL@@UAGJKPAPAUIUnknown@@PAK@Z 0056a060 f i LUNAClient.obj
 0002:000321a0       ?Skip@?$CComEnumImpl@UIEnumUnknown@@$1?_GUID_00000100_0000_0000_c000_000000000046@@3U__s_GUID@@BPAUIUnknown@@V?$_CopyInterface@UIUnknown@@@ATL@@@ATL@@UAGJK@Z 0056a1a0 f i LUNAClient.obj
 0002:000321f0       ?Clone@?$CComEnumImpl@UIEnumUnknown@@$1?_GUID_00000100_0000_0000_c000_000000000046@@3U__s_GUID@@BPAUIUnknown@@V?$_CopyInterface@UIUnknown@@@ATL@@@ATL@@UAGJPAPAUIEnumUnknown@@@Z 0056a1f0 f i LUNAClient.obj
 0002:00032320       ?Init@?$CComEnumImpl@UIEnumUnknown@@$1?_GUID_00000100_0000_0000_c000_000000000046@@3U__s_GUID@@BPAUIUnknown@@V?$_CopyInterface@UIUnknown@@@ATL@@@ATL@@QAEJPAPAUIUnknown@@0PAU3@W4CComEnumFlags@2@@Z 0056a320 f i LUNAClient.obj
 0002:000324d0       ??B?$CComPtrBase@UITypeInfo2@@@ATL@@QBEPAUITypeInfo2@@XZ 0056a4d0 f i LUNAClient.obj
 0002:000324e0       ??0?$CComObject@VCAxFrameWindow@ATL@@@ATL@@QAE@PAX@Z 0056a4e0 f i LUNAClient.obj
 0002:00032510       ??0CAxFrameWindow@ATL@@QAE@XZ 0056a510 f i LUNAClient.obj
 0002:00032580       ?ProcessWindowMessage@CAxFrameWindow@ATL@@UAEHPAUHWND__@@IIJAAJK@Z 0056a580 f i LUNAClient.obj
 0002:00032590       ?GetWindow@CAxFrameWindow@ATL@@UAGJPAPAUHWND__@@@Z 0056a590 f i LUNAClient.obj
 0002:00032600       ??0_U_RECT@ATL@@QAE@PAUtagRECT@@@Z 0056a600 f i LUNAClient.obj
 0002:00032610       ??0_U_MENUorID@ATL@@QAE@I@Z 0056a610 f i LUNAClient.obj
 0002:00032620       ?ContextSensitiveHelp@CAxFrameWindow@ATL@@UAGJH@Z 0056a620 f i LUNAClient.obj
 0002:00032630       ?GetBorder@CAxFrameWindow@ATL@@UAGJPAUtagRECT@@@Z 0056a630 f i LUNAClient.obj
 0002:00032640       ?RequestBorderSpace@CAxFrameWindow@ATL@@UAGJPBUtagRECT@@@Z 0056a640 f i LUNAClient.obj
 0002:00032650       ?SetBorderSpace@CAxFrameWindow@ATL@@UAGJPBUtagRECT@@@Z 0056a650 f i LUNAClient.obj
 0002:00032660       ?SetActiveObject@CAxFrameWindow@ATL@@UAGJPAUIOleInPlaceActiveObject@@PBG@Z 0056a660 f i LUNAClient.obj
 0002:00032680       ?InsertMenus@CAxFrameWindow@ATL@@UAGJPAUHMENU__@@PAUtagOleMenuGroupWidths@@@Z 0056a680 f i LUNAClient.obj
 0002:00032690       ?SetMenu@CAxFrameWindow@ATL@@UAGJPAUHMENU__@@PAXPAUHWND__@@@Z 0056a690 f i LUNAClient.obj
 0002:000326a0       ?RemoveMenus@CAxFrameWindow@ATL@@UAGJPAUHMENU__@@@Z 0056a6a0 f i LUNAClient.obj
 0002:000326b0       ?SetStatusText@CAxFrameWindow@ATL@@UAGJPBG@Z 0056a6b0 f i LUNAClient.obj
 0002:000326c0       ?EnableModeless@CAxFrameWindow@ATL@@UAGJH@Z 0056a6c0 f i LUNAClient.obj
 0002:000326d0       ?TranslateAcceleratorA@CAxFrameWindow@ATL@@UAGJPAUtagMSG@@G@Z 0056a6d0 f i LUNAClient.obj
 0002:000326e0       ??0?$CWindowImpl@VCAxFrameWindow@ATL@@VCWindow@2@V?$CWinTraits@$0FGAAAAAA@$0A@@2@@ATL@@QAE@XZ 0056a6e0 f i LUNAClient.obj
 0002:000326f0       ??0IOleInPlaceFrame@@QAE@XZ 0056a6f0 f i LUNAClient.obj
 0002:00032700       ??0IOleInPlaceUIWindow@@QAE@XZ 0056a700 f i LUNAClient.obj
 0002:00032710       ?Create@?$CWindowImpl@VCAxFrameWindow@ATL@@VCWindow@2@V?$CWinTraits@$0FGAAAAAA@$0A@@2@@ATL@@QAEPAUHWND__@@PAU3@V_U_RECT@2@PBDKKV_U_MENUorID@2@PAX@Z 0056a710 f i LUNAClient.obj
 0002:000327c0       ?Register@_ATL_WNDCLASSINFOA@ATL@@QAEGPAP6GJPAUHWND__@@IIJ@Z@Z 0056a7c0 f i LUNAClient.obj
 0002:000327e0       ?GetWndClassName@CWindow@ATL@@SAPBDXZ 0056a7e0 f i LUNAClient.obj
 0002:000327f0       ?AtlWinModuleRegisterWndClassInfoA@ATL@@YGGPAU_ATL_WIN_MODULE70@1@PAU_ATL_BASE_MODULE70@1@PAU_ATL_WNDCLASSINFOA@1@PAP6GJPAUHWND__@@IIJ@Z@Z 0056a7f0 f i LUNAClient.obj
 0002:00032820       ?OnFinalMessage@?$CWindowImplBaseT@VCWindow@ATL@@V?$CWinTraits@$0FGAAAAAA@$0A@@2@@ATL@@UAEXPAUHWND__@@@Z 0056a820 f i LUNAClient.obj
 0002:00032830       ??4?$CComPtr@UIOleInPlaceActiveObject@@@ATL@@QAEPAUIOleInPlaceActiveObject@@PAU2@@Z 0056a830 f i LUNAClient.obj
 0002:00032850       ?AddRef@?$CComObject@VCAxFrameWindow@ATL@@@ATL@@UAGKXZ 0056a850 f i LUNAClient.obj
 0002:00032870       ?Release@?$CComObject@VCAxFrameWindow@ATL@@@ATL@@UAGKXZ 0056a870 f i LUNAClient.obj
 0002:000328b0       ?QueryInterface@?$CComObject@VCAxFrameWindow@ATL@@@ATL@@UAGJABU_GUID@@PAPAX@Z 0056a8b0 f i LUNAClient.obj
 0002:000328d0       ?_InternalQueryInterface@CAxFrameWindow@ATL@@QAEJABU_GUID@@PAPAX@Z 0056a8d0 f i LUNAClient.obj
 0002:00032900       ?_GetEntries@CAxFrameWindow@ATL@@SGPBU_ATL_INTMAP_ENTRY@2@XZ 0056a900 f i LUNAClient.obj
 0002:00032910       ??_G?$CComObject@VCAxFrameWindow@ATL@@@ATL@@UAEPAXI@Z 0056a910 f i LUNAClient.obj
 0002:00032910       ??_E?$CComObject@VCAxFrameWindow@ATL@@@ATL@@UAEPAXI@Z 0056a910 f i LUNAClient.obj
 0002:00032940       ??1?$CComObject@VCAxFrameWindow@ATL@@@ATL@@UAE@XZ 0056a940 f i LUNAClient.obj
 0002:00032980       ?FinalRelease@CAxFrameWindow@ATL@@QAEXXZ 0056a980 f i LUNAClient.obj
 0002:000329b0       ??1CAxFrameWindow@ATL@@UAE@XZ 0056a9b0 f i LUNAClient.obj
 0002:00032a40       ??1?$CWindowImpl@VCAxFrameWindow@ATL@@VCWindow@2@V?$CWinTraits@$0FGAAAAAA@$0A@@2@@ATL@@UAE@XZ 0056aa40 f i LUNAClient.obj
 0002:00032a50       ?Release@?$CComPtrBase@UIOleInPlaceActiveObject@@@ATL@@QAEXXZ 0056aa50 f i LUNAClient.obj
 0002:00032a70       ?GetWndClassInfo@?$CWindowImpl@VCAxFrameWindow@ATL@@VCWindow@2@V?$CWinTraits@$0FGAAAAAA@$0A@@2@@ATL@@SAAAU_ATL_WNDCLASSINFOA@2@XZ 0056aa70 f i LUNAClient.obj
 0002:00032a80       ?GetWndCaption@?$CWindowImpl@VCAxFrameWindow@ATL@@VCWindow@2@V?$CWinTraits@$0FGAAAAAA@$0A@@2@@ATL@@SAPBDXZ 0056aa80 f i LUNAClient.obj
 0002:00032a90       ?GetWndStyle@?$CWindowImplBaseT@VCWindow@ATL@@V?$CWinTraits@$0FGAAAAAA@$0A@@2@@ATL@@SAKK@Z 0056aa90 f i LUNAClient.obj
 0002:00032aa0       ?GetWndExStyle@?$CWindowImplBaseT@VCWindow@ATL@@V?$CWinTraits@$0FGAAAAAA@$0A@@2@@ATL@@SAKK@Z 0056aaa0 f i LUNAClient.obj
 0002:00032ab0       ?GetWndStyle@?$CWinTraits@$0FGAAAAAA@$0A@@ATL@@SAKK@Z 0056aab0 f i LUNAClient.obj
 0002:00032ad0       ?GetWndExStyle@?$CWinTraits@$0FGAAAAAA@$0A@@ATL@@SAKK@Z 0056aad0 f i LUNAClient.obj
 0002:00032ae0       ??$AtlModuleRegisterWndClassInfoT@VAtlModuleRegisterWndClassInfoParamA@ATL@@@ATL@@YAGPAU_ATL_BASE_MODULE70@0@PAU_ATL_WIN_MODULE70@0@PAU_ATL_WNDCLASSINFOA@0@PAP6GJPAUHWND__@@IIJ@ZVAtlModuleRegisterWndClassInfoParamA@0@@Z 0056aae0 f i LUNAClient.obj
 0002:00032d50       ?GetClassInfoExA@AtlModuleRegisterWndClassInfoParamA@ATL@@SAHPAUHINSTANCE__@@PBDPAUtagWNDCLASSEXA@@@Z 0056ad50 f i LUNAClient.obj
 0002:00032d70       ?FormatWindowClassName@AtlModuleRegisterWndClassInfoParamA@ATL@@SAXPADPAX@Z 0056ad70 f i LUNAClient.obj
 0002:00032d90       ?LoadCursorA@AtlModuleRegisterWndClassInfoParamA@ATL@@SAPAUHICON__@@PAUHINSTANCE__@@PBD@Z 0056ad90 f i LUNAClient.obj
 0002:00032db0       ?RegisterClassExA@AtlModuleRegisterWndClassInfoParamA@ATL@@SAGPAU_ATL_WIN_MODULE70@2@PBUtagWNDCLASSEXA@@@Z 0056adb0 f i LUNAClient.obj
 0002:00032dd0       ?AtlWinModuleRegisterClassExA@ATL@@YGGPAU_ATL_WIN_MODULE70@1@PBUtagWNDCLASSEXA@@@Z 0056add0 f i LUNAClient.obj
 0002:00032e20       ?Add@?$CSimpleArray@GV?$CSimpleArrayEqualHelper@G@ATL@@@ATL@@QAEHABG@Z 0056ae20 f i LUNAClient.obj
 0002:00032e90       ?InternalSetAtIndex@?$CSimpleArray@GV?$CSimpleArrayEqualHelper@G@ATL@@@ATL@@QAEXHABG@Z 0056ae90 f i LUNAClient.obj
 0002:00032f10       ??0Wrapper@?$CSimpleArray@GV?$CSimpleArrayEqualHelper@G@ATL@@@ATL@@QAE@ABG@Z 0056af10 f i LUNAClient.obj
 0002:00032f30       ?StartWindowProc@?$CWindowImplBaseT@VCWindow@ATL@@V?$CWinTraits@$0FGAAAAAA@$0A@@2@@ATL@@SGJPAUHWND__@@IIJ@Z 0056af30 f i LUNAClient.obj
 0002:00032fa0       ?ExtractCreateWndData@CAtlWinModule@ATL@@QAEPAXXZ 0056afa0 f i LUNAClient.obj
 0002:00032fb0       ?AtlWinModuleExtractCreateWndData@ATL@@YGPAXPAU_ATL_WIN_MODULE70@1@@Z 0056afb0 f i LUNAClient.obj
 0002:00033080       ?Create@?$CWindowImplBaseT@VCWindow@ATL@@V?$CWinTraits@$0FGAAAAAA@$0A@@2@@ATL@@QAEPAUHWND__@@PAU3@V_U_RECT@2@PBDKKV_U_MENUorID@2@GPAX@Z 0056b080 f i LUNAClient.obj
 0002:00033140       ?AddCreateWndData@CAtlWinModule@ATL@@QAEXPAU_AtlCreateWndData@2@PAX@Z 0056b140 f i LUNAClient.obj
 0002:00033160       ?AtlWinModuleAddCreateWndData@ATL@@YGXPAU_ATL_WIN_MODULE70@1@PAU_AtlCreateWndData@1@PAX@Z 0056b160 f i LUNAClient.obj
 0002:00033200       ??$?2G@Wrapper@?$CSimpleArray@GV?$CSimpleArrayEqualHelper@G@ATL@@@ATL@@SAPAXIPAG@Z 0056b200 f i LUNAClient.obj
 0002:00033210       ??$?3G@Wrapper@?$CSimpleArray@GV?$CSimpleArrayEqualHelper@G@ATL@@@ATL@@SAXPAXPAG@Z 0056b210 f i LUNAClient.obj
 0002:00033220       ??0?$CComObject@VCAxUIWindow@ATL@@@ATL@@QAE@PAX@Z 0056b220 f i LUNAClient.obj
 0002:00033250       ??0CAxUIWindow@ATL@@QAE@XZ 0056b250 f i LUNAClient.obj
 0002:000332c0       ?ProcessWindowMessage@CAxUIWindow@ATL@@UAEHPAUHWND__@@IIJAAJK@Z 0056b2c0 f i LUNAClient.obj
 0002:000332d0       ?GetWindow@CAxUIWindow@ATL@@UAGJPAPAUHWND__@@@Z 0056b2d0 f i LUNAClient.obj
 0002:00033330       ?ContextSensitiveHelp@CAxUIWindow@ATL@@UAGJH@Z 0056b330 f i LUNAClient.obj
 0002:00033340       ?GetBorder@CAxUIWindow@ATL@@UAGJPAUtagRECT@@@Z 0056b340 f i LUNAClient.obj
 0002:00033350       ?RequestBorderSpace@CAxUIWindow@ATL@@UAGJPBUtagRECT@@@Z 0056b350 f i LUNAClient.obj
 0002:00033360       ?SetBorderSpace@CAxUIWindow@ATL@@UAGJPBUtagRECT@@@Z 0056b360 f i LUNAClient.obj
 0002:00033370       ?SetActiveObject@CAxUIWindow@ATL@@UAGJPAUIOleInPlaceActiveObject@@PBG@Z 0056b370 f i LUNAClient.obj
 0002:00033390       ??0?$CWindowImpl@VCAxUIWindow@ATL@@VCWindow@2@V?$CWinTraits@$0FGAAAAAA@$0A@@2@@ATL@@QAE@XZ 0056b390 f i LUNAClient.obj
 0002:000333a0       ?Create@?$CWindowImpl@VCAxUIWindow@ATL@@VCWindow@2@V?$CWinTraits@$0FGAAAAAA@$0A@@2@@ATL@@QAEPAUHWND__@@PAU3@V_U_RECT@2@PBDKKV_U_MENUorID@2@PAX@Z 0056b3a0 f i LUNAClient.obj
 0002:00033450       ?AddRef@?$CComObject@VCAxUIWindow@ATL@@@ATL@@UAGKXZ 0056b450 f i LUNAClient.obj
 0002:00033470       ?Release@?$CComObject@VCAxUIWindow@ATL@@@ATL@@UAGKXZ 0056b470 f i LUNAClient.obj
 0002:000334b0       ?QueryInterface@?$CComObject@VCAxUIWindow@ATL@@@ATL@@UAGJABU_GUID@@PAPAX@Z 0056b4b0 f i LUNAClient.obj
 0002:000334d0       ?_InternalQueryInterface@CAxUIWindow@ATL@@QAEJABU_GUID@@PAPAX@Z 0056b4d0 f i LUNAClient.obj
 0002:00033500       ?_GetEntries@CAxUIWindow@ATL@@SGPBU_ATL_INTMAP_ENTRY@2@XZ 0056b500 f i LUNAClient.obj
 0002:00033510       ??_G?$CComObject@VCAxUIWindow@ATL@@@ATL@@UAEPAXI@Z 0056b510 f i LUNAClient.obj
 0002:00033510       ??_E?$CComObject@VCAxUIWindow@ATL@@@ATL@@UAEPAXI@Z 0056b510 f i LUNAClient.obj
 0002:00033540       ??1?$CComObject@VCAxUIWindow@ATL@@@ATL@@UAE@XZ 0056b540 f i LUNAClient.obj
 0002:00033580       ?FinalRelease@CAxUIWindow@ATL@@QAEXXZ 0056b580 f i LUNAClient.obj
 0002:000335b0       ??1CAxUIWindow@ATL@@UAE@XZ 0056b5b0 f i LUNAClient.obj
 0002:00033640       ??1?$CWindowImpl@VCAxUIWindow@ATL@@VCWindow@2@V?$CWinTraits@$0FGAAAAAA@$0A@@2@@ATL@@UAE@XZ 0056b640 f i LUNAClient.obj
 0002:00033650       ?GetWndClassInfo@?$CWindowImpl@VCAxUIWindow@ATL@@VCWindow@2@V?$CWinTraits@$0FGAAAAAA@$0A@@2@@ATL@@SAAAU_ATL_WNDCLASSINFOA@2@XZ 0056b650 f i LUNAClient.obj
 0002:00033660       ?GetWndCaption@?$CWindowImpl@VCAxUIWindow@ATL@@VCWindow@2@V?$CWinTraits@$0FGAAAAAA@$0A@@2@@ATL@@SAPBDXZ 0056b660 f i LUNAClient.obj
 0002:00033670       ?copy@?$_CopyInterface@UIUnknown@@@ATL@@SAJPAPAUIUnknown@@0@Z 0056b670 f i LUNAClient.obj
 0002:00033690       ?init@?$_CopyInterface@UIUnknown@@@ATL@@SAXPAPAUIUnknown@@@Z 0056b690 f i LUNAClient.obj
 0002:000336a0       ?destroy@?$_CopyInterface@UIUnknown@@@ATL@@SAXPAPAUIUnknown@@@Z 0056b6a0 f i LUNAClient.obj
 0002:000336c0       ?Unlock@?$CComCritSecLock@VCComCriticalSection@ATL@@@ATL@@QAEXXZ 0056b6c0 f i LUNAClient.obj
 0002:000336e0       ?Unlock@CComCriticalSection@ATL@@QAEJXZ 0056b6e0 f i LUNAClient.obj
 0002:000336f0       ?CreateInstance@?$CComObject@V?$CComEnum@UIEnumUnknown@@$1?_GUID_00000100_0000_0000_c000_000000000046@@3U__s_GUID@@BPAUIUnknown@@V?$_CopyInterface@UIUnknown@@@ATL@@VCComMultiThreadModel@6@@ATL@@@ATL@@SGJPAPAV12@@Z 0056b6f0 f i LUNAClient.obj
 0002:000337f0       ?QueryInterface@?$CComContainedObject@VCAxHostWindow@ATL@@@ATL@@W3AGJABU_GUID@@PAPAX@Z 0056b7f0 f i LUNAClient.obj
 0002:00033800       ?AddRef@?$CComContainedObject@VCAxHostWindow@ATL@@@ATL@@W3AGKXZ 0056b800 f i LUNAClient.obj
 0002:00033810       ?Release@?$CComContainedObject@VCAxHostWindow@ATL@@@ATL@@W3AGKXZ 0056b810 f i LUNAClient.obj
 0002:00033820       ?QueryInterface@?$CComContainedObject@VCAxHostWindow@ATL@@@ATL@@W7AGJABU_GUID@@PAPAX@Z 0056b820 f i LUNAClient.obj
 0002:00033830       ?AddRef@?$CComContainedObject@VCAxHostWindow@ATL@@@ATL@@W7AGKXZ 0056b830 f i LUNAClient.obj
 0002:00033840       ?Release@?$CComContainedObject@VCAxHostWindow@ATL@@@ATL@@W7AGKXZ 0056b840 f i LUNAClient.obj
 0002:00033850       ?QueryInterface@?$CComContainedObject@VCAxHostWindow@ATL@@@ATL@@WM@AGJABU_GUID@@PAPAX@Z 0056b850 f i LUNAClient.obj
 0002:00033860       ?AddRef@?$CComContainedObject@VCAxHostWindow@ATL@@@ATL@@WM@AGKXZ 0056b860 f i LUNAClient.obj
 0002:00033870       ?Release@?$CComContainedObject@VCAxHostWindow@ATL@@@ATL@@WM@AGKXZ 0056b870 f i LUNAClient.obj
 0002:00033880       ?QueryInterface@?$CComContainedObject@VCAxHostWindow@ATL@@@ATL@@WBA@AGJABU_GUID@@PAPAX@Z 0056b880 f i LUNAClient.obj
 0002:00033890       ?AddRef@?$CComContainedObject@VCAxHostWindow@ATL@@@ATL@@WBA@AGKXZ 0056b890 f i LUNAClient.obj
 0002:000338a0       ?Release@?$CComContainedObject@VCAxHostWindow@ATL@@@ATL@@WBA@AGKXZ 0056b8a0 f i LUNAClient.obj
 0002:000338b0       ?QueryInterface@?$CComContainedObject@VCAxHostWindow@ATL@@@ATL@@WBE@AGJABU_GUID@@PAPAX@Z 0056b8b0 f i LUNAClient.obj
 0002:000338c0       ?AddRef@?$CComContainedObject@VCAxHostWindow@ATL@@@ATL@@WBE@AGKXZ 0056b8c0 f i LUNAClient.obj
 0002:000338d0       ?Release@?$CComContainedObject@VCAxHostWindow@ATL@@@ATL@@WBE@AGKXZ 0056b8d0 f i LUNAClient.obj
 0002:000338e0       ??_E?$CComContainedObject@VCAxHostWindow@ATL@@@ATL@@WDI@AEPAXI@Z 0056b8e0 f i LUNAClient.obj
 0002:000338f0       ?QueryInterface@?$CComContainedObject@VCAxHostWindow@ATL@@@ATL@@WBM@AGJABU_GUID@@PAPAX@Z 0056b8f0 f i LUNAClient.obj
 0002:00033900       ?AddRef@?$CComContainedObject@VCAxHostWindow@ATL@@@ATL@@WBM@AGKXZ 0056b900 f i LUNAClient.obj
 0002:00033910       ?Release@?$CComContainedObject@VCAxHostWindow@ATL@@@ATL@@WBM@AGKXZ 0056b910 f i LUNAClient.obj
 0002:00033920       ?QueryInterface@?$CComContainedObject@VCAxHostWindow@ATL@@@ATL@@WCA@AGJABU_GUID@@PAPAX@Z 0056b920 f i LUNAClient.obj
 0002:00033930       ?AddRef@?$CComContainedObject@VCAxHostWindow@ATL@@@ATL@@WCA@AGKXZ 0056b930 f i LUNAClient.obj
 0002:00033940       ?Release@?$CComContainedObject@VCAxHostWindow@ATL@@@ATL@@WCA@AGKXZ 0056b940 f i LUNAClient.obj
 0002:00033950       ?QueryInterface@?$CComContainedObject@VCAxHostWindow@ATL@@@ATL@@WCE@AGJABU_GUID@@PAPAX@Z 0056b950 f i LUNAClient.obj
 0002:00033960       ?AddRef@?$CComContainedObject@VCAxHostWindow@ATL@@@ATL@@WCE@AGKXZ 0056b960 f i LUNAClient.obj
 0002:00033970       ?Release@?$CComContainedObject@VCAxHostWindow@ATL@@@ATL@@WCE@AGKXZ 0056b970 f i LUNAClient.obj
 0002:00033980       ?QueryInterface@?$CComContainedObject@VCAxHostWindow@ATL@@@ATL@@WCI@AGJABU_GUID@@PAPAX@Z 0056b980 f i LUNAClient.obj
 0002:00033990       ?AddRef@?$CComContainedObject@VCAxHostWindow@ATL@@@ATL@@WCI@AGKXZ 0056b990 f i LUNAClient.obj
 0002:000339a0       ?Release@?$CComContainedObject@VCAxHostWindow@ATL@@@ATL@@WCI@AGKXZ 0056b9a0 f i LUNAClient.obj
 0002:000339b0       ??0CAtlWinModule@ATL@@QAE@XZ 0056b9b0 f i LUNAClient.obj
 0002:000339e0       ??0_ATL_WIN_MODULE70@ATL@@QAE@XZ 0056b9e0 f i LUNAClient.obj
 0002:00033a00       ?AtlWinModuleInit@ATL@@YGJPAU_ATL_WIN_MODULE70@1@@Z 0056ba00 f i LUNAClient.obj
 0002:00033a30       ??0?$CSimpleArray@GV?$CSimpleArrayEqualHelper@G@ATL@@@ATL@@QAE@XZ 0056ba30 f i LUNAClient.obj
 0002:00033a40       ??0ScriptCheckValue@@QAE@XZ 0056ba40 f i LUNAClient.obj
 0002:00033a50       ??0CComModule@ATL@@QAE@XZ  0056ba50 f i LUNAClient.obj
 0002:00033a70       ?Lock@CAtlModule@ATL@@UAEJXZ 0056ba70 f i LUNAClient.obj
 0002:00033a80       ?Unlock@CAtlModule@ATL@@UAEJXZ 0056ba80 f i LUNAClient.obj
 0002:00033a90       ?GetLockCount@CAtlModule@ATL@@UAEJXZ 0056ba90 f i LUNAClient.obj
 0002:00033aa0       ?GetGITPtr@CAtlModule@ATL@@UAEJPAPAUIGlobalInterfaceTable@@@Z 0056baa0 f i LUNAClient.obj
 0002:00033b10       ?UpdateRegistryFromResourceD@CComModule@ATL@@UAGJPBDHPAU_ATL_REGMAP_ENTRY@2@@Z 0056bb10 f i LUNAClient.obj
 0002:00033b20       ?UpdateRegistryFromResourceD@CComModule@ATL@@UAGJIHPAU_ATL_REGMAP_ENTRY@2@@Z 0056bb20 f i LUNAClient.obj
 0002:00033b30       ?UpdateRegistryFromResourceS@CComModule@ATL@@UAGJPBDHPAU_ATL_REGMAP_ENTRY@2@@Z 0056bb30 f i LUNAClient.obj
 0002:00033b40       ?UpdateRegistryFromResourceS@CComModule@ATL@@UAGJIHPAU_ATL_REGMAP_ENTRY@2@@Z 0056bb40 f i LUNAClient.obj
 0002:00033b50       ??_GCComModule@ATL@@UAEPAXI@Z 0056bb50 f i LUNAClient.obj
 0002:00033b50       ??_ECComModule@ATL@@UAEPAXI@Z 0056bb50 f i LUNAClient.obj
 0002:00033b80       ??1CComModule@ATL@@UAE@XZ  0056bb80 f i LUNAClient.obj
 0002:00033b90       ??1?$CAtlModuleT@VCComModule@ATL@@@ATL@@UAE@XZ 0056bb90 f i LUNAClient.obj
 0002:00033ba0       ??1CAtlModule@ATL@@UAE@XZ  0056bba0 f i LUNAClient.obj
 0002:00033bb0       ?UpdateRegistryFromResourceS@CAtlModule@ATL@@QAGJPBDHPAU_ATL_REGMAP_ENTRY@2@@Z 0056bbb0 f i LUNAClient.obj
 0002:00033f10       ?EscapeSingleQuote@CAtlModule@ATL@@SAXPAGPBG@Z 0056bf10 f i LUNAClient.obj
 0002:00033f60       ??1CRegObject@ATL@@UAE@XZ  0056bf60 f i LUNAClient.obj
 0002:00033fd0       ??1CExpansionVector@ATL@@QAE@XZ 0056bfd0 f i LUNAClient.obj
 0002:00034030       ?ClearReplacements@CExpansionVector@ATL@@QAEJXZ 0056c030 f i LUNAClient.obj
 0002:000340a0       ?QueryInterface@CRegObject@ATL@@UAGJABU_GUID@@PAPAX@Z 0056c0a0 f i LUNAClient.obj
 0002:000340b0       ?AddRef@CRegObject@ATL@@UAGKXZ 0056c0b0 f i LUNAClient.obj
 0002:000340c0       ?Release@CRegObject@ATL@@UAGKXZ 0056c0c0 f i LUNAClient.obj
 0002:000340d0       ??_GCRegObject@ATL@@UAEPAXI@Z 0056c0d0 f i LUNAClient.obj
 0002:000340d0       ??_ECRegObject@ATL@@UAEPAXI@Z 0056c0d0 f i LUNAClient.obj
 0002:00034100       ?AddReplacement@CRegObject@ATL@@UAGJPBG0@Z 0056c100 f i LUNAClient.obj
 0002:00034240       ?Add@CExpansionVector@ATL@@QAEHPBDPBG@Z 0056c240 f i LUNAClient.obj
 0002:000343d0       ?ResourceRegisterSz@CRegObject@ATL@@QAGJPBG00@Z 0056c3d0 f i LUNAClient.obj
 0002:00034560       ?RegisterFromResource@CRegObject@ATL@@IAEJPBGPBD1H@Z 0056c560 f i LUNAClient.obj
 0002:00034800       ?ResourceUnregisterSz@CRegObject@ATL@@QAGJPBG00@Z 0056c800 f i LUNAClient.obj
 0002:00034990       ?ClearReplacements@CRegObject@ATL@@UAGJXZ 0056c990 f i LUNAClient.obj
 0002:000349d0       ??0CRegParser@ATL@@QAE@PAVCRegObject@1@@Z 0056c9d0 f i LUNAClient.obj
 0002:000349f0       ?RegisterBuffer@CRegParser@ATL@@QAEJPADH@Z 0056c9f0 f i LUNAClient.obj
 0002:00034b80       ?GenerateError@CRegParser@ATL@@IAEJI@Z 0056cb80 f i LUNAClient.obj
 0002:00034b90       ?HKeyFromString@CRegParser@ATL@@KAPAUHKEY__@@PAD@Z 0056cb90 f i LUNAClient.obj
 0002:00034be0       ?SkipWhiteSpace@CRegParser@ATL@@IAEXXZ 0056cbe0 f i LUNAClient.obj
 0002:00034c30       ?IsSpace@CRegParser@ATL@@IAEHD@Z 0056cc30 f i LUNAClient.obj
 0002:00034c90       ?NextToken@CRegParser@ATL@@IAEJPAD@Z 0056cc90 f i LUNAClient.obj
 0002:00034e00       ?EndOfVar@CRegParser@ATL@@IAEHXZ 0056ce00 f i LUNAClient.obj
 0002:00034e30       ?PreProcessBuffer@CRegParser@ATL@@QAEJPADPAPAD@Z 0056ce30 f i LUNAClient.obj
 0002:00035030       ??0CParseBuffer@CRegParser@ATL@@QAE@H@Z 0056d030 f i LUNAClient.obj
 0002:00035070       ??1CParseBuffer@CRegParser@ATL@@QAE@XZ 0056d070 f i LUNAClient.obj
 0002:00035080       ?AddChar@CParseBuffer@CRegParser@ATL@@QAEHPBD@Z 0056d080 f i LUNAClient.obj
 0002:000350b0       ?Append@CParseBuffer@CRegParser@ATL@@QAEHPBDH@Z 0056d0b0 f i LUNAClient.obj
 0002:00035150       ?AddString@CParseBuffer@CRegParser@ATL@@QAEHPBG@Z 0056d150 f i LUNAClient.obj
 0002:00035240       ?Detach@CParseBuffer@CRegParser@ATL@@QAEPADXZ 0056d240 f i LUNAClient.obj
 0002:00035260       ?StrFromMap@CRegObject@ATL@@QAEPBGPAD@Z 0056d260 f i LUNAClient.obj
 0002:000352a0       ?StrChrA@CRegParser@ATL@@KAPADPADD@Z 0056d2a0 f i LUNAClient.obj
 0002:000352f0       ?RegisterSubkeys@CRegParser@ATL@@IAEJPADPAUHKEY__@@HH@Z 0056d2f0 f i LUNAClient.obj
 0002:00035a40       ?AtlHresultFromWin32@ATL@@YAJK@Z 0056da40 f i LUNAClient.obj
 0002:00035a60       ??0CRegKey@ATL@@QAE@XZ     0056da60 f i LUNAClient.obj
 0002:00035a70       ??1CRegKey@ATL@@QAE@XZ     0056da70 f i LUNAClient.obj
 0002:00035a80       ??BCRegKey@ATL@@QBEPAUHKEY__@@XZ 0056da80 f i LUNAClient.obj
 0002:00035a90       ?Detach@CRegKey@ATL@@QAEPAUHKEY__@@XZ 0056da90 f i LUNAClient.obj
 0002:00035aa0       ?Attach@CRegKey@ATL@@QAEXPAUHKEY__@@@Z 0056daa0 f i LUNAClient.obj
 0002:00035ab0       ?DeleteSubKey@CRegKey@ATL@@QAEJPBD@Z 0056dab0 f i LUNAClient.obj
 0002:00035ad0       ?DeleteValue@CRegKey@ATL@@QAEJPBD@Z 0056dad0 f i LUNAClient.obj
 0002:00035af0       ?Close@CRegKey@ATL@@QAEJXZ 0056daf0 f i LUNAClient.obj
 0002:00035b10       ?Create@CRegKey@ATL@@QAEJPAUHKEY__@@PBDPADKKPAU_SECURITY_ATTRIBUTES@@PAK@Z 0056db10 f i LUNAClient.obj
 0002:00035b90       ?Open@CRegKey@ATL@@QAEJPAUHKEY__@@PBDK@Z 0056db90 f i LUNAClient.obj
 0002:00035be0       ?RecurseDeleteKey@CRegKey@ATL@@QAEJPBD@Z 0056dbe0 f i LUNAClient.obj
 0002:00035d20       ?AddValue@CRegParser@ATL@@IAEJAAVCRegKey@2@PBDPAD@Z 0056dd20 f i LUNAClient.obj
 0002:00036250       ?SetDWORDValue@CRegKey@ATL@@QAEJPBDK@Z 0056e250 f i LUNAClient.obj
 0002:00036280       ?SetStringValue@CRegKey@ATL@@QAEJPBD0K@Z 0056e280 f i LUNAClient.obj
 0002:000362c0       ?SetMultiStringValue@CRegKey@ATL@@QAEJPBD0@Z 0056e2c0 f i LUNAClient.obj
 0002:00036310       ?VTFromRegType@CRegParser@ATL@@KAHPBDAAG@Z 0056e310 f i LUNAClient.obj
 0002:000363e0       ?ChToByte@CRegParser@ATL@@KAED@Z 0056e3e0 f i LUNAClient.obj
 0002:00036470       ?CanForceRemoveKey@CRegParser@ATL@@IAEHPBD@Z 0056e470 f i LUNAClient.obj
 0002:000364c0       ?HasSubKeys@CRegParser@ATL@@IAEHPAUHKEY__@@@Z 0056e4c0 f i LUNAClient.obj
 0002:00036520       ?SkipAssignment@CRegParser@ATL@@IAEJPAD@Z 0056e520 f i LUNAClient.obj
 0002:000365b0       ??0CRegObject@ATL@@QAE@XZ  0056e5b0 f i LUNAClient.obj
 0002:00036620       ??0IRegistrarBase@@QAE@XZ  0056e620 f i LUNAClient.obj
 0002:00036630       ??0CExpansionVector@ATL@@QAE@XZ 0056e630 f i LUNAClient.obj
 0002:00036640       ?UpdateRegistryFromResourceS@CAtlModule@ATL@@QAGJIHPAU_ATL_REGMAP_ENTRY@2@@Z 0056e640 f i LUNAClient.obj
 0002:00036940       ?ResourceRegister@CRegObject@ATL@@QAGJPBGI0@Z 0056e940 f i LUNAClient.obj
 0002:00036a40       ?ResourceUnregister@CRegObject@ATL@@QAGJPBGI0@Z 0056ea40 f i LUNAClient.obj
 0002:00036b40       ??0?$CAtlModuleT@VCComModule@ATL@@@ATL@@QAE@XZ 0056eb40 f i LUNAClient.obj
 0002:00036b60       ??0CAtlModule@ATL@@QAE@XZ  0056eb60 f i LUNAClient.obj
 0002:00036bb0       ??0_ATL_MODULE70@ATL@@QAE@XZ 0056ebb0 f i LUNAClient.obj
 0002:00036bd0       ?AddCommonRGSReplacements@?$CAtlModuleT@VCComModule@ATL@@@ATL@@UAEJPAUIRegistrarBase@@@Z 0056ebd0 f i LUNAClient.obj
 0002:00036c00       ??0?$CSimpleMap@PADPAGVCExpansionVectorEqualHelper@ATL@@@ATL@@QAE@XZ 0056ec00 f i LUNAClient.obj
 0002:00036c10       ??1?$CSimpleMap@PADPAGVCExpansionVectorEqualHelper@ATL@@@ATL@@QAE@XZ 0056ec10 f i LUNAClient.obj
 0002:00036c20       ?GetSize@?$CSimpleMap@PADPAGVCExpansionVectorEqualHelper@ATL@@@ATL@@QBEHXZ 0056ec20 f i LUNAClient.obj
 0002:00036c30       ?Add@?$CSimpleMap@PADPAGVCExpansionVectorEqualHelper@ATL@@@ATL@@QAEHABQADABQAG@Z 0056ec30 f i LUNAClient.obj
 0002:00036cb0       ?RemoveAll@?$CSimpleMap@PADPAGVCExpansionVectorEqualHelper@ATL@@@ATL@@QAEXXZ 0056ecb0 f i LUNAClient.obj
 0002:00036d00       ?Lookup@?$CSimpleMap@PADPAGVCExpansionVectorEqualHelper@ATL@@@ATL@@QBEPAGABQAD@Z 0056ed00 f i LUNAClient.obj
 0002:00036d30       ?GetKeyAt@?$CSimpleMap@PADPAGVCExpansionVectorEqualHelper@ATL@@@ATL@@QBEAAPADH@Z 0056ed30 f i LUNAClient.obj
 0002:00036d60       ?GetValueAt@?$CSimpleMap@PADPAGVCExpansionVectorEqualHelper@ATL@@@ATL@@QBEAAPAGH@Z 0056ed60 f i LUNAClient.obj
 0002:00036d90       ??0?$CTempBuffer@D$0EAA@VCCRTAllocator@ATL@@@ATL@@QAE@XZ 0056ed90 f i LUNAClient.obj
 0002:00036da0       ??1?$CTempBuffer@D$0EAA@VCCRTAllocator@ATL@@@ATL@@QAE@XZ 0056eda0 f i LUNAClient.obj
 0002:00036dc0       ??B?$CTempBuffer@D$0EAA@VCCRTAllocator@ATL@@@ATL@@QBEPADXZ 0056edc0 f i LUNAClient.obj
 0002:00036dd0       ?Allocate@?$CTempBuffer@D$0EAA@VCCRTAllocator@ATL@@@ATL@@QAEPADI@Z 0056edd0 f i LUNAClient.obj
 0002:00036de0       ??0?$CTempBuffer@D$0BAA@VCCRTAllocator@ATL@@@ATL@@QAE@XZ 0056ede0 f i LUNAClient.obj
 0002:00036df0       ??1?$CTempBuffer@D$0BAA@VCCRTAllocator@ATL@@@ATL@@QAE@XZ 0056edf0 f i LUNAClient.obj
 0002:00036e10       ??B?$CTempBuffer@D$0BAA@VCCRTAllocator@ATL@@@ATL@@QBEPADXZ 0056ee10 f i LUNAClient.obj
 0002:00036e20       ?Allocate@?$CTempBuffer@D$0BAA@VCCRTAllocator@ATL@@@ATL@@QAEPADI@Z 0056ee20 f i LUNAClient.obj
 0002:00036e30       ??0?$CTempBuffer@E$0BAA@VCCRTAllocator@ATL@@@ATL@@QAE@XZ 0056ee30 f i LUNAClient.obj
 0002:00036e40       ??1?$CTempBuffer@E$0BAA@VCCRTAllocator@ATL@@@ATL@@QAE@XZ 0056ee40 f i LUNAClient.obj
 0002:00036e60       ??B?$CTempBuffer@E$0BAA@VCCRTAllocator@ATL@@@ATL@@QBEPAEXZ 0056ee60 f i LUNAClient.obj
 0002:00036e70       ?Allocate@?$CTempBuffer@E$0BAA@VCCRTAllocator@ATL@@@ATL@@QAEPAEI@Z 0056ee70 f i LUNAClient.obj
 0002:00036e80       ?InitLibId@?$CAtlModuleT@VCComModule@ATL@@@ATL@@SAXXZ 0056ee80 f i LUNAClient.obj
 0002:00036e90       ?GetAppId@?$CAtlModuleT@VCComModule@ATL@@@ATL@@SAPBGXZ 0056ee90 f i LUNAClient.obj
 0002:00036ea0       ?FindKey@?$CSimpleMap@PADPAGVCExpansionVectorEqualHelper@ATL@@@ATL@@QBEHABQAD@Z 0056eea0 f i LUNAClient.obj
 0002:00036ef0       ?IsEqualKey@CExpansionVectorEqualHelper@ATL@@SA_NQAD0@Z 0056eef0 f i LUNAClient.obj
 0002:00036f10       ?InternalSetAtIndex@?$CSimpleMap@PADPAGVCExpansionVectorEqualHelper@ATL@@@ATL@@QAEXHABQADABQAG@Z 0056ef10 f i LUNAClient.obj
 0002:00036fd0       ?AllocateBytes@?$CTempBuffer@D$0EAA@VCCRTAllocator@ATL@@@ATL@@QAEPADI@Z 0056efd0 f i LUNAClient.obj
 0002:00037000       ?FreeHeap@?$CTempBuffer@D$0EAA@VCCRTAllocator@ATL@@@ATL@@AAEXXZ 0056f000 f i LUNAClient.obj
 0002:00037010       ?AllocateBytes@?$CTempBuffer@D$0BAA@VCCRTAllocator@ATL@@@ATL@@QAEPADI@Z 0056f010 f i LUNAClient.obj
 0002:00037040       ?FreeHeap@?$CTempBuffer@D$0BAA@VCCRTAllocator@ATL@@@ATL@@AAEXXZ 0056f040 f i LUNAClient.obj
 0002:00037050       ?AllocateBytes@?$CTempBuffer@E$0BAA@VCCRTAllocator@ATL@@@ATL@@QAEPAEI@Z 0056f050 f i LUNAClient.obj
 0002:00037080       ?FreeHeap@?$CTempBuffer@E$0BAA@VCCRTAllocator@ATL@@@ATL@@AAEXXZ 0056f080 f i LUNAClient.obj
 0002:00037090       ?AllocateHeap@?$CTempBuffer@D$0EAA@VCCRTAllocator@ATL@@@ATL@@AAEXI@Z 0056f090 f i LUNAClient.obj
 0002:000370c0       ?AllocateHeap@?$CTempBuffer@D$0BAA@VCCRTAllocator@ATL@@@ATL@@AAEXI@Z 0056f0c0 f i LUNAClient.obj
 0002:000370f0       ?AllocateHeap@?$CTempBuffer@E$0BAA@VCCRTAllocator@ATL@@@ATL@@AAEXI@Z 0056f0f0 f i LUNAClient.obj
 0002:00037120       ??0?$Wrapper@PAD@?$CSimpleMap@PADPAGVCExpansionVectorEqualHelper@ATL@@@ATL@@QAE@ABQAD@Z 0056f120 f i LUNAClient.obj
 0002:00037130       ??0?$Wrapper@PAG@?$CSimpleMap@PADPAGVCExpansionVectorEqualHelper@ATL@@@ATL@@QAE@ABQAG@Z 0056f130 f i LUNAClient.obj
 0002:00037140       ??$?2PAD@?$Wrapper@PAD@?$CSimpleMap@PADPAGVCExpansionVectorEqualHelper@ATL@@@ATL@@SAPAXIPAPAD@Z 0056f140 f i LUNAClient.obj
 0002:00037150       ??$?3PAD@?$Wrapper@PAD@?$CSimpleMap@PADPAGVCExpansionVectorEqualHelper@ATL@@@ATL@@SAXPAXPAPAD@Z 0056f150 f i LUNAClient.obj
 0002:00037160       ??$?2PAG@?$Wrapper@PAG@?$CSimpleMap@PADPAGVCExpansionVectorEqualHelper@ATL@@@ATL@@SAPAXIPAPAG@Z 0056f160 f i LUNAClient.obj
 0002:00037170       ??$?3PAG@?$Wrapper@PAG@?$CSimpleMap@PADPAGVCExpansionVectorEqualHelper@ATL@@@ATL@@SAXPAXPAPAG@Z 0056f170 f i LUNAClient.obj
 0002:00037180       ??1CAtlWinModule@ATL@@QAE@XZ 0056f180 f i LUNAClient.obj
 0002:000371e0       ?Term@CAtlWinModule@ATL@@QAEXXZ 0056f1e0 f i LUNAClient.obj
 0002:00037200       ??1_ATL_WIN_MODULE70@ATL@@QAE@XZ 0056f200 f i LUNAClient.obj
 0002:00037210       ?AtlWinModuleTerm@ATL@@YGJPAU_ATL_WIN_MODULE70@1@PAUHINSTANCE__@@@Z 0056f210 f i LUNAClient.obj
 0002:000372b0       ??1?$CSimpleArray@GV?$CSimpleArrayEqualHelper@G@ATL@@@ATL@@QAE@XZ 0056f2b0 f i LUNAClient.obj
 0002:000372c0       ?GetSize@?$CSimpleArray@GV?$CSimpleArrayEqualHelper@G@ATL@@@ATL@@QBEHXZ 0056f2c0 f i LUNAClient.obj
 0002:000372d0       ?RemoveAll@?$CSimpleArray@GV?$CSimpleArrayEqualHelper@G@ATL@@@ATL@@QAEXXZ 0056f2d0 f i LUNAClient.obj
 0002:00037300       ??A?$CSimpleArray@GV?$CSimpleArrayEqualHelper@G@ATL@@@ATL@@QAEAAGH@Z 0056f300 f i LUNAClient.obj
 0002:00037330       ??0MiniDumper@@QAE@W4DumpLevel@0@_N@Z 0056f330 f   MiniDumper.obj
 0002:00037420       ??0Noncopyable@@IAE@XZ     0056f420 f i MiniDumper.obj
 0002:00037430       ??1MiniDumper@@QAE@XZ      0056f430 f   MiniDumper.obj
 0002:00037440       ??1Noncopyable@@IAE@XZ     0056f440 f i MiniDumper.obj
 0002:00037450       ?TopLevelFilter@MiniDumper@@CGJPAU_EXCEPTION_POINTERS@@@Z 0056f450 f   MiniDumper.obj
 0002:000376f0       ?GetFaultReason@MiniDumper@@CAPBDPAU_EXCEPTION_POINTERS@@@Z 0056f6f0 f   MiniDumper.obj
 0002:000379d0       ?IsInit@cMsgBox@@SAHXZ     0056f9d0 f i GameState.obj
 0002:000379e0       ?SetExtraCharacterSlot@CCharSelect@@QAEXK@Z 0056f9e0 f i GameState.obj
 0002:000379f0       ??0CGameState@@QAE@XZ      0056f9f0 f   GameState.obj
 0002:00037a10       ??1CGameState@@UAE@XZ      0056fa10 f   GameState.obj
 0002:00037a20       ?SetBlock@CGameState@@QAEXH@Z 0056fa20 f   GameState.obj
 0002:00037a30       ?OnDisconnect@CGameState@@UAEXXZ 0056fa30 f   GameState.obj
 0002:00037aa0       ??0MSGROOT@@QAE@XZ         0056faa0 f i GameState.obj
 0002:00037ab0       ??0MSGBASE@@QAE@XZ         0056fab0 f i GameState.obj
 0002:00037ac0       ??_GCGameState@@UAEPAXI@Z  0056fac0 f i GameState.obj
 0002:00037ac0       ??_ECGameState@@UAEPAXI@Z  0056fac0 f i GameState.obj
 0002:00037af0       ?CommonNetworkParser@CGameState@@SAHEEPAX@Z 0056faf0 f   GameState.obj
 0002:00037c40       ?GetEngine@CMainGame@@QAEPAVCEngine@@XZ 0056fc40 f i MainGame.obj
 0002:00037c50       ?IsBlock@CGameState@@QAEHXZ 0056fc50 f i MainGame.obj
 0002:00037c60       ?PauseRender@CGraphicEngine@@QAEXH@Z 0056fc60 f i MainGame.obj
 0002:00037c80       ?IsGameInAcked@CGameIn@@QAEHXZ 0056fc80 f i MainGame.obj
 0002:00037c90       ?GetGraphicsEngine@CEngine@@QAEPAVCGraphicEngine@@XZ 0056fc90 f i MainGame.obj
 0002:00037ca0       ?PauseRender@CEngine@@QAEXH@Z 0056fca0 f i MainGame.obj
 0002:00037cc0       ??0CMainGame@@QAE@XZ       0056fcc0 f   MainGame.obj
 0002:00037d30       ??1CMainGame@@UAE@XZ       0056fd30 f   MainGame.obj
 0002:00037d40       ?Init@CMainGame@@QAEXPAUHWND__@@@Z 0056fd40 f   MainGame.obj
 0002:00038150       ??_GCEngineObjectCache@@QAEPAXI@Z 00570150 f i MainGame.obj
 0002:00038180       ?SetGameState@CMainGame@@QAEXHPAXH@Z 00570180 f   MainGame.obj
 0002:000381f0       ?BeforeRender@CMainGame@@QAEXXZ 005701f0 f   MainGame.obj
 0002:00038210       ?AfterRender@CMainGame@@QAEXXZ 00570210 f   MainGame.obj
 0002:00038230       ?PauseRender@CMainGame@@QAEXH@Z 00570230 f   MainGame.obj
 0002:00038250       ?GetGameState@CMainGame@@AAEPAVCGameState@@H@Z 00570250 f   MainGame.obj
 0002:000382f0       ?BeforeRenderFunc@@YGKXZ   005702f0 f   MainGame.obj
 0002:00038310       ?AfterRenderFunc@@YGKXZ    00570310 f   MainGame.obj
 0002:00038330       ?AfterRenderFunc__@@YGKXZ  00570330 f   MainGame.obj
 0002:00038340       ?MapLoadCallback@@YGKKKPAX@Z 00570340 f   MainGame.obj
 0002:00038390       ?LoadPack@CMainGame@@QAEXPBD@Z 00570390 f   MainGame.obj
 0002:000383a0       ??_ECMainGame@@UAEPAXI@Z   005703a0 f i MainGame.obj
 0002:000383a0       ??_GCMainGame@@UAEPAXI@Z   005703a0 f i MainGame.obj
 0002:000383d0       ?Release@CMainGame@@QAEXXZ 005703d0 f   MainGame.obj
 0002:000384f0       ?Process@CMainGame@@QAEHXZ 005704f0 f   MainGame.obj
 0002:00038780       _fabsf                     00570780 f i MainTitle.obj
 0002:00038790       ?GetImageRect@cImage@@QAEPAUtagRECT@@XZ 00570790 f i MainTitle.obj
 0002:000387a0       ?NoDisconMsg@CMainTitle@@QAEXXZ 005707a0 f i MainTitle.obj
 0002:000387b0       ?fabs@@YAMM@Z              005707b0 f i MainTitle.obj
 0002:000387c0       ?SetUserLevel@CMainGame@@QAEXH@Z 005707c0 f i MainTitle.obj
 0002:000387d0       ?SetcbDropProcess@cWindowManager@@QAEXP6AXJJJJJ@Z@Z 005707d0 f i MainTitle.obj
 0002:000387e0       ?assign@?$char_traits@D@std@@SAXAADABD@Z 005707e0 f i MainTitle.obj
 0002:000387f0       ?IsActive@cObject@@QBEHXZ  005707f0 f i MainTitle.obj
 0002:00038800       ?copy@?$char_traits@D@std@@SAPADPADPBDI@Z 00570800 f i MainTitle.obj
 0002:00038830       ?GetHeight@cWindow@@QAEGXZ 00570830 f i MainTitle.obj
 0002:00038840       ?GetAbsX@cWindow@@QAEMXZ   00570840 f i MainTitle.obj
 0002:00038850       ?GetAbsY@cWindow@@QAEMXZ   00570850 f i MainTitle.obj
 0002:00038860       ?IsInited@CMHMap@@QAEHXZ   00570860 f i MainTitle.obj
 0002:00038870       ??1CAddableInfoList@@QAE@XZ 00570870 f i MainTitle.obj
 0002:00038880       ?Init@CAddableInfoList@@QAEXXZ 00570880 f i MainTitle.obj
 0002:00038890       ?Compress@COMPRESSEDPOS@@QAEXPAUVECTOR3@@@Z 00570890 f i MainTitle.obj
 0002:000388c0       ?Decompress@COMPRESSEDPOS@@QAEXPAUVECTOR3@@@Z 005708c0 f i MainTitle.obj
 0002:00038900       ?SetFrom@BASEMOVE_INFO@@QAEXPAUSEND_MOVEINFO@@@Z 00570900 f i MainTitle.obj
 0002:00038960       ?CanUse@CGMToolManager@@QAEXH@Z 00570960 f i MainTitle.obj
 0002:00038970       ?SetCurTargetPosIdx@BASEMOVE_INFO@@QAEXE@Z 00570970 f i MainTitle.obj
 0002:00038980       ?SetMaxTargetPosIdx@BASEMOVE_INFO@@QAEXE@Z 00570980 f i MainTitle.obj
 0002:00038990       ?SetEventNotifyChanged@CGMNotifyManager@@QAEXH@Z 00570990 f i MainTitle.obj
 0002:000389a0       ?SetTargetPosition@BASEMOVE_INFO@@QAEXPAUVECTOR3@@@Z 005709a0 f i MainTitle.obj
 0002:000389c0       ?ResetEventApply@CGMNotifyManager@@QAEXXZ 005709c0 f i MainTitle.obj
 0002:000389e0       ?SetTargetPosition@BASEMOVE_INFO@@QAEXEUVECTOR3@@@Z 005709e0 f i MainTitle.obj
 0002:00038a10       ?SetEventApply@CGMNotifyManager@@QAEXK@Z 00570a10 f i MainTitle.obj
 0002:00038a30       ??0BASEOBJECT_INFO@@QAE@XZ 00570a30 f i MainTitle.obj
 0002:00038a40       ?SetCharSexKindFromDB@cCharMakeManager@@QAEXH@Z 00570a40 f i MainTitle.obj
 0002:00038a50       ?SendOutMsg@@YAXXZ         00570a50 f   MainTitle.obj
 0002:00038a80       ?SetPositionScale@CMainTitle@@QAEXXZ 00570a80 f   MainTitle.obj
 0002:00038b30       ?Release@CMainTitle@@UAEXPAVCGameState@@@Z 00570b30 f   MainTitle.obj
 0002:00038b90       ?BeforeRender@CMainTitle@@UAEXXZ 00570b90 f   MainTitle.obj
 0002:00038be0       ?AfterRender@CMainTitle@@UAEXXZ 00570be0 f   MainTitle.obj
 0002:00038cd0       ?IsConnected@CMHNetwork@@QAEHXZ 00570cd0 f i MainTitle.obj
 0002:00038ce0       ?SetKey@CMHNetwork@@QAEXUHSEL_INITIAL@@0@Z 00570ce0 f i MainTitle.obj
 0002:00038d30       ?ReleaseKey@CMHNetwork@@QAEXXZ 00570d30 f i MainTitle.obj
 0002:00038d40       ?ShowServerList@CMainTitle@@QAEXXZ 00570d40 f   MainTitle.obj
 0002:00038df0       ?StartWaitConnectToAgent@CMainTitle@@QAEXH@Z 00570df0 f   MainTitle.obj
 0002:00038e10       ??1SEND_MONSTER_TOTALINFO@@QAE@XZ 00570e10 f i MainTitle.obj
 0002:00038e20       ?RemoveMainTitleMonsters@CMainTitle@@AAEXXZ 00570e20 f   MainTitle.obj
 0002:00038e60       ?IsNear@@YAHPAUVECTOR3@@0H@Z 00570e60 f   MainTitle.obj
 0002:00038ec0       ?ProcessMainTitleMonsters@CMainTitle@@AAEXXZ 00570ec0 f   MainTitle.obj
 0002:00039330       ?Cheat_CheckIp_Nack@CMainTitle@@QAEXXZ 00571330 f   MainTitle.obj
 0002:00039380       ?UserConn_Use_Dynamic_Ack@CMainTitle@@QAEXPAX@Z 00571380 f   MainTitle.obj
 0002:000394b0       ?UserConn_Dist_ConnectSuccess@CMainTitle@@QAEXPAX@Z 005714b0 f   MainTitle.obj
 0002:00039510       ?UserConn_Login_Ack@CMainTitle@@QAEXPAX@Z 00571510 f   MainTitle.obj
 0002:000395d0       ?UserConn_CharacterList_Ack@CMainTitle@@QAEXPAX@Z 005715d0 f   MainTitle.obj
 0002:00039640       ?UserConn_CharacterList_Nack@CMainTitle@@QAEXXZ 00571640 f   MainTitle.obj
 0002:000396d0       ?UserConn_RemainTime_Notify@CMainTitle@@QAEXPAX@Z 005716d0 f   MainTitle.obj
 0002:000396e0       ??0MSG_DWORD2@@QAE@XZ      005716e0 f i MainTitle.obj
 0002:000396f0       ?Cheat_EventNotify_On@CMainTitle@@QAEXPAX@Z 005716f0 f   MainTitle.obj
 0002:00039780       ?Cheat_EventNotify_Off@CMainTitle@@QAEXPAX@Z 00571780 f   MainTitle.obj
 0002:000397a0       ?Login_Error_Invalid_Version@CMainTitle@@QAEXXZ 005717a0 f   MainTitle.obj
 0002:00039870       ?Login_Error_OverLappedLogin@CMainTitle@@QAEXXZ 00571870 f   MainTitle.obj
 0002:00039900       ?Login_Error_OverLappedLoginiNotherServer@CMainTitle@@QAEXK@Z 00571900 f   MainTitle.obj
 0002:00039a90       ?Login_Error_NoAgentServer@CMainTitle@@QAEXXZ 00571a90 f   MainTitle.obj
 0002:00039b60       ?Login_Error_NoDistributeServer@CMainTitle@@QAEXXZ 00571b60 f   MainTitle.obj
 0002:00039b90       ?Login_Error_InvalidUserLevel@CMainTitle@@QAEXXZ 00571b90 f   MainTitle.obj
 0002:00039c60       ?Login_Error_DistServerIsBusy@CMainTitle@@QAEXXZ 00571c60 f   MainTitle.obj
 0002:00039d30       ?Login_Error_WrongIdPw@CMainTitle@@QAEXXZ 00571d30 f   MainTitle.obj
 0002:00039de0       ?Login_Error_BlockUserLevel@CMainTitle@@QAEXK@Z 00571de0 f   MainTitle.obj
 0002:00039f60       ?Login_Error_Invalid_Ip@CMainTitle@@QAEXXZ 00571f60 f   MainTitle.obj
 0002:00039ff0       ??0?$allocator@D@std@@QAE@ABV01@@Z 00571ff0 f i MainTitle.obj
 0002:0003a000       ?Login_Error_DistConnet_Error@CMainTitle@@QAEXXZ 00572000 f   MainTitle.obj
 0002:0003a090       ?Login_Error_MaxUser@CMainTitle@@QAEXXZ 00572090 f   MainTitle.obj
 0002:0003a120       ?Login_Error_Minor_InadultServer@CMainTitle@@QAEXXZ 00572120 f   MainTitle.obj
 0002:0003a1b0       ?Login_Error_SecededAccount@CMainTitle@@QAEXXZ 005721b0 f   MainTitle.obj
 0002:0003a280       ?Login_Error_Not_CloseBetaWinner@CMainTitle@@QAEXXZ 00572280 f   MainTitle.obj
 0002:0003a350       ?Login_Error_NoreMainTime@CMainTitle@@QAEXXZ 00572350 f   MainTitle.obj
 0002:0003a410       ?Login_Error_NoIpRegen@CMainTitle@@QAEXXZ 00572410 f   MainTitle.obj
 0002:0003a4e0       ?UserConn_Character_SexKind@CMainTitle@@QAEXPAX@Z 005724e0 f   MainTitle.obj
 0002:0003a500       ?Login_Error_Invalid_Sec_Pass@CMainTitle@@QAEXXZ 00572500 f   MainTitle.obj
 0002:0003a5d0       ?Login_Error_Change_Sec_Pass@CMainTitle@@QAEXXZ 005725d0 f   MainTitle.obj
 0002:0003a6a0       ?Login_Error_File_CRC@CMainTitle@@QAEXXZ 005726a0 f   MainTitle.obj
 0002:0003a850       ?Login_Error_LoginSession_Invalid@CMainTitle@@QAEXXZ 00572850 f   MainTitle.obj
 0002:0003a920       ?_Myptr@?$basic_string@DU?$char_traits@D@std@@V?$allocator@D@2@@std@@QAEPADXZ 00572920 f i MainTitle.obj
 0002:0003a940       ?deallocate@?$allocator@D@std@@QAEXPADI@Z 00572940 f i MainTitle.obj
 0002:0003a960       ??0?$allocator@D@std@@QAE@XZ 00572960 f i MainTitle.obj
 0002:0003a970       ?GetInstance@CFilteringTable@@SAPAV1@XZ 00572970 f i MainTitle.obj
 0002:0003a9f0       ??0CAddableInfoList@@QAE@XZ 005729f0 f i MainTitle.obj
 0002:0003aa00       ?GetInstance@cConductManager@@SAPAV1@XZ 00572a00 f i MainTitle.obj
 0002:0003aa80       ?Init@CMainTitle@@UAEHPAX@Z 00572a80 f   MainTitle.obj
 0002:0003af10       ?Process@CMainTitle@@UAEXXZ 00572f10 f   MainTitle.obj
 0002:0003b2a0       ?OnLoginError@CMainTitle@@QAEXKK@Z 005732a0 f   MainTitle.obj
 0002:0003b590       ?OnDisconnect@CMainTitle@@UAEXXZ 00573590 f   MainTitle.obj
 0002:0003b730       ?ConnectToServer@CMainTitle@@QAEXH@Z 00573730 f   MainTitle.obj
 0002:0003b820       ??0SEND_MONSTER_TOTALINFO@@QAE@XZ 00573820 f i MainTitle.obj
 0002:0003b840       ?UserConn_Server_NotReady@CMainTitle@@QAEXXZ 00573840 f   MainTitle.obj
 0002:0003b8b0       ?UserConn_Login_Nack@CMainTitle@@QAEXPAX@Z 005738b0 f   MainTitle.obj
 0002:0003b8d0       ?UserConn_Agent_ConnectSuccess@CMainTitle@@QAEXPAX@Z 005738d0 f   MainTitle.obj
 0002:0003b920       ??0?$_String_val@DV?$allocator@D@std@@@std@@IAE@V?$allocator@D@1@@Z 00573920 f i MainTitle.obj
 0002:0003b930       ?_Eos@?$basic_string@DU?$char_traits@D@std@@V?$allocator@D@2@@std@@IAEXI@Z 00573930 f i MainTitle.obj
 0002:0003b960       ?NetworkMsgParse@CMainTitle@@UAEXEEPAX@Z 00573960 f   MainTitle.obj
 0002:0003bb50       ?InitMainTitleMonsters@CMainTitle@@AAEXXZ 00573b50 f   MainTitle.obj
 0002:0003c0b0       ?_Tidy@?$basic_string@DU?$char_traits@D@std@@V?$allocator@D@2@@std@@IAEX_NI@Z 005740b0 f i MainTitle.obj
 0002:0003c120       ??0?$basic_string@DU?$char_traits@D@std@@V?$allocator@D@2@@std@@QAE@XZ 00574120 f i MainTitle.obj
 0002:0003c140       ??1?$basic_string@DU?$char_traits@D@std@@V?$allocator@D@2@@std@@QAE@XZ 00574140 f i MainTitle.obj
 0002:0003c170       ??0CMainTitle@@QAE@XZ      00574170 f   MainTitle.obj
 0002:0003c250       ??1CMainTitle@@UAE@XZ      00574250 f   MainTitle.obj
 0002:0003c320       ??_GCMainTitle@@UAEPAXI@Z  00574320 f i MainTitle.obj
 0002:0003c320       ??_ECMainTitle@@UAEPAXI@Z  00574320 f i MainTitle.obj
 0002:0003c350       ??0CServerConnect@@QAE@XZ  00574350 f   ServerConnect.obj
 0002:0003c380       ??1CServerConnect@@UAE@XZ  00574380 f   ServerConnect.obj
 0002:0003c390       ?Init@CServerConnect@@UAEHPAX@Z 00574390 f   ServerConnect.obj
 0002:0003c3c0       ?Release@CServerConnect@@UAEXPAVCGameState@@@Z 005743c0 f   ServerConnect.obj
 0002:0003c3d0       ?StartShowLogoAVI@CServerConnect@@QAEXXZ 005743d0 f   ServerConnect.obj
 0002:0003c3e0       ?EndShowLogoAVI@CServerConnect@@QAEXXZ 005743e0 f   ServerConnect.obj
 0002:0003c440       ?Process@CServerConnect@@UAEXXZ 00574440 f   ServerConnect.obj
 0002:0003c470       ?BeforeRender@CServerConnect@@UAEXXZ 00574470 f   ServerConnect.obj
 0002:0003c4b0       ?AfterRender@CServerConnect@@UAEXXZ 005744b0 f   ServerConnect.obj
 0002:0003c4c0       ?NetworkMsgParse@CServerConnect@@UAEXEEPAX@Z 005744c0 f   ServerConnect.obj
 0002:0003c4d0       ??_ECServerConnect@@UAEPAXI@Z 005744d0 f i ServerConnect.obj
 0002:0003c4d0       ??_GCServerConnect@@UAEPAXI@Z 005744d0 f i ServerConnect.obj
 0002:0003c500       ?GetChannelDialog@CCharSelect@@QAEPAVCChannelDialog@@XZ 00574500 f i CharSelect.obj
 0002:0003c510       ?GetProfileDlg@CCharSelect@@QAEPAVCProfileDlg@@XZ 00574510 f i CharSelect.obj
 0002:0003c520       ?GetCurMotion@CEngineObject@@QAEHXZ 00574520 f i CharSelect.obj
 0002:0003c530       ?GetObjectName@CObject@@QAEPADXZ 00574530 f i CharSelect.obj
 0002:0003c540       ?GetID@CObject@@QAEKXZ     00574540 f i CharSelect.obj
 0002:0003c550       ?GetEngineObject@CObject@@QAEPAVCEngineObject@@XZ 00574550 f i CharSelect.obj
 0002:0003c560       ?GetCharacterTotalInfo@CPlayer@@QAEPAUCHARACTER_TOTALINFO@@XZ 00574560 f i CharSelect.obj
 0002:0003c570       ?GetGender@CPlayer@@QAEEXZ 00574570 f i CharSelect.obj
 0002:0003c580       ?GetEyeTime@CPlayer@@QAEPAVcTimeDelay@@XZ 00574580 f i CharSelect.obj
 0002:0003c590       ?IsMouseInputProcessed@cWindowManager@@QAEHXZ 00574590 f i CharSelect.obj
 0002:0003c5a0       ?LButtonDown@CMouse@@QAEHXZ 005745a0 f i CharSelect.obj
 0002:0003c5b0       ?LButtonDoubleClick@CMouse@@QAEHXZ 005745b0 f i CharSelect.obj
 0002:0003c5c0       ?GetMouseEventX@CMouse@@QAEHXZ 005745c0 f i CharSelect.obj
 0002:0003c5d0       ?GetMouseEventY@CMouse@@QAEHXZ 005745d0 f i CharSelect.obj
 0002:0003c5e0       ??0CCharSelect@@QAE@XZ     005745e0 f   CharSelect.obj
 0002:0003c740       ??1CCharSelect@@UAE@XZ     00574740 f   CharSelect.obj
 0002:0003c7c0       ?SetPositionScale@CCharSelect@@QAEXXZ 005747c0 f   CharSelect.obj
 0002:0003c890       ?Release@CCharSelect@@UAEXPAVCGameState@@@Z 00574890 f   CharSelect.obj
 0002:0003c900       ?BeforeRender@CCharSelect@@UAEXXZ 00574900 f   CharSelect.obj
 0002:0003c950       ?AfterRender@CCharSelect@@UAEXXZ 00574950 f   CharSelect.obj
 0002:0003c9b0       ?GetCurSelectedPlayer@CCharSelect@@QAEPAVCPlayer@@XZ 005749b0 f   CharSelect.obj
 0002:0003c9d0       ?InitCameraInCharSelect@CCharSelect@@AAEXXZ 005749d0 f   CharSelect.obj
 0002:0003ca60       ?SetCurSelctedPlayer@CCharSelect@@AAEXH@Z 00574a60 f   CharSelect.obj
 0002:0003cb00       ?IsFull@CCharSelect@@QAEHXZ 00574b00 f   CharSelect.obj
 0002:0003cb30       ?EnterGame@CCharSelect@@QAEHXZ 00574b30 f   CharSelect.obj
 0002:0003cbb0       ??0MSG_DWORD@@QAE@XZ       00574bb0 f i CharSelect.obj
 0002:0003cbc0       ?PlaySelectedMotion@CCharSelect@@AAEXH@Z 00574bc0 f   CharSelect.obj
 0002:0003cc50       ?PlayDeselectedMotion@CCharSelect@@AAEXH@Z 00574c50 f   CharSelect.obj
 0002:0003cce0       ?SetDisablePick@CCharSelect@@QAEXH@Z 00574ce0 f   CharSelect.obj
 0002:0003cd20       ?BackToMainTitle@CCharSelect@@QAEXXZ 00574d20 f   CharSelect.obj
 0002:0003cdb0       ?UserConn_RemainTime_Notify@CCharSelect@@QAEXPAX@Z 00574db0 f   CharSelect.obj
 0002:0003cdc0       ?UserConn_CharacterList_Ack@CCharSelect@@QAEXPAX@Z 00574dc0 f   CharSelect.obj
 0002:0003d240       ?UserConn_Character_Remove_Nack@CCharSelect@@QAEXPAX@Z 00575240 f   CharSelect.obj
 0002:0003d2d0       ?UserConn_DisConnect_Ack@CCharSelect@@QAEXXZ 005752d0 f   CharSelect.obj
 0002:0003d310       ?UserConn_ChannelInfo_Ack@CCharSelect@@QAEXPAX@Z 00575310 f   CharSelect.obj
 0002:0003d390       ?UserConn_ChannelInfo_Nack@CCharSelect@@QAEXPAX@Z 00575390 f   CharSelect.obj
 0002:0003d3e0       ?Cheat_EventNotify_On@CCharSelect@@QAEXPAX@Z 005753e0 f   CharSelect.obj
 0002:0003d470       ?Cheat_EventNotify_Off@CCharSelect@@QAEXPAX@Z 00575470 f   CharSelect.obj
 0002:0003d490       ?UserConn_Character_SexKind@CCharSelect@@QAEXPAX@Z 00575490 f   CharSelect.obj
 0002:0003d4b0       ??_ECCharSelect@@UAEPAXI@Z 005754b0 f i CharSelect.obj
 0002:0003d4b0       ??_GCCharSelect@@UAEPAXI@Z 005754b0 f i CharSelect.obj
 0002:0003d4e0       ?SelectPlayer@CCharSelect@@QAEXH@Z 005754e0 f   CharSelect.obj
 0002:0003d610       ?DeleteCharacter@CCharSelect@@QAEXXZ 00575610 f   CharSelect.obj
 0002:0003d670       ?DisplayNotice@CCharSelect@@QAEXH@Z 00575670 f   CharSelect.obj
 0002:0003d6e0       ?OnDisconnect@CCharSelect@@UAEXXZ 005756e0 f   CharSelect.obj
 0002:0003d740       ?SendMsgGetChannelInfo@CCharSelect@@QAEXXZ 00575740 f   CharSelect.obj
 0002:0003d7a0       ?UserConn_Character_Remove_Ack@CCharSelect@@QAEXXZ 005757a0 f   CharSelect.obj
 0002:0003d8a0       ?Init@CCharSelect@@UAEHPAX@Z 005758a0 f   CharSelect.obj
 0002:0003da70       ?Process@CCharSelect@@UAEXXZ 00575a70 f   CharSelect.obj
 0002:0003dbe0       ?NetworkMsgParse@CCharSelect@@UAEXEEPAX@Z 00575be0 f   CharSelect.obj
 0002:0003dd90       ??0CProfileDlg@@QAE@XZ     00575d90 f   ProfileDlg.obj
 0002:0003e550       ?OnCreate@cObject@@UAEXH@Z 00576550 f i ProfileDlg.obj
 0002:0003e560       ?SetHeight@cWindow@@UAEXG@Z 00576560 f i ProfileDlg.obj
 0002:0003e580       ?SetFocusEdit@cWindow@@UAEXH@Z 00576580 f i ProfileDlg.obj
 0002:0003e590       ?SetAutoClose@cDialog@@UAEXH@Z 00576590 f i ProfileDlg.obj
 0002:0003e5a0       ?IsAutoClose@cDialog@@UAEHXZ 005765a0 f i ProfileDlg.obj
 0002:0003e5b0       ?OnActionEvent@cDialog@@UAEXJPAXK@Z 005765b0 f i ProfileDlg.obj
 0002:0003e5c0       ?FakeMoveIcon@cDialog@@UAEHJJPAVcIcon@@@Z 005765c0 f i ProfileDlg.obj
 0002:0003e5d0       ?FakeDeleteIcon@cDialog@@UAEXGPAVcIcon@@@Z 005765d0 f i ProfileDlg.obj
 0002:0003e5e0       ??_GCProfileDlg@@UAEPAXI@Z 005765e0 f i ProfileDlg.obj
 0002:0003e5e0       ??_ECProfileDlg@@UAEPAXI@Z 005765e0 f i ProfileDlg.obj
 0002:0003e610       ??1CProfileDlg@@UAE@XZ     00576610 f   ProfileDlg.obj
 0002:0003e620       ?Linking@CProfileDlg@@QAEXXZ 00576620 f   ProfileDlg.obj
 0002:0003e660       ?UpdateProfile@CProfileDlg@@QAEXPADPAUCHARACTER_TOTALINFO@@@Z 00576660 f   ProfileDlg.obj
 0002:0003f560       ?RefreshProfile@CProfileDlg@@QAEXXZ 00577560 f   ProfileDlg.obj
 0002:0003f5e0       ?AddWindow@cWindowManager@@QAEXPAVcWindow@@@Z 005775e0 f i cWindowSystemFunc.obj
 0002:0003f5f0       ?SetMouseInputProcessed@cWindowManager@@QAEXXZ 005775f0 f i cWindowSystemFunc.obj
 0002:0003f600       ?GetGameInInitKind@CGameIn@@QAEHXZ 00577600 f i cWindowSystemFunc.obj
 0002:0003f610       ?GetMonsterGuageDlg@CGameIn@@QAEPAVCMonsterGuageDlg@@XZ 00577610 f i cWindowSystemFunc.obj
 0002:0003f620       ?SetMonsterGuageDlg@CGameIn@@QAEXPAVCMonsterGuageDlg@@@Z 00577620 f i cWindowSystemFunc.obj
 0002:0003f630       ?GetInventoryDialog@CGameIn@@QAEPAVCInventoryExDialog@@XZ 00577630 f i cWindowSystemFunc.obj
 0002:0003f640       ?GetStreetStallDialog@CGameIn@@QAEPAVCStreetStall@@XZ 00577640 f i cWindowSystemFunc.obj
 0002:0003f650       ?GetMenuSlotDialog@CGameIn@@QAEPAVCMenuSlotDialog@@XZ 00577650 f i cWindowSystemFunc.obj
 0002:0003f660       ?GetIdentificationDlg@CGameIn@@QAEPAVCIdentification@@XZ 00577660 f i cWindowSystemFunc.obj
 0002:0003f670       ?GetPetWearedDlg@CGameIn@@QAEPAVCPetWearedDialog@@XZ 00577670 f i cWindowSystemFunc.obj
 0002:0003f680       ?SetCharMakeNewDlg@CCharMake@@QAEXPAVCCharMakeNewDlg@@@Z 00577680 f i cWindowSystemFunc.obj
 0002:0003f690       ?GetCharMakeNewDlg@CCharMake@@QAEPAVCCharMakeNewDlg@@XZ 00577690 f i cWindowSystemFunc.obj
 0002:0003f6a0       ?GetParent@cObject@@QBEQAV1@XZ 005776a0 f i cWindowSystemFunc.obj
 0002:0003f6b0       ?GetID@cObject@@QBEJXZ     005776b0 f i cWindowSystemFunc.obj
 0002:0003f6c0       ?GetType@cObject@@QBEGXZ   005776c0 f i cWindowSystemFunc.obj
 0002:0003f6d0       ?SetDepend@cWindow@@QAEXH@Z 005776d0 f i cWindowSystemFunc.obj
 0002:0003f6e0       ?GetWidth@cWindow@@QAEGXZ  005776e0 f i cWindowSystemFunc.obj
 0002:0003f6f0       ?SetScale@cWindow@@QAEXPAUVECTOR2@@@Z 005776f0 f i cWindowSystemFunc.obj
 0002:0003f710       ?GetHero@CObjectManager@@QAEPAVCHero@@XZ 00577710 f i cWindowSystemFunc.obj
 0002:0003f720       ?GetPosition@CExchangeItem@@QAEGXZ 00577720 f i cWindowSystemFunc.obj
 0002:0003f730       ?IsPKLooted@CPKManager@@QAEHXZ 00577730 f i cWindowSystemFunc.obj
 0002:0003f740       ?SetProfileDlg@CCharSelect@@QAEXPAVCProfileDlg@@@Z 00577740 f i cWindowSystemFunc.obj
 0002:0003f750       ?SetCertificateDlg@CCharSelect@@QAEXPAVCCertificateDlg@@@Z 00577750 f i cWindowSystemFunc.obj
 0002:0003f760       ?GetCertificateDlg@CCharSelect@@QAEPAVCCertificateDlg@@XZ 00577760 f i cWindowSystemFunc.obj
 0002:0003f770       ?ReturnIconToPrevDlg@@YAXPAVcDialog@@JJ@Z 00577770 f   cWindowSystemFunc.obj
 0002:0003f7c0       ?SendDeleteIconMsg@@YAXPAVcIcon@@@Z 005777c0 f   cWindowSystemFunc.obj
 0002:0003f910       ?CreateMainTitle_m@@YAXXZ  00577910 f   cWindowSystemFunc.obj
 0002:0003fa30       ?NewCreateCharSelect_m@@YAXXZ 00577a30 f   cWindowSystemFunc.obj
 0002:0003fa60       ?CreateCertificateDlg@@YAXXZ 00577a60 f   cWindowSystemFunc.obj
 0002:0003faa0       ?CreateProfileDlg@@YAXXZ   00577aa0 f   cWindowSystemFunc.obj
 0002:0003fae0       ?CreateCharMakeNewDlg@@YAXXZ 00577ae0 f   cWindowSystemFunc.obj
 0002:0003fb40       ?CharMessageDlg_m@@YAXXZ   00577b40 f   cWindowSystemFunc.obj
 0002:0003fb50       ?CreateGameLoading_m@@YAPAVcWindow@@XZ 00577b50 f   cWindowSystemFunc.obj
 0002:0003fb80       ?CreateInitLogo_m@@YAXXZ   00577b80 f   cWindowSystemFunc.obj
 0002:0003fc70       ?CreateMoneyDlg@@YAXXZ     00577c70 f   cWindowSystemFunc.obj
 0002:0003fca0       ?CreateMonsterGuageDlg@@YAXXZ 00577ca0 f   cWindowSystemFunc.obj
 0002:0003fce0       ?CreateChannelDlg@@YAXXZ   00577ce0 f   cWindowSystemFunc.obj
 0002:0003fd10       ?CreateLoadingDlg@@YAXH@Z  00577d10 f   cWindowSystemFunc.obj
 0002:0003fe40       ?favorDragDropProcess@@YAXJJJJJ@Z 00577e40 f   cWindowSystemFunc.obj
 0002:000400b0       ?cbDragDropProcess@@YAXJJJJJ@Z 005780b0 f   cWindowSystemFunc.obj
 0002:000404e0       ?GetDebugDlg@CGameIn@@QAEPAVCDebugDlg@@XZ 005784e0 f i GameInEventFunc.obj
 0002:000404f0       ?GetMiddleImageNum@cListDialog@@QAEEXZ 005784f0 f i GameInEventFunc.obj
 0002:00040500       ?SetAttackBtnFlag@CDebugDlg@@QAEXH@Z 00578500 f i GameInEventFunc.obj
 0002:00040510       ?SetItemBtnFlag@CDebugDlg@@QAEXH@Z 00578510 f i GameInEventFunc.obj
 0002:00040520       ?SetMoveBtnFlag@CDebugDlg@@QAEXH@Z 00578520 f i GameInEventFunc.obj
 0002:00040530       ?SetSkillBtnFlag@CDebugDlg@@QAEXH@Z 00578530 f i GameInEventFunc.obj
 0002:00040540       ?SetChatBtnFlag@CDebugDlg@@QAEXH@Z 00578540 f i GameInEventFunc.obj
 0002:00040550       ?SetUserConnBtnFlag@CDebugDlg@@QAEXH@Z 00578550 f i GameInEventFunc.obj
 0002:00040560       ?SDI_SkillPushupBtnFunc@@YAXJPAXK@Z 00578560 f   GameInEventFunc.obj
 0002:00040570       ?CTI_WideBtnFunc@@YAXJPAXK@Z 00578570 f   GameInEventFunc.obj
 0002:000405a0       ?CTI_NarrowBtnFunc@@YAXJPAXK@Z 005785a0 f   GameInEventFunc.obj
 0002:000405d0       ?DI_AttackBtnFunc@@YAXJPAXK@Z 005785d0 f   GameInEventFunc.obj
 0002:00040610       ?DI_ItemBtnFunc@@YAXJPAXK@Z 00578610 f   GameInEventFunc.obj
 0002:00040650       ?DI_MoveBtnFunc@@YAXJPAXK@Z 00578650 f   GameInEventFunc.obj
 0002:00040690       ?DI_SkillBtnFunc@@YAXJPAXK@Z 00578690 f   GameInEventFunc.obj
 0002:000406d0       ?DI_ChatBtnFunc@@YAXJPAXK@Z 005786d0 f   GameInEventFunc.obj
 0002:00040710       ?DI_UserConnBtnFunc@@YAXJPAXK@Z 00578710 f   GameInEventFunc.obj
 0002:00040750       ?GetStaticText@cStatic@@QAEPBDXZ 00578750 f i GlobalEventFunc.obj
 0002:00040760       ?IsLocked@cIcon@@QAEHXZ    00578760 f i GlobalEventFunc.obj
 0002:00040770       ?IsPushed@cPushupButton@@QAEHXZ 00578770 f i GlobalEventFunc.obj
 0002:00040780       ?GetComboText@cComboBox@@QBEPBDXZ 00578780 f i GlobalEventFunc.obj
 0002:00040790       ?GetCurSelectedIdx@cComboBox@@QAEHXZ 00578790 f i GlobalEventFunc.obj
 0002:000407a0       ?GetCurSelectedPlayerNum@CCharSelect@@QAEHXZ 005787a0 f i GlobalEventFunc.obj
 0002:000407b0       ?GetCharacterDialog@CGameIn@@QAEPAVCCharacterDialog@@XZ 005787b0 f i GlobalEventFunc.obj
 0002:000407c0       ?GetSkillTreeDlg@CGameIn@@QAEPAVcSkillTreeDlg@@XZ 005787c0 f i GlobalEventFunc.obj
 0002:000407d0       ?GetExchangeDialog@CGameIn@@QAEPAVCExchangeDialog@@XZ 005787d0 f i GlobalEventFunc.obj
 0002:000407e0       ?GetDealDialog@CGameIn@@QAEPAVCDealDialog@@XZ 005787e0 f i GlobalEventFunc.obj
 0002:000407f0       ?GetStallKindSelectDialog@CGameIn@@QAEPAVCStallKindSelectDlg@@XZ 005787f0 f i GlobalEventFunc.obj
 0002:00040800       ?GetStreetBuyStallDialog@CGameIn@@QAEPAVCStreetBuyStall@@XZ 00578800 f i GlobalEventFunc.obj
 0002:00040810       ?GetBuyRegDialog@CGameIn@@QAEPAVCBuyRegDialog@@XZ 00578810 f i GlobalEventFunc.obj
 0002:00040820       ?GetNpcScriptDialog@CGameIn@@QAEPAVcNpcScriptDialog@@XZ 00578820 f i GlobalEventFunc.obj
 0002:00040830       ?GetMoneyDialog@CGameIn@@QAEPAVCMoneyDlg@@XZ 00578830 f i GlobalEventFunc.obj
 0002:00040840       ?GetQuickDlg@CGameIn@@QAEPAVcQuickDlg@@XZ 00578840 f i GlobalEventFunc.obj
 0002:00040850       ?GetOptionDialog@CGameIn@@QAEPAVCOptionDialog@@XZ 00578850 f i GlobalEventFunc.obj
 0002:00040860       ?GetExitDialog@CGameIn@@QAEPAVCExitDialog@@XZ 00578860 f i GlobalEventFunc.obj
 0002:00040870       ?GetFarmBuyDlg@CGameIn@@QAEPAVCSHFarmBuyDlg@@XZ 00578870 f i GlobalEventFunc.obj
 0002:00040880       ?GetFarmUpgradeDlg@CGameIn@@QAEPAVCSHFarmUpgradeDlg@@XZ 00578880 f i GlobalEventFunc.obj
 0002:00040890       ?GetFarmManageDlg@CGameIn@@QAEPAVCSHFarmManageDlg@@XZ 00578890 f i GlobalEventFunc.obj
 0002:000408a0       ?GetDateZoneListDlg@CGameIn@@QAEPAVCSHDateZoneListDlg@@XZ 005788a0 f i GlobalEventFunc.obj
 0002:000408b0       ?GetChallengeZoneListDlg@CGameIn@@QAEPAVCSHChallengeZoneListDlg@@XZ 005788b0 f i GlobalEventFunc.obj
 0002:000408c0       ?GetChallengeZoneClearNo1Dlg@CGameIn@@QAEPAVCSHChallengeZoneClearNo1Dlg@@XZ 005788c0 f i GlobalEventFunc.obj
 0002:000408d0       ?GetCharStateDialog@CGameIn@@QAEPAVCCharStateDialog@@XZ 005788d0 f i GlobalEventFunc.obj
 0002:000408e0       ?GetMallNoticeDialog@CGameIn@@QAEPAVCMallNoticeDialog@@XZ 005788e0 f i GlobalEventFunc.obj
 0002:000408f0       ?GetGuageDlg@CGameIn@@QAEPAVCGuageDialog@@XZ 005788f0 f i GlobalEventFunc.obj
 0002:00040900       ?GetPartyDialog@CGameIn@@QAEPAVCPartyDialog@@XZ 00578900 f i GlobalEventFunc.obj
 0002:00040910       ?GetPartyCreateDialog@CGameIn@@QAEPAVCPartyCreateDlg@@XZ 00578910 f i GlobalEventFunc.obj
 0002:00040920       ?GetPartyInviteDialog@CGameIn@@QAEPAVCPartyInviteDlg@@XZ 00578920 f i GlobalEventFunc.obj
 0002:00040930       ?GetGuildDlg@CGameIn@@QAEPAVCGuildDialog@@XZ 00578930 f i GlobalEventFunc.obj
 0002:00040940       ?GetMiniMapDialog@CGameIn@@QAEPAVCMiniMapDlg@@XZ 00578940 f i GlobalEventFunc.obj
 0002:00040950       ?GetStorageDialog@CGameIn@@QAEPAVCStorageDialog@@XZ 00578950 f i GlobalEventFunc.obj
 0002:00040960       ?GetFriendDialog@CGameIn@@QAEPAVCFriendDialog@@XZ 00578960 f i GlobalEventFunc.obj
 0002:00040970       ?GetNoteDialog@CGameIn@@QAEPAVCNoteDialog@@XZ 00578970 f i GlobalEventFunc.obj
 0002:00040980       ?GetMiniNoteDialog@CGameIn@@QAEPAVCMiniNoteDialog@@XZ 00578980 f i GlobalEventFunc.obj
 0002:00040990       ?GetMiniFriendDialog@CGameIn@@QAEPAVCMiniFriendDialog@@XZ 00578990 f i GlobalEventFunc.obj
 0002:000409a0       ?GetReviveDialog@CGameIn@@QAEPAVCReviveDialog@@XZ 005789a0 f i GlobalEventFunc.obj
 0002:000409b0       ?GetWantNpcDialog@CGameIn@@QAEPAVCWantNpcDialog@@XZ 005789b0 f i GlobalEventFunc.obj
 0002:000409c0       ?GetWantRegistDialog@CGameIn@@QAEPAVCWantRegistDialog@@XZ 005789c0 f i GlobalEventFunc.obj
 0002:000409d0       ?GetQuestTotalDialog@CGameIn@@QAEPAVCQuestTotalDialog@@XZ 005789d0 f i GlobalEventFunc.obj
 0002:000409e0       ?GetQuestDialog@CGameIn@@QAEPAVCQuestDialog@@XZ 005789e0 f i GlobalEventFunc.obj
 0002:000409f0       ?GetQuestQuickViewDialog@CGameIn@@QAEPAVCQuestQuickViewDialog@@XZ 005789f0 f i GlobalEventFunc.obj
 0002:00040a00       ?GetBailDialog@CGameIn@@QAEPAVCBailDialog@@XZ 00578a00 f i GlobalEventFunc.obj
 0002:00040a10       ?GetMoveDialog@CGameIn@@QAEPAVCMoveDialog@@XZ 00578a10 f i GlobalEventFunc.obj
 0002:00040a20       ?GetPointSaveDialog@CGameIn@@QAEPAVCPointSaveDialog@@XZ 00578a20 f i GlobalEventFunc.obj
 0002:00040a30       ?GetGFWarDeclareDlg@CGameIn@@QAEPAVCGFWarDeclareDlg@@XZ 00578a30 f i GlobalEventFunc.obj
 0002:00040a40       ?GetGFWarResultDlg@CGameIn@@QAEPAVCGFWarResultDlg@@XZ 00578a40 f i GlobalEventFunc.obj
 0002:00040a50       ?GetGFWarInfoDlg@CGameIn@@QAEPAVCGFWarInfoDlg@@XZ 00578a50 f i GlobalEventFunc.obj
 0002:00040a60       ?GetGuildWarInfoDlg@CGameIn@@QAEPAVCGuildWarInfoDlg@@XZ 00578a60 f i GlobalEventFunc.obj
 0002:00040a70       ?GetShoutDlg@CGameIn@@QAEPAVCShoutDialog@@XZ 00578a70 f i GlobalEventFunc.obj
 0002:00040a80       ?GetFishingDlg@CGameIn@@QAEPAVCFishingDialog@@XZ 00578a80 f i GlobalEventFunc.obj
 0002:00040a90       ?GetFishingPointDlg@CGameIn@@QAEPAVCFishingPointDialog@@XZ 00578a90 f i GlobalEventFunc.obj
 0002:00040aa0       ?GetChaseDlg@CGameIn@@QAEPAVCChaseDialog@@XZ 00578aa0 f i GlobalEventFunc.obj
 0002:00040ab0       ?GetChaseinputDlg@CGameIn@@QAEPAVCChaseinputDialog@@XZ 00578ab0 f i GlobalEventFunc.obj
 0002:00040ac0       ?GetNameChangeDlg@CGameIn@@QAEPAVCNameChangeDialog@@XZ 00578ac0 f i GlobalEventFunc.obj
 0002:00040ad0       ?GetNameChangeNotifyDlg@CGameIn@@QAEPAVCNameChangeNotifyDlg@@XZ 00578ad0 f i GlobalEventFunc.obj
 0002:00040ae0       ?GetChattingDlg@CGameIn@@QAEPAVCChattingDlg@@XZ 00578ae0 f i GlobalEventFunc.obj
 0002:00040af0       ?GetMainSystemDlg@CGameIn@@QAEPAVCMainSystemDlg@@XZ 00578af0 f i GlobalEventFunc.obj
 0002:00040b00       ?GetGTRegistDlg@CGameIn@@QAEPAVCGTRegistDialog@@XZ 00578b00 f i GlobalEventFunc.obj
 0002:00040b10       ?GetGTRegistcancelDlg@CGameIn@@QAEPAVCGTRegistcancelDialog@@XZ 00578b10 f i GlobalEventFunc.obj
 0002:00040b20       ?GetGTStandingDlg@CGameIn@@QAEPAVCGTStandingDialog@@XZ 00578b20 f i GlobalEventFunc.obj
 0002:00040b30       ?GetGTBattleListDlg@CGameIn@@QAEPAVCGTBattleListDialog@@XZ 00578b30 f i GlobalEventFunc.obj
 0002:00040b40       ?GetSWTimeRegDlg@CGameIn@@QAEPAVCSWTimeRegDlg@@XZ 00578b40 f i GlobalEventFunc.obj
 0002:00040b50       ?GetSWProtectRegDlg@CGameIn@@QAEPAVCSWProtectRegDlg@@XZ 00578b50 f i GlobalEventFunc.obj
 0002:00040b60       ?GetSWInfoDlg@CGameIn@@QAEPAVCSWInfoDlg@@XZ 00578b60 f i GlobalEventFunc.obj
 0002:00040b70       ?GetSWProfitDlg@CGameIn@@QAEPAVCSWProfitDlg@@XZ 00578b70 f i GlobalEventFunc.obj
 0002:00040b80       ?GetSWEngraveDlg@CGameIn@@QAEPAVCSWEngraveDialog@@XZ 00578b80 f i GlobalEventFunc.obj
 0002:00040b90       ?GetSWStartTimeDlg@CGameIn@@QAEPAVCSWStartTimeDialog@@XZ 00578b90 f i GlobalEventFunc.obj
 0002:00040ba0       ?GetReinforceGuideDlg@CGameIn@@QAEPAVCReinforceGuideDialog@@XZ 00578ba0 f i GlobalEventFunc.obj
 0002:00040bb0       ?GetTipBrowserDlg@CGameIn@@QAEPAVCTipBrowserDlg@@XZ 00578bb0 f i GlobalEventFunc.obj
 0002:00040bc0       ?GetKeySettingTipDlg@CGameIn@@QAEPAVCKeySettingTipDlg@@XZ 00578bc0 f i GlobalEventFunc.obj
 0002:00040bd0       ?GetDateMatchingDlg@CGameIn@@QAEPAVCDateMatchingDlg@@XZ 00578bd0 f i GlobalEventFunc.obj
 0002:00040be0       ?GetFavorIconDlg@CGameIn@@QAEPAVCFavorIcon@@XZ 00578be0 f i GlobalEventFunc.obj
 0002:00040bf0       ?GetMatchMyInfoDlg@CGameIn@@QAEPAVCDateMatchingInfoDlg@@XZ 00578bf0 f i GlobalEventFunc.obj
 0002:00040c00       ?GetMatchRecordDlg@CGameIn@@QAEPAVCDateMatchingRecordDlg@@XZ 00578c00 f i GlobalEventFunc.obj
 0002:00040c10       ?GetFamilyDlg@CGameIn@@QAEPAVCFamilyDialog@@XZ 00578c10 f i GlobalEventFunc.obj
 0002:00040c20       ?GetFamilyMarkDlg@CGameIn@@QAEPAVCFamilyMarkDialog@@XZ 00578c20 f i GlobalEventFunc.obj
 0002:00040c30       ?GetFamilyNickNameDlg@CGameIn@@QAEPAVCFamilyNickNameDialog@@XZ 00578c30 f i GlobalEventFunc.obj
 0002:00040c40       ?GetFamilyRankDlg@CGameIn@@QAEPAVCFamilyRankDialog@@XZ 00578c40 f i GlobalEventFunc.obj
 0002:00040c50       ?GetFamilyWarehouseDlg@CGameIn@@QAEPAVCFamilyWarehouseDialog@@XZ 00578c50 f i GlobalEventFunc.obj
 0002:00040c60       ?GetFamilyJoinDialog@CGameIn@@QAEPAVCFamilyJoinDialog@@XZ 00578c60 f i GlobalEventFunc.obj
 0002:00040c70       ?GetPetStateDlg@CGameIn@@QAEPAVCPetStateDialog@@XZ 00578c70 f i GlobalEventFunc.obj
 0002:00040c80       ?GetPetResurrectionDlg@CGameIn@@QAEPAVCPetResurrectionDialog@@XZ 00578c80 f i GlobalEventFunc.obj
 0002:00040c90       ?GetAnimalDialog@CGameIn@@QAEPAVCAnimalDialog@@XZ 00578c90 f i GlobalEventFunc.obj
 0002:00040ca0       ?GetSkillTrainingDlg@CGameIn@@QAEPAVcSkillTrainingDlg@@XZ 00578ca0 f i GlobalEventFunc.obj
 0002:00040cb0       ?GetMapMoveDlg@CGameIn@@QAEPAVcMapMoveDialog@@XZ 00578cb0 f i GlobalEventFunc.obj
 0002:00040cc0       ?GetAutoNoteDlg@CGameIn@@QAEPAVCAutoNoteDlg@@XZ 00578cc0 f i GlobalEventFunc.obj
 0002:00040cd0       ?GetAutoAnswerDlg@CGameIn@@QAEPAVCAutoAnswerDlg@@XZ 00578cd0 f i GlobalEventFunc.obj
 0002:00040ce0       ?GetStoreSearchDlg@CGameIn@@QAEPAVCStoreSearchDlg@@XZ 00578ce0 f i GlobalEventFunc.obj
 0002:00040cf0       ?GetChatRoomMainDlg@CGameIn@@QAEPAVCChatRoomMainDlg@@XZ 00578cf0 f i GlobalEventFunc.obj
 0002:00040d00       ?GetChatRoomCreateDlg@CGameIn@@QAEPAVCChatRoomCreateDlg@@XZ 00578d00 f i GlobalEventFunc.obj
 0002:00040d10       ?GetChatRoomDlg@CGameIn@@QAEPAVCChatRoomDlg@@XZ 00578d10 f i GlobalEventFunc.obj
 0002:00040d20       ?GetChatRoomGuestListDlg@CGameIn@@QAEPAVCChatRoomGuestListDlg@@XZ 00578d20 f i GlobalEventFunc.obj
 0002:00040d30       ?GetChatRoomOptionDlg@CGameIn@@QAEPAVCChatRoomOptionDlg@@XZ 00578d30 f i GlobalEventFunc.obj
 0002:00040d40       ?GetChatRoomJoinDlg@CGameIn@@QAEPAVCChatRoomJoinDlg@@XZ 00578d40 f i GlobalEventFunc.obj
 0002:00040d50       ?GetBattleID@CObject@@QAEKXZ 00578d50 f i GlobalEventFunc.obj
 0002:00040d60       ?GetObjectKind@CObject@@QAEEXZ 00578d60 f i GlobalEventFunc.obj
 0002:00040d70       ?IsDied@CObject@@QAEHXZ    00578d70 f i GlobalEventFunc.obj
 0002:00040d80       ?GetDistAuthKey@CMainTitle@@QAEKXZ 00578d80 f i GlobalEventFunc.obj
 0002:00040d90       ?SetServerList@CMainTitle@@QAEXXZ 00578d90 f i GlobalEventFunc.obj
 0002:00040da0       ?GetServerListDialog@CMainTitle@@QAEPAVCServerListDialog@@XZ 00578da0 f i GlobalEventFunc.obj
 0002:00040db0       ?GetLoginKey@CMainTitle@@QBEABV?$basic_string@DU?$char_traits@D@std@@V?$allocator@D@2@@std@@XZ 00578db0 f i GlobalEventFunc.obj
 0002:00040dc0       ?GetLevel@CPlayer@@QBEGXZ  00578dc0 f i GlobalEventFunc.obj
 0002:00040dd0       ?GetGuildIdx@CPlayer@@QAEKXZ 00578dd0 f i GlobalEventFunc.obj
 0002:00040de0       ?GetGuildMemberRank@CPlayer@@QAEEXZ 00578de0 f i GlobalEventFunc.obj
 0002:00040df0       ?GetGuildUnionIdx@CPlayer@@QAEKXZ 00578df0 f i GlobalEventFunc.obj
 0002:00040e00       ?GetFamilyIdx@CPlayer@@QAEKXZ 00578e00 f i GlobalEventFunc.obj
 0002:00040e10       ?GetFamilyMemberRank@CPlayer@@QAEEXZ 00578e10 f i GlobalEventFunc.obj
 0002:00040e20       ?IsPKMode@CPlayer@@QAEHXZ  00578e20 f i GlobalEventFunc.obj
 0002:00040e30       ?GetMsgLength@TESTMSGID@@QAEHXZ 00578e30 f i GlobalEventFunc.obj
 0002:00040e50       ?Get@CSHGroupMember@@QAEPAUstINFO@1@XZ 00578e50 f i GlobalEventFunc.obj
 0002:00040e60       ?GetMember@CSHFamily@@QAEPAVCSHFamilyMember@@H@Z 00578e60 f i GlobalEventFunc.obj
 0002:00040e80       ?GetStorageNum@CHero@@QAEEXZ 00578e80 f i GlobalEventFunc.obj
 0002:00040e90       ?GetFamily@CHero@@QAEPAVCSHFamily@@XZ 00578e90 f i GlobalEventFunc.obj
 0002:00040ea0       ?GetNpcUniqueIdx@CNpc@@QAEGXZ 00578ea0 f i GlobalEventFunc.obj
 0002:00040eb0       ??0stTIME@@QAE@XZ          00578eb0 f i GlobalEventFunc.obj
 0002:00040ec0       ?SetTime@stTIME@@QAEXKKKKKK@Z 00578ec0 f i GlobalEventFunc.obj
 0002:00040f10       ?GetMasterID@CPartyManager@@QAEKXZ 00578f10 f i GlobalEventFunc.obj
 0002:00040f20       ?IsProcessing@CPartyManager@@QAEHXZ 00578f20 f i GlobalEventFunc.obj
 0002:00040f30       ?GetInputBox@CChattingDlg@@QAEPAVcEditBox@@XZ 00578f30 f i GlobalEventFunc.obj
 0002:00040f40       ?SetOpenMsgBox@CStreetStallManager@@QAEXH@Z 00578f40 f i GlobalEventFunc.obj
 0002:00040f50       ?GetCharMakeNewDlg@cCharMakeManager@@QAEPAVCCharMakeNewDlg@@XZ 00578f50 f i GlobalEventFunc.obj
 0002:00040f60       ?SetWaiting@CWantedManager@@QAEXH@Z 00578f60 f i GlobalEventFunc.obj
 0002:00040f70       ?SetMurdererID@CWantedManager@@QAEXK@Z 00578f70 f i GlobalEventFunc.obj
 0002:00040f80       ?SetViewTreeDlg@CCharacterDialog@@QAEXH@Z 00578f80 f i GlobalEventFunc.obj
 0002:00040fa0       ?Set_QuickSelectedItem@CInventoryExDialog@@QAEXPAVCItem@@@Z 00578fa0 f i GlobalEventFunc.obj
 0002:00040fb0       ?Get_QuickSelectedItem@CInventoryExDialog@@QAEPAVCItem@@XZ 00578fb0 f i GlobalEventFunc.obj
 0002:00040fc0       ?GetBuyRegInfo@CStreetBuyStall@@QAE?AU_BUYREGINFO@@G@Z 00578fc0 f i GlobalEventFunc.obj
 0002:00041000       ?GetCurSelectedItemNum@CStreetBuyStall@@QAEHXZ 00579000 f i GlobalEventFunc.obj
 0002:00041010       ?SetData@CStreetBuyStall@@QAEXPAX@Z 00579010 f i GlobalEventFunc.obj
 0002:00041020       ?GetSellItem@CStreetBuyStall@@QAEPAVCItem@@XZ 00579020 f i GlobalEventFunc.obj
 0002:00041030       ?DelSellItem@CStreetBuyStall@@QAEXXZ 00579030 f i GlobalEventFunc.obj
 0002:00041040       ?GetCurSelectedItemNum@CStreetStall@@QAEHXZ 00579040 f i GlobalEventFunc.obj
 0002:00041050       ?GetCheckDBIdx@CStreetStall@@QAEKXZ 00579050 f i GlobalEventFunc.obj
 0002:00041060       ?_Myptr@?$basic_string@DU?$char_traits@D@std@@V?$allocator@D@2@@std@@QBEPBDXZ 00579060 f i GlobalEventFunc.obj
 0002:00041080       ?IsShow@CDealDialog@@QAEHXZ 00579080 f i GlobalEventFunc.obj
 0002:00041090       ?GetNoteID@CMiniNoteDialog@@QAEKXZ 00579090 f i GlobalEventFunc.obj
 0002:000410a0       ?SetReadOnly@cTextArea@@QAEXH@Z 005790a0 f i GlobalEventFunc.obj
 0002:000410b0       ?GetMode@CNoteDialog@@QAEGXZ 005790b0 f i GlobalEventFunc.obj
 0002:000410c0       ?Set_ShowTutorial@COptionManager@@QAEXH@Z 005790c0 f i GlobalEventFunc.obj
 0002:000410d0       ?GetPrice@CStorageDialog@@QAEKH@Z 005790d0 f i GlobalEventFunc.obj
 0002:000410f0       ?GetSelectedQuestID@CQuestDialog@@QAEKXZ 005790f0 f i GlobalEventFunc.obj
 0002:00041100       ?GetSelectedMemberIdx@CFamilyDialog@@QAEHXZ 00579100 f i GlobalEventFunc.obj
 0002:00041110       ?GetEditBox@CFamilyNickNameDialog@@QAEPAVcEditBox@@XZ 00579110 f i GlobalEventFunc.obj
 0002:00041120       ?GetMapNum@CMHMap@@QAEGXZ  00579120 f i GlobalEventFunc.obj
 0002:00041130       ?GetParam@cMsgBox@@QAEKXZ  00579130 f i GlobalEventFunc.obj
 0002:00041140       ?GetHeroMove@CUserInput@@QAEPAVCHeroMove@@XZ 00579140 f i GlobalEventFunc.obj
 0002:00041150       ?IsExitWaiting@CExitManager@@QAEHXZ 00579150 f i GlobalEventFunc.obj
 0002:00041160       ?IsTownMove@CMoveDialog@@QAEHXZ 00579160 f i GlobalEventFunc.obj
 0002:00041170       ?SetItemToMapServer@CMoveDialog@@QAEXKKH@Z 00579170 f i GlobalEventFunc.obj
 0002:000411a0       ?SetDialogStatus@CPointSaveDialog@@QAEXH@Z 005791a0 f i GlobalEventFunc.obj
 0002:000411b0       ?GetSelectedListIdx@CGFWarInfoDlg@@QAEHXZ 005791b0 f i GlobalEventFunc.obj
 0002:000411c0       ?SetItemDBIdx@CNameChangeDialog@@QAEXK@Z 005791c0 f i GlobalEventFunc.obj
 0002:000411d0       ?GetRandomCheckBox@CPartyBtnDlg@@QAEPAVcCheckBox@@XZ 005791d0 f i GlobalEventFunc.obj
 0002:000411e0       ?GetDamageCheckBox@CPartyBtnDlg@@QAEPAVcCheckBox@@XZ 005791e0 f i GlobalEventFunc.obj
 0002:000411f0       ?GetSequenceCheckBox@CPartyBtnDlg@@QAEPAVcCheckBox@@XZ 005791f0 f i GlobalEventFunc.obj
 0002:00041200       ?GetSelectedBattle@CGTBattleListDialog@@QAEHXZ 00579200 f i GlobalEventFunc.obj
 0002:00041210       ?GetSelectedListIdx@CSWProtectRegDlg@@QAEHXZ 00579210 f i GlobalEventFunc.obj
 0002:00041220       ?GetHeroState@CGuageDialog@@QAEEXZ 00579220 f i GlobalEventFunc.obj
 0002:00041230       ?GetInterface@CMNStgPlayRoom@@SAPAVCMNPlayRoomDialog@@XZ 00579230 f i GlobalEventFunc.obj
 0002:00041240       ?GetInterface@CMNStgChannel@@SAPAVCMNChannelDialog@@XZ 00579240 f i GlobalEventFunc.obj
 0002:00041250       ?GetMNPlayerManager@CMurimNet@@QAEPAVCMNPlayerManager@@XZ 00579250 f i GlobalEventFunc.obj
 0002:00041260       ?GetMNHeroID@CMNPlayerManager@@QAEKXZ 00579260 f i GlobalEventFunc.obj
 0002:00041270       ?GetSelectedIndex@CServerListDialog@@QAEHXZ 00579270 f i GlobalEventFunc.obj
 0002:00041280       ?GetPushUpButton@CCharMakeNewDlg@@QAEPAVcPushupButton@@H@Z 00579280 f i GlobalEventFunc.obj
 0002:000412a0       ?GetLastNpc@cNpcScriptManager@@QAEPAVCNpc@@XZ 005792a0 f i GlobalEventFunc.obj
 0002:000412b0       ?GetGender@CIdentification@@QAEPAVcStatic@@XZ 005792b0 f i GlobalEventFunc.obj
 0002:000412c0       ?GetAge@CIdentification@@QAEPAVcEditBox@@XZ 005792c0 f i GlobalEventFunc.obj
 0002:000412d0       ?GetRegion@CIdentification@@QAEPAVcComboBox@@XZ 005792d0 f i GlobalEventFunc.obj
 0002:000412e0       ?GetRegistInfo@CIdentification@@QAEPAUstRegistInfo@CSHResidentRegistManager@@XZ 005792e0 f i GlobalEventFunc.obj
 0002:000412f0       ?GetIntroduce@CDateMatchingInfoDlg@@QAEPAVcTextArea@@XZ 005792f0 f i GlobalEventFunc.obj
 0002:00041300       ?GetPartnerListDlg@CDateMatchingDlg@@QAEPAVCDateMatchingPartnerList@@XZ 00579300 f i GlobalEventFunc.obj
 0002:00041310       ?GetPartnerTabBtn@CDateMatchingDlg@@QAEPAVcPushupButton@@XZ 00579310 f i GlobalEventFunc.obj
 0002:00041320       ?GetQuestDlg@CQuestTotalDialog@@QAEPAVCQuestDialog@@XZ 00579320 f i GlobalEventFunc.obj
 0002:00041330       ?GetFarmZone@CSHFarmUpgradeDlg@@QAEHXZ 00579330 f i GlobalEventFunc.obj
 0002:00041340       ?GetFarmID@CSHFarmUpgradeDlg@@QAEHXZ 00579340 f i GlobalEventFunc.obj
 0002:00041350       ?GetFarmUpgradeKind@CSHFarmUpgradeDlg@@QAEHXZ 00579350 f i GlobalEventFunc.obj
 0002:00041360       ?Set_ActiveTutorial@cTutorialManager@@QAEXH@Z 00579360 f i GlobalEventFunc.obj
 0002:00041370       ?Get_TutorialBtnDlg@cTutorialManager@@QAEPAVcTutorialBtnDlg@@XZ 00579370 f i GlobalEventFunc.obj
 0002:00041380       ?GetNumberStr@cNumberPadDialog@@QAEPADXZ 00579380 f i GlobalEventFunc.obj
 0002:00041390       ?GetMyRoomOwnerIdx@CChatRoomMgr@@QAEKXZ 00579390 f i GlobalEventFunc.obj
 0002:000413a0       ?GetCodeBox@CChatRoomCreateDlg@@QAEPAVcEditBox@@XZ 005793a0 f i GlobalEventFunc.obj
 0002:000413b0       ?IsPushedStartBtn@CFishingDialog@@QAEHXZ 005793b0 f i GlobalEventFunc.obj
 0002:000413d0       ?FUNCSEARCH@@YAHPAD@Z      005793d0 f   GlobalEventFunc.obj
 0002:00041460       ?CS_BtnFuncChangeServer@@YAXJPAXK@Z 00579460 f   GlobalEventFunc.obj
 0002:00041490       ?CS_BtnFuncLogOut@@YAXJPAXK@Z 00579490 f   GlobalEventFunc.obj
 0002:000414b0       ?CS_BtnFuncCreateChar@@YAXJPAXK@Z 005794b0 f   GlobalEventFunc.obj
 0002:00041500       ?CS_BtnFuncFirstChar@@YAXJPAXK@Z 00579500 f   GlobalEventFunc.obj
 0002:00041540       ?CS_BtnFuncSecondChar@@YAXJPAXK@Z 00579540 f   GlobalEventFunc.obj
 0002:00041580       ?CS_BtnFuncThirdChar@@YAXJPAXK@Z 00579580 f   GlobalEventFunc.obj
 0002:000415c0       ?CS_BtnFuncFourthchar@@YAXJPAXK@Z 005795c0 f   GlobalEventFunc.obj
 0002:00041600       ?CS_BtnFuncFifthchar@@YAXJPAXK@Z 00579600 f   GlobalEventFunc.obj
 0002:00041640       ?CS_BtnFuncEnter@@YAXJPAXK@Z 00579640 f   GlobalEventFunc.obj
 0002:00041680       ?CS_FUNC_OkISee@@YAXJPAXK@Z 00579680 f   GlobalEventFunc.obj
 0002:000416a0       ?CS_BtnFuncDeleteChar@@YAXJPAXK@Z 005796a0 f   GlobalEventFunc.obj
 0002:00041780       ?CTF_CBFunc@@YAXJPAXK@Z    00579780 f   GlobalEventFunc.obj
 0002:000417b0       ??0CHARACTERMAKEINFO@@QAE@XZ 005797b0 f i GlobalEventFunc.obj
 0002:000417c0       ?CM_CharCancelBtnFunc@@YAXJPAXK@Z 005797c0 f   GlobalEventFunc.obj
 0002:00041800       ??0MSG_LOGIN_SYN@@QAE@XZ   00579800 f i GlobalEventFunc.obj
 0002:00041820       ??0MSG_LOGIN_DYNAMIC_SYN@@QAE@XZ 00579820 f i GlobalEventFunc.obj
 0002:00041830       ?MT_ExitBtnFunc@@YAXJPAXK@Z 00579830 f   GlobalEventFunc.obj
 0002:000418d0       ?MI_CharBtnFunc@@YAXJPAXK@Z 005798d0 f   GlobalEventFunc.obj
 0002:00041920       ?MI_ExchangeBtnFunc@@YAXJPAXK@Z 00579920 f   GlobalEventFunc.obj
 0002:000419c0       ?MI_InventoryBtnFunc@@YAXJPAXK@Z 005799c0 f   GlobalEventFunc.obj
 0002:00041a00       ?MI_SkillBtnFunc@@YAXJPAXK@Z 00579a00 f   GlobalEventFunc.obj
 0002:00041a40       ?IN_DlgFunc@@YAXJPAXK@Z    00579a40 f   GlobalEventFunc.obj
 0002:00041a90       ?MGI_DlgFunc@@YAXJPAXK@Z   00579a90 f   GlobalEventFunc.obj
 0002:00041aa0       ?MGI_SkillDlgFunc@@YAXJPAXK@Z 00579aa0 f   GlobalEventFunc.obj
 0002:00041ab0       ?STD_SkillTreeDlgFunc@@YAXJPAXK@Z 00579ab0 f   GlobalEventFunc.obj
 0002:00041af0       ?MGI_SuryunDlgFunc@@YAXJPAXK@Z 00579af0 f   GlobalEventFunc.obj
 0002:00041b00       ?CI_DlgFunc@@YAXJPAXK@Z    00579b00 f   GlobalEventFunc.obj
 0002:00041b70       ?CI_AddExpPoint@@YAXJPAXK@Z 00579b70 f   GlobalEventFunc.obj
 0002:00041c20       ?CI_ActionEventFun@@YAXJPAXK@Z 00579c20 f   GlobalEventFunc.obj
 0002:00041c50       ?PA_DlgFunc@@YAXJPAXK@Z    00579c50 f   GlobalEventFunc.obj
 0002:00041c60       ?MI_ChatEditBoxFunc@@YAXJPAXK@Z 00579c60 f   GlobalEventFunc.obj
 0002:00041c70       ?IN_CreateStreetStallFunc@@YAXJPAXK@Z 00579c70 f   GlobalEventFunc.obj
 0002:00041c80       ?SSI_TitleEditBoxFunc@@YAXJPAXK@Z 00579c80 f   GlobalEventFunc.obj
 0002:00041cb0       ?SSI_MoneyEditBoxFunc@@YAXJPAXK@Z 00579cb0 f   GlobalEventFunc.obj
 0002:00041cc0       ?SSI_DlgFunc@@YAXJPAXK@Z   00579cc0 f   GlobalEventFunc.obj
 0002:00041cf0       ?SSI_BuyBtnFunc@@YAXJPAXK@Z 00579cf0 f   GlobalEventFunc.obj
 0002:00041d70       ?SSI_RegistBtnFunc@@YAXJPAXK@Z 00579d70 f   GlobalEventFunc.obj
 0002:00041d80       ?SSI_EditBtnFunc@@YAXJPAXK@Z 00579d80 f   GlobalEventFunc.obj
 0002:00041dd0       ?SO_DlgFunc@@YAXJPAXK@Z    00579dd0 f   GlobalEventFunc.obj
 0002:00041e00       ?BS_TitleEditBoxFunc@@YAXJPAXK@Z 00579e00 f   GlobalEventFunc.obj
 0002:00041e30       ?BS_MoneyEditBoxFunc@@YAXJPAXK@Z 00579e30 f   GlobalEventFunc.obj
 0002:00041e40       ?BS_DlgFunc@@YAXJPAXK@Z    00579e40 f   GlobalEventFunc.obj
 0002:00041e70       ?BS_SellBtnFunc@@YAXJPAXK@Z 00579e70 f   GlobalEventFunc.obj
 0002:00041eb0       ?BS_REGBtnFunc@@YAXJPAXK@Z 00579eb0 f   GlobalEventFunc.obj
 0002:00041ec0       ?BS_SPFunc@@YAXJPAXK@Z     00579ec0 f   GlobalEventFunc.obj
 0002:00041ed0       ?BRS_DlgFunc@@YAXJPAXK@Z   00579ed0 f   GlobalEventFunc.obj
 0002:00041f00       ?BRS_CloseFunc@@YAXJPAXK@Z 00579f00 f   GlobalEventFunc.obj
 0002:00041f50       ?BRS_DeleteFunc@@YAXJPAXK@Z 00579f50 f   GlobalEventFunc.obj
 0002:00041fa0       ?BRS_TypeListFunc@@YAXJPAXK@Z 00579fa0 f   GlobalEventFunc.obj
 0002:00041fb0       ?BRS_ItemListFunc@@YAXJPAXK@Z 00579fb0 f   GlobalEventFunc.obj
 0002:00041fc0       ?BRS_ClassListFunc@@YAXJPAXK@Z 00579fc0 f   GlobalEventFunc.obj
 0002:00041fd0       ?BRS_REGBtnFunc@@YAXJPAXK@Z 00579fd0 f   GlobalEventFunc.obj
 0002:00042050       ?BRS_VolumeEditFunc@@YAXJPAXK@Z 0057a050 f   GlobalEventFunc.obj
 0002:00042060       ?BRS_MoneyEditFunc@@YAXJPAXK@Z 0057a060 f   GlobalEventFunc.obj
 0002:00042070       ?NSI_DlgFunc@@YAXJPAXK@Z   0057a070 f   GlobalEventFunc.obj
 0002:00042080       ?NSI_HyperLinkFunc@@YAXJPAXK@Z 0057a080 f   GlobalEventFunc.obj
 0002:00042100       ?CMI_MoneyOkFunc@@YAXJPAXK@Z 0057a100 f   GlobalEventFunc.obj
 0002:00042110       ?CMI_MoneySpinFunc@@YAXJPAXK@Z 0057a110 f   GlobalEventFunc.obj
 0002:00042120       ?CMI_AlertFunc@@YAXJPAXK@Z 0057a120 f   GlobalEventFunc.obj
 0002:00042130       ?DE_DlgFunc@@YAXJPAXK@Z    0057a130 f   GlobalEventFunc.obj
 0002:000421a0       ?DE_BuyItemFunc@@YAXJPAXK@Z 0057a1a0 f   GlobalEventFunc.obj
 0002:000421b0       ?DE_SellItemFunc@@YAXJPAXK@Z 0057a1b0 f   GlobalEventFunc.obj
 0002:000421c0       ?DE_CancelFunc@@YAXJPAXK@Z 0057a1c0 f   GlobalEventFunc.obj
 0002:000421e0       ?DE_CloseHideBtn@@YAXJPAXK@Z 0057a1e0 f   GlobalEventFunc.obj
 0002:000421f0       ?PA_BtnFunc@@YAXJPAXK@Z    0057a1f0 f   GlobalEventFunc.obj
 0002:00042a80       ?PartyMemberFunc@@YAXJPAXK@Z 0057aa80 f   GlobalEventFunc.obj
 0002:00042ab0       ?QI_QuickDlgFunc@@YAXJPAXK@Z 0057aab0 f   GlobalEventFunc.obj
 0002:00042ae0       ?PYO_DlgBtnFunc@@YAXJPAXK@Z 0057aae0 f   GlobalEventFunc.obj
 0002:00042dc0       ?Friend_DlgBtnFunc@@YAXJPAXK@Z 0057adc0 f   GlobalEventFunc.obj
 0002:00043220       ?Shout_DlgBtnFunc@@YAXJPAXK@Z 0057b220 f   GlobalEventFunc.obj
 0002:00043270       ?Fishing_DlgBtnFunc@@YAXJPAXK@Z 0057b270 f   GlobalEventFunc.obj
 0002:00043370       ?CR_DlgBtnFunc@@YAXJPAXK@Z 0057b370 f   GlobalEventFunc.obj
 0002:000434f0       ?COI_DlgFunc@@YAXJPAXK@Z   0057b4f0 f   GlobalEventFunc.obj
 0002:00043500       ?ITEM_DlgFunc@@YAXJPAXK@Z  0057b500 f   GlobalEventFunc.obj
 0002:00043530       ?OTI_DlgFunc@@YAXJPAXK@Z   0057b530 f   GlobalEventFunc.obj
 0002:00043560       ?EXT_DlgFunc@@YAXJPAXK@Z   0057b560 f   GlobalEventFunc.obj
 0002:000436b0       ?MONSTERMETER_DlgFunc@@YAXJPAXK@Z 0057b6b0 f   GlobalEventFunc.obj
 0002:000436c0       ?XCI_DlgFunc@@YAXJPAXK@Z   0057b6c0 f   GlobalEventFunc.obj
 0002:000436f0       ?CSS_DlgFunc@@YAXJPAXK@Z   0057b6f0 f   GlobalEventFunc.obj
 0002:00043720       ?MSI_MenuSlotDlgFunc@@YAXJPAXK@Z 0057b720 f   GlobalEventFunc.obj
 0002:00043750       ?PLI_DlgFunc@@YAXJPAXK@Z   0057b750 f   GlobalEventFunc.obj
 0002:00043780       ?CNA_BtnOkFunc@@YAXJPAXK@Z 0057b780 f   GlobalEventFunc.obj
 0002:000437a0       ?DIS_DlgFunc@@YAXJPAXK@Z   0057b7a0 f   GlobalEventFunc.obj
 0002:00043800       ?GAMEIN_ChatFunc@@YAXJPAXK@Z 0057b800 f   GlobalEventFunc.obj
 0002:00043810       ?MNPRI_DlgFunc@@YAXJPAXK@Z 0057b810 f   GlobalEventFunc.obj
 0002:00043840       ??0TESTMSGID@@QAE@XZ       0057b840 f i GlobalEventFunc.obj
 0002:00043850       ?MNCNL_DlgFunc@@YAXJPAXK@Z 0057b850 f   GlobalEventFunc.obj
 0002:00043880       ?MNCNL_ChatFunc@@YAXJPAXK@Z 0057b880 f   GlobalEventFunc.obj
 0002:00043960       ?DIVIDEBOX_Func@@YAXJPAXK@Z 0057b960 f   GlobalEventFunc.obj
 0002:00043980       ?MNM_DlgFunc@@YAXJPAXK@Z   0057b980 f   GlobalEventFunc.obj
 0002:000439d0       ?ITD_DlgFunc@@YAXJPAXK@Z   0057b9d0 f   GlobalEventFunc.obj
 0002:00043a30       ?ITMD_DlgFunc@@YAXJPAXK@Z  0057ba30 f   GlobalEventFunc.obj
 0002:00043a90       ?ITR_DlgFunc@@YAXJPAXK@Z   0057ba90 f   GlobalEventFunc.obj
 0002:00043af0       ?ApplyOptionDialogFunc@@YAXJPAXK@Z 0057baf0 f   GlobalEventFunc.obj
 0002:00043b50       ?CHA_DlgBtnFunc@@YAXJPAXK@Z 0057bb50 f   GlobalEventFunc.obj
 0002:00043b90       ?SL_DlgBtnFunc@@YAXJPAXK@Z 0057bb90 f   GlobalEventFunc.obj
 0002:00043be0       ?MI_DlgFunc@@YAXJPAXK@Z    0057bbe0 f   GlobalEventFunc.obj
 0002:00043bf0       ??0SEND_WANTNPCLIST@@QAE@XZ 0057bbf0 f i GlobalEventFunc.obj
 0002:00043c00       ?WANTREG_DlgFunc@@YAXJPAXK@Z 0057bc00 f   GlobalEventFunc.obj
 0002:00043d00       ?QUE_QuestDlgFunc@@YAXJPAXK@Z 0057bd00 f   GlobalEventFunc.obj
 0002:00043e80       ?QUE_JournalDlgFunc@@YAXJPAXK@Z 0057be80 f   GlobalEventFunc.obj
 0002:00043e90       ?BAIL_BailDlgFunc@@YAXJPAXK@Z 0057be90 f   GlobalEventFunc.obj
 0002:00043ec0       ?MP_RegistDlgFunc@@YAXJPAXK@Z 0057bec0 f   GlobalEventFunc.obj
 0002:00043ed0       ?GDRANK_DlgFunc@@YAXJPAXK@Z 0057bed0 f   GlobalEventFunc.obj
 0002:00043f30       ?GDLEVEL_DlgFunc@@YAXJPAXK@Z 0057bf30 f   GlobalEventFunc.obj
 0002:00043f90       ?GDMARK_DlgFunc@@YAXJPAXK@Z 0057bf90 f   GlobalEventFunc.obj
 0002:00043ff0       ?GD_WarehouseFunc@@YAXJPAXK@Z 0057bff0 f   GlobalEventFunc.obj
 0002:00044050       ?GDCREATE_DlgFunc@@YAXJPAXK@Z 0057c050 f   GlobalEventFunc.obj
 0002:000440b0       ?GDINVITE_DlgFunc@@YAXJPAXK@Z 0057c0b0 f   GlobalEventFunc.obj
 0002:00044110       ?GDWHRANK_DlgFunc@@YAXJPAXK@Z 0057c110 f   GlobalEventFunc.obj
 0002:00044170       ?GDREVIVAL_DlgFunc@@YAXJPAXK@Z 0057c170 f   GlobalEventFunc.obj
 0002:000441d0       ?GDUnion_DlgFunc@@YAXJPAXK@Z 0057c1d0 f   GlobalEventFunc.obj
 0002:00044230       ?GDNICK_DlgFunc@@YAXJPAXK@Z 0057c230 f   GlobalEventFunc.obj
 0002:00044290       ?GD_DlgFunc@@YAXJPAXK@Z    0057c290 f   GlobalEventFunc.obj
 0002:000442f0       ?FD_DlgFunc@@YAXJPAXK@Z    0057c2f0 f   GlobalEventFunc.obj
 0002:000448a0       ?FARM_BUY_DlgFunc@@YAXJPAXK@Z 0057c8a0 f   GlobalEventFunc.obj
 0002:000448d0       ?FARM_UPGRADE_DlgFunc@@YAXJPAXK@Z 0057c8d0 f   GlobalEventFunc.obj
 0002:00044930       ?FARM_MANAGE_DlgFunc@@YAXJPAXK@Z 0057c930 f   GlobalEventFunc.obj
 0002:00044960       ?DATE_ZONE_LIST_DlgFunc@@YAXJPAXK@Z 0057c960 f   GlobalEventFunc.obj
 0002:00044990       ?CHALLENGE_ZONE_LIST_DlgFunc@@YAXJPAXK@Z 0057c990 f   GlobalEventFunc.obj
 0002:000449c0       ?CHALLENGE_ZONE_CLEARNO1_DlgFunc@@YAXJPAXK@Z 0057c9c0 f   GlobalEventFunc.obj
 0002:000449f0       ?ITMALL_DlgBtnFunc@@YAXJPAXK@Z 0057c9f0 f   GlobalEventFunc.obj
 0002:00044a00       ?SA_DlgBtnFunc@@YAXJPAXK@Z 0057ca00 f   GlobalEventFunc.obj
 0002:00044b80       ?GFW_DlgFunc@@YAXJPAXK@Z   0057cb80 f   GlobalEventFunc.obj
 0002:00044f60       ?SK_DlgBtnFunc@@YAXJPAXK@Z 0057cf60 f   GlobalEventFunc.obj
 0002:00044f70       ?PW_DlgFunc@@YAXJPAXK@Z    0057cf70 f   GlobalEventFunc.obj
 0002:00045030       ?CHS_DlgFunc@@YAXJPAXK@Z   0057d030 f   GlobalEventFunc.obj
 0002:00045080       ?CHAN_DlgFunc@@YAXJPAXK@Z  0057d080 f   GlobalEventFunc.obj
 0002:00045140       ?GDT_DlgFunc@@YAXJPAXK@Z   0057d140 f   GlobalEventFunc.obj
 0002:000453a0       ?SW_DlgFunc@@YAXJPAXK@Z    0057d3a0 f   GlobalEventFunc.obj
 0002:00045950       ?IT_DlgFunc@@YAXJPAXK@Z    0057d950 f   GlobalEventFunc.obj
 0002:00045980       ?CJOB_DlgFunc@@YAXJPAXK@Z  0057d980 f   GlobalEventFunc.obj
 0002:000459b0       ?CG_DlgFunc@@YAXJPAXK@Z    0057d9b0 f   GlobalEventFunc.obj
 0002:000459e0       ?RFGUIDE_DLGFunc@@YAXJPAXK@Z 0057d9e0 f   GlobalEventFunc.obj
 0002:00045a10       ?TB_DlgFunc@@YAXJPAXK@Z    0057da10 f   GlobalEventFunc.obj
 0002:00045a40       ?TB_STATE_DlgFunc@@YAXJPAXK@Z 0057da40 f   GlobalEventFunc.obj
 0002:00045a70       ?GN_DlgBtnFunc@@YAXJPAXK@Z 0057da70 f   GlobalEventFunc.obj
 0002:00045ad0       ?AN_DlgBtnFunc@@YAXJPAXK@Z 0057dad0 f   GlobalEventFunc.obj
 0002:00045b30       ?GNotice_DlgBtnFunc@@YAXJPAXK@Z 0057db30 f   GlobalEventFunc.obj
 0002:00045b90       ?GuildPlusTime_DlgFunc@@YAXJPAXK@Z 0057db90 f   GlobalEventFunc.obj
 0002:00045bf0       ?Chatting_DlgFunc@@YAXJPAXK@Z 0057dbf0 f   GlobalEventFunc.obj
 0002:00045c00       ?CM_CMNCbFunc@@YAXJPAXK@Z  0057dc00 f   GlobalEventFunc.obj
 0002:00045c30       ?MDS_CBFunc@@YAXJPAXK@Z    0057dc30 f   GlobalEventFunc.obj
 0002:00045c60       ?CharMain_BtnFunc@@YAXJPAXK@Z 0057dc60 f   GlobalEventFunc.obj
 0002:00045c90       ?JO_DlgFunc@@YAXJPAXK@Z    0057dc90 f   GlobalEventFunc.obj
 0002:00045cf0       ?DMD_DateMatchingDlgFunc@@YAXJPAXK@Z 0057dcf0 f   GlobalEventFunc.obj
 0002:00045d20       ?DMD_PartnerDlgFunc@@YAXJPAXK@Z 0057dd20 f   GlobalEventFunc.obj
 0002:00045d50       ?DMD_IDT_Func@@YAXJPAXK@Z  0057dd50 f   GlobalEventFunc.obj
 0002:00045d80       ?DMD_FID_Func@@YAXJPAXK@Z  0057dd80 f   GlobalEventFunc.obj
 0002:00045db0       ?DMD_MID_Func@@YAXJPAXK@Z  0057ddb0 f   GlobalEventFunc.obj
 0002:00045e80       ?DMD_PID_Func@@YAXJPAXK@Z  0057de80 f   GlobalEventFunc.obj
 0002:00045e90       ?DMD_RID_Func@@YAXJPAXK@Z  0057de90 f   GlobalEventFunc.obj
 0002:00045ec0       ?KS_Func@@YAXJPAXK@Z       0057dec0 f   GlobalEventFunc.obj
 0002:00045ef0       ?SkillTrainDlgFunc@@YAXJPAXK@Z 0057def0 f   GlobalEventFunc.obj
 0002:00045f20       ?FD_GuildDlg@@YAXJPAXK@Z   0057df20 f   GlobalEventFunc.obj
 0002:00045f50       ?PROGRESS_DlgFunc@@YAXJPAXK@Z 0057df50 f   GlobalEventFunc.obj
 0002:00045fb0       ?TTR_DlgFunc@@YAXJPAXK@Z   0057dfb0 f   GlobalEventFunc.obj
 0002:00046010       ?TTR_BTNDlgFunc@@YAXJPAXK@Z 0057e010 f   GlobalEventFunc.obj
 0002:00046070       ?ITM_BTNDlgFunc@@YAXJPAXK@Z 0057e070 f   GlobalEventFunc.obj
 0002:000460d0       ?HD_DlgFunc@@YAXJPAXK@Z    0057e0d0 f   GlobalEventFunc.obj
 0002:000461b0       ?MapMove_DlgFunc@@YAXJPAXK@Z 0057e1b0 f   GlobalEventFunc.obj
 0002:00046210       ?Change_Name_Func@@YAXJPAXK@Z 0057e210 f   GlobalEventFunc.obj
 0002:00046270       ?NumberPad_DlgFunc@@YAXJPAXK@Z 0057e270 f   GlobalEventFunc.obj
 0002:000462d0       ?AutoNoteDlg_Func@@YAXJPAXK@Z 0057e2d0 f   GlobalEventFunc.obj
 0002:00046300       ?AutoAnswerDlg_Func@@YAXJPAXK@Z 0057e300 f   GlobalEventFunc.obj
 0002:00046330       ?StoreSearchDlg_Func@@YAXJPAXK@Z 0057e330 f   GlobalEventFunc.obj
 0002:00046360       ?BodyChangeFunc@@YAXJPAXK@Z 0057e360 f   GlobalEventFunc.obj
 0002:000463a0       ?ChatRoomMainDlg_Func@@YAXJPAXK@Z 0057e3a0 f   GlobalEventFunc.obj
 0002:00046440       ?ChatRoomCreateDlg_Func@@YAXJPAXK@Z 0057e440 f   GlobalEventFunc.obj
 0002:000464e0       ?ChatRoomDlg_Func@@YAXJPAXK@Z 0057e4e0 f   GlobalEventFunc.obj
 0002:00046580       ?ChatRoomGuestListDlg_Func@@YAXJPAXK@Z 0057e580 f   GlobalEventFunc.obj
 0002:00046620       ?ChatRoomJoinDlg_Func@@YAXJPAXK@Z 0057e620 f   GlobalEventFunc.obj
 0002:000466c0       ?ChatRoomOptionDlg_Func@@YAXJPAXK@Z 0057e6c0 f   GlobalEventFunc.obj
 0002:00046760       ?Animal_DlgBtnFunc@@YAXJPAXK@Z 0057e760 f   GlobalEventFunc.obj
 0002:00046800       ?PET_STATUS_DLG_FUNC@@YAXJPAXK@Z 0057e800 f   GlobalEventFunc.obj
 0002:00046830       ?PET_RES_DLG_FUNC@@YAXJPAXK@Z 0057e830 f   GlobalEventFunc.obj
 0002:00046860       ?GetInstance@CNoteManager@@SAPAV1@XZ 0057e860 f i GlobalEventFunc.obj
 0002:000468e0       ?c_str@?$basic_string@DU?$char_traits@D@std@@V?$allocator@D@2@@std@@QBEPBDXZ 0057e8e0 f i GlobalEventFunc.obj
 0002:00046900       ?GetInstance@CSiegeWarMgr@@SAPAV1@XZ 0057e900 f i GlobalEventFunc.obj
 0002:00046980       ?CM_CharMakeBtnFunc@@YAXJPAXK@Z 0057e980 f   GlobalEventFunc.obj
 0002:00046b30       ?MT_LogInOkBtnFunc@@YAXJPAXK@Z 0057eb30 f   GlobalEventFunc.obj
 0002:00047020       ?MT_DynamicBtnFunc@@YAXJPAXK@Z 0057f020 f   GlobalEventFunc.obj
 0002:000472e0       ?MT_DynamicEditReturnFunc@@YAXJPAXK@Z 0057f2e0 f   GlobalEventFunc.obj
 0002:00047310       ?MT_EditReturnFunc@@YAXJPAXK@Z 0057f310 f   GlobalEventFunc.obj
 0002:00047390       ?Note_DlgBtnFunc@@YAXJPAXK@Z 0057f390 f   GlobalEventFunc.obj
 0002:000477d0       ?MNPRI_ChatFunc@@YAXJPAXK@Z 0057f7d0 f   GlobalEventFunc.obj
 0002:000478b0       ?MessageBox_Func@@YAXJPAXK@Z 0057f8b0 f   GlobalEventFunc.obj
 0002:0004ab90       ?WANTNPC_DlgFunc@@YAXJPAXK@Z 00582b90 f   GlobalEventFunc.obj
 0002:0004b110       ?IDSEARCH@@YAHPAD@Z        00583110 f   WindowIDEnum.obj
 0002:0004b190       ?GetEventNotifyDialog@CGameIn@@QAEPAVCEventNotifyDialog@@XZ 00583190 f i GameIn.obj
 0002:0004b1a0       ??0TARGETSET@@QAE@XZ       005831a0 f i GameIn.obj
 0002:0004b1b0       ?GetUserLevel@CMainGame@@QAEHXZ 005831b0 f i GameIn.obj
 0002:0004b1c0       ?GetNpcKind@CNpc@@QAEGXZ   005831c0 f i GameIn.obj
 0002:0004b1d0       ?SetStorageNum@CHero@@QAEXE@Z 005831d0 f i GameIn.obj
 0002:0004b1e0       ?GetMonsterKind@CMonster@@QAEGXZ 005831e0 f i GameIn.obj
 0002:0004b1f0       ?SetOpenningStart@CBossMonster@@QAEXXZ 005831f0 f i GameIn.obj
 0002:0004b200       ?GetAddableInfoEntity@AddableInfoEntity@@QAEGXZ 00583200 f i GameIn.obj
 0002:0004b210       ??0CAddableInfoIterator@@QAE@PAVCAddableInfoList@@@Z 00583210 f i GameIn.obj
 0002:0004b230       ?GetInfoKind@CAddableInfoIterator@@QAEEXZ 00583230 f i GameIn.obj
 0002:0004b250       ?GetInfoData@CAddableInfoIterator@@QAEXPAX@Z 00583250 f i GameIn.obj
 0002:0004b280       ?ShiftToNextData@CAddableInfoIterator@@QAEXXZ 00583280 f i GameIn.obj
 0002:0004b2b0       ?GetTargetPosition@BASEMOVE_INFO@@QAEPAUVECTOR3@@E@Z 005832b0 f i GameIn.obj
 0002:0004b2d0       ?SetChattingDlg@CChatManager@@QAEXPAVCChattingDlg@@@Z 005832d0 f i GameIn.obj
 0002:0004b2e0       ?SetSelectedNpc@cNpcScriptManager@@QAEXPAVCNpc@@@Z 005832e0 f i GameIn.obj
 0002:0004b2f0       ?GetSelectedNpc@cNpcScriptManager@@QAEPAVCNpc@@XZ 005832f0 f i GameIn.obj
 0002:0004b300       ?SetLastNpc@cNpcScriptManager@@QAEXPAVCNpc@@@Z 00583300 f i GameIn.obj
 0002:0004b310       ?SetInputFocus@CUserInput@@QAEXH@Z 00583310 f i GameIn.obj
 0002:0004b320       ?SetVillage@CMHMap@@QAEXH@Z 00583320 f i GameIn.obj
 0002:0004b330       ?SetParam@cMsgBox@@QAEXK@Z 00583330 f i GameIn.obj
 0002:0004b340       ?SetPKAllow@CPKManager@@QAEXH@Z 00583340 f i GameIn.obj
 0002:0004b350       ?IsPKAllow@CPKManager@@QAEHXZ 00583350 f i GameIn.obj
 0002:0004b360       ?IsEventNotifyUse@CGMNotifyManager@@QAEHXZ 00583360 f i GameIn.obj
 0002:0004b370       ?GetEventNotifyTitle@CGMNotifyManager@@QAEPADXZ 00583370 f i GameIn.obj
 0002:0004b380       ?GetEventNotifyContext@CGMNotifyManager@@QAEPADXZ 00583380 f i GameIn.obj
 0002:0004b390       ?IsEventNotifyChanged@CGMNotifyManager@@QAEHXZ 00583390 f i GameIn.obj
 0002:0004b3a0       ?IsShowing@CGMToolManager@@QAEHXZ 005833a0 f i GameIn.obj
 0002:0004b3b0       ?SetGameInInitKind@CMapChange@@QAEXH@Z 005833b0 f i GameIn.obj
 0002:0004b3c0       ?SetData@CEventMap@@QAEXKKK@Z 005833c0 f i GameIn.obj
 0002:0004b3e0       ?GetEventMapNum@CEventMap@@QAEKXZ 005833e0 f i GameIn.obj
 0002:0004b3f0       ?GetChannelNum@CEventMap@@QAEKXZ 005833f0 f i GameIn.obj
 0002:0004b400       ?GetTeamNum@CEventMap@@QAEKXZ 00583400 f i GameIn.obj
 0002:0004b410       ?EnbaleReservation@CAppearanceManager@@QAEXXZ 00583410 f i GameIn.obj
 0002:0004b420       ?DisableReservation@CAppearanceManager@@QAEXXZ 00583420 f i GameIn.obj
 0002:0004b430       ?GetSummonEffect@CPetManager@@QAEGXZ 00583430 f i GameIn.obj
 0002:0004b440       ??0CGameIn@@QAE@XZ         00583440 f   GameIn.obj
 0002:0004b6f0       ??1CGameIn@@UAE@XZ         005836f0 f   GameIn.obj
 0002:0004b760       ??0MSG_DWORD3@@QAE@XZ      00583760 f i GameIn.obj
 0002:0004b770       ??0MSG_DWORD4@@QAE@XZ      00583770 f i GameIn.obj
 0002:0004b780       ?ReleaseForGame@CGameIn@@QAEXXZ 00583780 f   GameIn.obj
 0002:0004b8a0       ?Process@CGameIn@@UAEXXZ   005838a0 f   GameIn.obj
 0002:0004b9c0       ?BeforeRender@CGameIn@@UAEXXZ 005839c0 f   GameIn.obj
 0002:0004b9e0       ?OnDisconnect@CGameIn@@UAEXXZ 005839e0 f   GameIn.obj
 0002:0004ba50       ?ProcessInBossMap@CGameIn@@QAEXXZ 00583a50 f   GameIn.obj
 0002:0004bae0       ?SetLoginTime@CGameIn@@QAEXU_SYSTEMTIME@@@Z 00583ae0 f   GameIn.obj
 0002:0004bb10       ?GetLoginTime@CGameIn@@QAE?AU_SYSTEMTIME@@XZ 00583b10 f   GameIn.obj
 0002:0004bb40       ?GetClientLoginTime@CGameIn@@QAEXAAK0@Z 00583b40 f   GameIn.obj
 0002:0004bb70       ?SetClientLoginTime@CGameIn@@QAEXKK@Z 00583b70 f   GameIn.obj
 0002:0004bb90       ?UserConn_Object_Remove@CGameIn@@QAEXPAX@Z 00583b90 f   GameIn.obj
 0002:0004bc00       ?UserConn_Monster_Die@CGameIn@@QAEXPAX@Z 00583c00 f   GameIn.obj
 0002:0004bc60       ?UserConn_Character_Die@CGameIn@@QAEXPAX@Z 00583c60 f   GameIn.obj
 0002:0004bc90       ?UserConn_ApplyExp@CGameIn@@QAEXPAX@Z 00583c90 f   GameIn.obj
 0002:0004bd30       ?UserConn_DownExp@CGameIn@@QAEXPAX@Z 00583d30 f   GameIn.obj
 0002:0004bdb0       ?UserConn_DownLevel@CGameIn@@QAEXPAX@Z 00583db0 f   GameIn.obj
 0002:0004be90       ?UserConn_Ready_To_Revive@CGameIn@@QAEXXZ 00583e90 f   GameIn.obj
 0002:0004beb0       ?UserConn_Character_Revive@CGameIn@@QAEXPAX@Z 00583eb0 f   GameIn.obj
 0002:0004bf90       ?UserConn_Character_Revive_Nack@CGameIn@@QAEXPAX@Z 00583f90 f   GameIn.obj
 0002:0004bfb0       ?UserConn_Npc_Add@CGameIn@@QAEXPAX@Z 00583fb0 f   GameIn.obj
 0002:0004c2e0       ?UserConn_GridInit@CGameIn@@QAEXXZ 005842e0 f   GameIn.obj
 0002:0004c340       ?UserConn_GameIn_Ack@CGameIn@@QAEXPAX@Z 00584340 f   GameIn.obj
 0002:0004c650       ?UserConn_Character_Add@CGameIn@@QAEXPAX@Z 00584650 f   GameIn.obj
 0002:0004c960       ?UserConn_Monster_Add@CGameIn@@QAEXPAX@Z 00584960 f   GameIn.obj
 0002:0004cc90       ?UserConn_ChangeMap_Ack@CGameIn@@QAEXPAX@Z 00584c90 f   GameIn.obj
 0002:0004cd10       ?UserConn_Npc_ChangeMap_Ack@CGameIn@@QAEXPAX@Z 00584d10 f   GameIn.obj
 0002:0004cdc0       ?UserConn_Cheat_ChangeMap_Ack@CGameIn@@QAEXPAX@Z 00584dc0 f   GameIn.obj
 0002:0004ce60       ?UserConn_ChangeMap_Nack@CGameIn@@QAEXXZ 00584e60 f   GameIn.obj
 0002:0004cea0       ?UserConn_Npc_ChangeMap_Nack@CGameIn@@QAEXXZ 00584ea0 f   GameIn.obj
 0002:0004cf00       ?UserConn_CharacterList_Ack@CGameIn@@QAEXPAX@Z 00584f00 f   GameIn.obj
 0002:0004cf20       ?UserConn_BackToCharSel_Nack@CGameIn@@QAEXXZ 00584f20 f   GameIn.obj
 0002:0004cf60       ?UserConn_MapDesc@CGameIn@@QAEXPAX@Z 00584f60 f   GameIn.obj
 0002:0004d030       ?UserConn_SetVisible@CGameIn@@QAEXPAX@Z 00585030 f   GameIn.obj
 0002:0004d120       ?UserConn_Map_Out_To_EventMap@CGameIn@@QAEXPAX@Z 00585120 f   GameIn.obj
 0002:0004d1e0       ??0MSG_WORD2@@QAE@XZ       005851e0 f i GameIn.obj
 0002:0004d1f0       ?Npc_Speech_Ack@CGameIn@@QAEXPAX@Z 005851f0 f   GameIn.obj
 0002:0004d330       ?Npc_Speech_Nack@CGameIn@@QAEXPAX@Z 00585330 f   GameIn.obj
 0002:0004d3b0       ?Npc_CloseBomul_Ack@CGameIn@@QAEXXZ 005853b0 f   GameIn.obj
 0002:0004d3e0       ?Npc_Die_Ack@CGameIn@@QAEXPAX@Z 005853e0 f   GameIn.obj
 0002:0004d430       ?Npc_DoJob_Nack@CGameIn@@QAEXXZ 00585430 f   GameIn.obj
 0002:0004d480       ?Signal_CommonUser@CGameIn@@QAEXPAX@Z 00585480 f   GameIn.obj
 0002:0004d4a0       ?Signal_UserAddItem@CGameIn@@QAEXPAX@Z 005854a0 f   GameIn.obj
 0002:0004d570       ?Signal_ShowDown_Result@CGameIn@@QAEXPAX@Z 00585570 f   GameIn.obj
 0002:0004d5f0       ?UserConn_Pet_Add@CGameIn@@QAEXPAX@Z 005855f0 f   GameIn.obj
 0002:0004d960       ?UserConn_Pet_Remove@CGameIn@@QAEXPAX@Z 00585960 f   GameIn.obj
 0002:0004d9e0       ?_Isnil@?$_Tree@V?$_Tmap_traits@KUTick@CoolTimeSort@CItemManager@@U?$less@K@std@@V?$allocator@U?$pair@$$CBKUTick@CoolTimeSort@CItemManager@@@std@@@5@$0A@@std@@@std@@KAAADPAU_Node@?$_Tree_nod@V?$_Tmap_traits@KUTick@CoolTimeSort@CItemManager@@U?$less@K@std@@V?$allocator@U?$pair@$$CBKUTick@CoolTimeSort@CItemManager@@@std@@@5@$0A@@std@@@2@@Z 005859e0 f i GameIn.obj
 0002:0004d9f0       ?_Left@?$_Tree@V?$_Tmap_traits@KUTick@CoolTimeSort@CItemManager@@U?$less@K@std@@V?$allocator@U?$pair@$$CBKUTick@CoolTimeSort@CItemManager@@@std@@@5@$0A@@std@@@std@@KAAAPAU_Node@?$_Tree_nod@V?$_Tmap_traits@KUTick@CoolTimeSort@CItemManager@@U?$less@K@std@@V?$allocator@U?$pair@$$CBKUTick@CoolTimeSort@CItemManager@@@std@@@5@$0A@@std@@@2@PAU342@@Z 005859f0 f i GameIn.obj
 0002:0004da00       ?_Parent@?$_Tree@V?$_Tmap_traits@KUTick@CoolTimeSort@CItemManager@@U?$less@K@std@@V?$allocator@U?$pair@$$CBKUTick@CoolTimeSort@CItemManager@@@std@@@5@$0A@@std@@@std@@KAAAPAU_Node@?$_Tree_nod@V?$_Tmap_traits@KUTick@CoolTimeSort@CItemManager@@U?$less@K@std@@V?$allocator@U?$pair@$$CBKUTick@CoolTimeSort@CItemManager@@@std@@@5@$0A@@std@@@2@PAU342@@Z 00585a00 f i GameIn.obj
 0002:0004da10       ?_Right@?$_Tree@V?$_Tmap_traits@KUTick@CoolTimeSort@CItemManager@@U?$less@K@std@@V?$allocator@U?$pair@$$CBKUTick@CoolTimeSort@CItemManager@@@std@@@5@$0A@@std@@@std@@KAAAPAU_Node@?$_Tree_nod@V?$_Tmap_traits@KUTick@CoolTimeSort@CItemManager@@U?$less@K@std@@V?$allocator@U?$pair@$$CBKUTick@CoolTimeSort@CItemManager@@@std@@@5@$0A@@std@@@2@PAU342@@Z 00585a10 f i GameIn.obj
 0002:0004da20       ?deallocate@?$allocator@U_Node@?$_Tree_nod@V?$_Tmap_traits@KUTick@CoolTimeSort@CItemManager@@U?$less@K@std@@V?$allocator@U?$pair@$$CBKUTick@CoolTimeSort@CItemManager@@@std@@@5@$0A@@std@@@std@@@std@@QAEXPAU_Node@?$_Tree_nod@V?$_Tmap_traits@KUTick@CoolTimeSort@CItemManager@@U?$less@K@std@@V?$allocator@U?$pair@$$CBKUTick@CoolTimeSort@CItemManager@@@std@@@5@$0A@@std@@@2@I@Z 00585a20 f i GameIn.obj
 0002:0004da40       ??$_Destroy@U_Node@?$_Tree_nod@V?$_Tmap_traits@KUTick@CoolTimeSort@CItemManager@@U?$less@K@std@@V?$allocator@U?$pair@$$CBKUTick@CoolTimeSort@CItemManager@@@std@@@5@$0A@@std@@@std@@@std@@YAXPAU_Node@?$_Tree_nod@V?$_Tmap_traits@KUTick@CoolTimeSort@CItemManager@@U?$less@K@std@@V?$allocator@U?$pair@$$CBKUTick@CoolTimeSort@CItemManager@@@std@@@5@$0A@@std@@@0@@Z 00585a40 f i GameIn.obj
 0002:0004da50       ?GetInstance@CBattleSystem@@SAPAV1@XZ 00585a50 f i GameIn.obj
 0002:0004dad0       ?SetOpenningTime@CBossMonster@@QAEXK@Z 00585ad0 f i GameIn.obj
 0002:0004db20       ??_GCGameIn@@UAEPAXI@Z     00585b20 f i GameIn.obj
 0002:0004db20       ??_ECGameIn@@UAEPAXI@Z     00585b20 f i GameIn.obj
 0002:0004db50       ?Release@CGameIn@@UAEXPAVCGameState@@@Z 00585b50 f   GameIn.obj
 0002:0004dca0       ?AfterRender@CGameIn@@UAEXXZ 00585ca0 f   GameIn.obj
 0002:0004dd00       ?UserConn_BossMonster_Add@CGameIn@@QAEXPAX@Z 00585d00 f   GameIn.obj
 0002:0004e0c0       ?UserConn_Map_Out_To_EventBeforeMap@CGameIn@@QAEXXZ 005860c0 f   GameIn.obj
 0002:0004e140       ?NPC_NetworkMsgParse@CGameIn@@QAEXEPAX@Z 00586140 f   GameIn.obj
 0002:0004e290       ?SIGNAL_NetworkMsgParse@CGameIn@@QAEXEPAX@Z 00586290 f   GameIn.obj
 0002:0004e2f0       ?_Lmost@?$_Tree@V?$_Tmap_traits@KUTick@CoolTimeSort@CItemManager@@U?$less@K@std@@V?$allocator@U?$pair@$$CBKUTick@CoolTimeSort@CItemManager@@@std@@@5@$0A@@std@@@std@@IAEAAPAU_Node@?$_Tree_nod@V?$_Tmap_traits@KUTick@CoolTimeSort@CItemManager@@U?$less@K@std@@V?$allocator@U?$pair@$$CBKUTick@CoolTimeSort@CItemManager@@@std@@@5@$0A@@std@@@2@XZ 005862f0 f i GameIn.obj
 0002:0004e300       ?_Rmost@?$_Tree@V?$_Tmap_traits@KUTick@CoolTimeSort@CItemManager@@U?$less@K@std@@V?$allocator@U?$pair@$$CBKUTick@CoolTimeSort@CItemManager@@@std@@@5@$0A@@std@@@std@@IAEAAPAU_Node@?$_Tree_nod@V?$_Tmap_traits@KUTick@CoolTimeSort@CItemManager@@U?$less@K@std@@V?$allocator@U?$pair@$$CBKUTick@CoolTimeSort@CItemManager@@@std@@@5@$0A@@std@@@2@XZ 00586300 f i GameIn.obj
 0002:0004e310       ?_Root@?$_Tree@V?$_Tmap_traits@KUTick@CoolTimeSort@CItemManager@@U?$less@K@std@@V?$allocator@U?$pair@$$CBKUTick@CoolTimeSort@CItemManager@@@std@@@5@$0A@@std@@@std@@IAEAAPAU_Node@?$_Tree_nod@V?$_Tmap_traits@KUTick@CoolTimeSort@CItemManager@@U?$less@K@std@@V?$allocator@U?$pair@$$CBKUTick@CoolTimeSort@CItemManager@@@std@@@5@$0A@@std@@@2@XZ 00586310 f i GameIn.obj
 0002:0004e320       ?destroy@?$allocator@U_Node@?$_Tree_nod@V?$_Tmap_traits@KUTick@CoolTimeSort@CItemManager@@U?$less@K@std@@V?$allocator@U?$pair@$$CBKUTick@CoolTimeSort@CItemManager@@@std@@@5@$0A@@std@@@std@@@std@@QAEXPAU_Node@?$_Tree_nod@V?$_Tmap_traits@KUTick@CoolTimeSort@CItemManager@@U?$less@K@std@@V?$allocator@U?$pair@$$CBKUTick@CoolTimeSort@CItemManager@@@std@@@5@$0A@@std@@@2@@Z 00586320 f i GameIn.obj
 0002:0004e330       ?UserConn_NetworkMsgParse@CGameIn@@QAEXEPAX@Z 00586330 f   GameIn.obj
 0002:0004e720       ?_Erase@?$_Tree@V?$_Tmap_traits@KUTick@CoolTimeSort@CItemManager@@U?$less@K@std@@V?$allocator@U?$pair@$$CBKUTick@CoolTimeSort@CItemManager@@@std@@@5@$0A@@std@@@std@@IAEXPAU_Node@?$_Tree_nod@V?$_Tmap_traits@KUTick@CoolTimeSort@CItemManager@@U?$less@K@std@@V?$allocator@U?$pair@$$CBKUTick@CoolTimeSort@CItemManager@@@std@@@5@$0A@@std@@@2@@Z 00586720 f i GameIn.obj
 0002:0004e770       ?NetworkMsgParse@CGameIn@@UAEXEEPAX@Z 00586770 f   GameIn.obj
 0002:0004ecf0       ?clear@?$_Tree@V?$_Tmap_traits@KUTick@CoolTimeSort@CItemManager@@U?$less@K@std@@V?$allocator@U?$pair@$$CBKUTick@CoolTimeSort@CItemManager@@@std@@@5@$0A@@std@@@std@@QAEXXZ 00586cf0 f i GameIn.obj
 0002:0004ed30       ?ClearCoolTimeInfo@CItemManager@@QAEXXZ 00586d30 f i GameIn.obj
 0002:0004ed70       ?InitForGame@CGameIn@@QAEHXZ 00586d70 f   GameIn.obj
 0002:0004ee70       ?Init@CGameIn@@UAEHPAX@Z   00586e70 f   GameIn.obj
 0002:0004f340       ?SetCameraFov@CMHCamera@@QAEXM@Z 00587340 f i CharMake.obj
 0002:0004f350       ?GetNewPlayer@cCharMakeManager@@QAEPAVCPlayer@@XZ 00587350 f i CharMake.obj
 0002:0004f360       ?GetCharacterMakeInfo@cCharMakeManager@@QAEPAUCHARACTERMAKEINFO@@XZ 00587360 f i CharMake.obj
 0002:0004f370       ?GetMouseAxisX@CMouse@@QAEHXZ 00587370 f i CharMake.obj
 0002:0004f380       ?LButtonDrag@CMouse@@QAEHXZ 00587380 f i CharMake.obj
 0002:0004f390       ?RButtonDrag@CMouse@@QAEHXZ 00587390 f i CharMake.obj
 0002:0004f3a0       ??0CCharMake@@QAE@XZ       005873a0 f   CharMake.obj
 0002:0004f570       ??1CCharMake@@UAE@XZ       00587570 f   CharMake.obj
 0002:0004f610       ?SetPositionScale@CCharMake@@QAEXXZ 00587610 f   CharMake.obj
 0002:0004f6c0       ??_GCCharMakeCamera@@QAEPAXI@Z 005876c0 f i CharMake.obj
 0002:0004f6f0       ?BeforeRender@CCharMake@@UAEXXZ 005876f0 f   CharMake.obj
 0002:0004f740       ?AfterRender@CCharMake@@UAEXXZ 00587740 f   CharMake.obj
 0002:0004f790       ?SetDisableDlg@CCharMake@@QAEXH@Z 00587790 f   CharMake.obj
 0002:0004f7b0       ?UserConn_CharacterList_Ack@CCharMake@@QAEXPAX@Z 005877b0 f   CharMake.obj
 0002:0004f800       ?Cheat_EventNotify_On@CCharMake@@QAEXPAX@Z 00587800 f   CharMake.obj
 0002:0004f890       ?Cheat_EventNotify_Off@CCharMake@@QAEXPAX@Z 00587890 f   CharMake.obj
 0002:0004f8b0       ?ProcessDragRotation@CCharMake@@AAEXXZ 005878b0 f   CharMake.obj
 0002:0004f920       ?UserConn_Character_Make_Ack@CCharMake@@QAEXPAX@Z 00587920 f   CharMake.obj
 0002:0004f930       ??_GCCharMake@@UAEPAXI@Z   00587930 f i CharMake.obj
 0002:0004f930       ??_ECCharMake@@UAEPAXI@Z   00587930 f i CharMake.obj
 0002:0004f960       ?Init@CCharMake@@UAEHPAX@Z 00587960 f   CharMake.obj
 0002:0004fb40       ?Release@CCharMake@@UAEXPAVCGameState@@@Z 00587b40 f   CharMake.obj
 0002:0004fbe0       ?Process@CCharMake@@UAEXXZ 00587be0 f   CharMake.obj
 0002:0004fc20       ?DisplayNotice@CCharMake@@QAEXH@Z 00587c20 f   CharMake.obj
 0002:0004fc80       ?UserConn_Character_NameCheck_Nack@CCharMake@@QAEXPAX@Z 00587c80 f   CharMake.obj
 0002:0004fd20       ?UserConn_Character_NameCheck_Ack@CCharMake@@QAEXXZ 00587d20 f   CharMake.obj
 0002:0004fdb0       ?UserConn_Character_Make_Nack@CCharMake@@QAEXXZ 00587db0 f   CharMake.obj
 0002:0004fe10       ?NetworkMsgParse@CCharMake@@UAEXEEPAX@Z 00587e10 f   CharMake.obj
 0002:0004fef0       ?MakeCameraMatrix@@YAHPAUVECTOR3@@0PAUMATRIX4@@1@Z 00587ef0 f   CharMakeCamera.obj
 0002:0004ff80       ??0CCharMakeCamera@@QAE@XZ 00587f80 f   CharMakeCamera.obj
 0002:0004ffa0       ??1CCharMakeCamera@@QAE@XZ 00587fa0 f   CharMakeCamera.obj
 0002:0004ffb0       ?InitCamera@CCharMakeCamera@@QAEHPAUI4DyuchiGXExecutive@@PAUVECTOR3@@1K@Z 00587fb0 f   CharMakeCamera.obj
 0002:00050060       ?MoveCamera@CCharMakeCamera@@QAEHHHHH@Z 00588060 f   CharMakeCamera.obj
 0002:000502b0       ?ZoomInCamera@CCharMakeCamera@@QAEHXZ 005882b0 f   CharMakeCamera.obj
 0002:00050400       ?ZoomOutCamera@CCharMakeCamera@@QAEHXZ 00588400 f   CharMakeCamera.obj
 0002:00050550       ?RotateCamera@CCharMakeCamera@@QAEHPAXHHHH@Z 00588550 f   CharMakeCamera.obj
 0002:000507a0       ?ResetCamera@CCharMakeCamera@@QAEHXZ 005887a0 f   CharMakeCamera.obj
 0002:00050800       ??0CCharMakeNewDlg@@QAE@XZ 00588800 f   CharMakeNewDlg.obj
 0002:00050960       ??_GCCharMakeNewDlg@@UAEPAXI@Z 00588960 f i CharMakeNewDlg.obj
 0002:00050960       ??_ECCharMakeNewDlg@@UAEPAXI@Z 00588960 f i CharMakeNewDlg.obj
 0002:00050990       ??1CCharMakeNewDlg@@UAE@XZ 00588990 f   CharMakeNewDlg.obj
 0002:000509a0       ?Linking@CCharMakeNewDlg@@QAEXXZ 005889a0 f   CharMakeNewDlg.obj
 0002:00050ac0       ?RefreshPushUpBtn@CCharMakeNewDlg@@QAEXXZ 00588ac0 f   CharMakeNewDlg.obj
 0002:00050df0       ?ApplyOption@CCharMakeNewDlg@@QAEXPAUCHARACTERMAKEINFO@@@Z 00588df0 f   CharMakeNewDlg.obj
 0002:00050e90       ?OnActionEvent@CCharMakeNewDlg@@UAEXJPAXK@Z 00588e90 f   CharMakeNewDlg.obj
 0002:00051040       ?GetCurOptionList@CCharMakeNewDlg@@QAEPAVcPtrList@@H@Z 00589040 f   CharMakeNewDlg.obj
 0002:000511a0       ?ChangeFace@CCharMakeNewDlg@@QAEXJ@Z 005891a0 f   CharMakeNewDlg.obj
 0002:000512c0       ?GetCount@cPtrList@@QBEHXZ 005892c0 f i CharMakeNewDlg.obj
 0002:000512d0       ?ChangeHair@CCharMakeNewDlg@@QAEXJ@Z 005892d0 f   CharMakeNewDlg.obj
 0002:000513f0       ?ChangeRace@CCharMakeNewDlg@@QAEXJE@Z 005893f0 f   CharMakeNewDlg.obj
 0002:00051700       ?ChangeGender@CCharMakeNewDlg@@QAEXJE@Z 00589700 f   CharMakeNewDlg.obj
 0002:000519d0       ?ChangeJob@CCharMakeNewDlg@@QAEXJE@Z 005899d0 f   CharMakeNewDlg.obj
 0002:00051b60       ?ChangeText@CCharMakeNewDlg@@QAEXXZ 00589b60 f   CharMakeNewDlg.obj
 0002:00051d60       ?GetStatic@CCharMakeNewDlg@@QAEPAVcStatic@@J@Z 00589d60 f   CharMakeNewDlg.obj
 0002:00051d80       ?SetMapChage@CUserInfoManager@@QAEXH@Z 00589d80 f i MapChange.obj
 0002:00051d90       ??0CMapChange@@QAE@XZ      00589d90 f   MapChange.obj
 0002:00051e20       ??1CMapChange@@UAE@XZ      00589e20 f   MapChange.obj
 0002:00051ea0       ?Init@CMapChange@@UAEHPAX@Z 00589ea0 f   MapChange.obj
 0002:00051f40       ?SetPositionScale@CMapChange@@QAEXXZ 00589f40 f   MapChange.obj
 0002:00052030       ?Release@CMapChange@@UAEXPAVCGameState@@@Z 0058a030 f   MapChange.obj
 0002:00052070       ?BeforeRender@CMapChange@@UAEXXZ 0058a070 f   MapChange.obj
 0002:00052080       ?AfterRender@CMapChange@@UAEXXZ 0058a080 f   MapChange.obj
 0002:000520d0       ?EnterGame@CMapChange@@QAEXXZ 0058a0d0 f   MapChange.obj
 0002:00052110       ?GetInstance@CGuildTournamentMgr@@SAPAV1@XZ 0058a110 f i MapChange.obj
 0002:00052190       ??_ECMapChange@@UAEPAXI@Z  0058a190 f i MapChange.obj
 0002:00052190       ??_GCMapChange@@UAEPAXI@Z  0058a190 f i MapChange.obj
 0002:000521c0       ?Process@CMapChange@@UAEXXZ 0058a1c0 f   MapChange.obj
 0002:00052280       ?NetworkMsgParse@CMapChange@@UAEXEEPAX@Z 0058a280 f   MapChange.obj
 0002:00052520       ??0CMNStage@@QAE@XZ        0058a520 f   MNStage.obj
 0002:00052530       ?Init@CMNStage@@UAEXXZ     0058a530 f i MNStage.obj
 0002:00052540       ?Release@CMNStage@@UAEXXZ  0058a540 f i MNStage.obj
 0002:00052550       ?Open@CMNStage@@UAEXXZ     0058a550 f i MNStage.obj
 0002:00052560       ?Close@CMNStage@@UAEXXZ    0058a560 f i MNStage.obj
 0002:00052570       ?Process@CMNStage@@UAEXXZ  0058a570 f i MNStage.obj
 0002:00052580       ?Render@CMNStage@@UAEXXZ   0058a580 f i MNStage.obj
 0002:00052590       ?NetworkMsgParse@CMNStage@@UAEXEEPAX@Z 0058a590 f i MNStage.obj
 0002:000525a0       ?ChatMsg@CMNStage@@UAEXHPAVCMNPlayer@@PAD@Z 0058a5a0 f i MNStage.obj
 0002:000525b0       ??1CMNStage@@UAE@XZ        0058a5b0 f   MNStage.obj
 0002:000525c0       ??_ECMNStage@@UAEPAXI@Z    0058a5c0 f i MNStage.obj
 0002:000525c0       ??_GCMNStage@@UAEPAXI@Z    0058a5c0 f i MNStage.obj
 0002:000525f0       ?GetCurMNStage@CMurimNet@@QAEPAVCMNStage@@XZ 0058a5f0 f i MurimNet.obj
 0002:00052600       ??0CMurimNet@@QAE@XZ       0058a600 f   MurimNet.obj
 0002:00052620       ??1CMurimNet@@UAE@XZ       0058a620 f   MurimNet.obj
 0002:00052630       ?InitStages@CMurimNet@@IAEXXZ 0058a630 f   MurimNet.obj
 0002:00052740       ?ReleaseStages@CMurimNet@@IAEXXZ 0058a740 f   MurimNet.obj
 0002:000527b0       ?Release@CMurimNet@@UAEXPAVCGameState@@@Z 0058a7b0 f   MurimNet.obj
 0002:00052800       ?Process@CMurimNet@@UAEXXZ 0058a800 f   MurimNet.obj
 0002:00052810       ?ChangeStage@CMurimNet@@QAEXH@Z 0058a810 f   MurimNet.obj
 0002:00052850       ?BeforeRender@CMurimNet@@UAEXXZ 0058a850 f   MurimNet.obj
 0002:00052890       ?AfterRender@CMurimNet@@UAEXXZ 0058a890 f   MurimNet.obj
 0002:000528a0       ?NetworkMsgParse@CMurimNet@@UAEXEEPAX@Z 0058a8a0 f   MurimNet.obj
 0002:00052a30       ??_GCMurimNet@@UAEPAXI@Z   0058aa30 f i MurimNet.obj
 0002:00052a30       ??_ECMurimNet@@UAEPAXI@Z   0058aa30 f i MurimNet.obj
 0002:00052a60       ?SendReConnectMsg@CMurimNet@@QAEXXZ 0058aa60 f   MurimNet.obj
 0002:00052a90       ?SendConnectMsg@CMurimNet@@QAEXK@Z 0058aa90 f   MurimNet.obj
 0002:00052ad0       ?Init@CMurimNet@@UAEHPAX@Z 0058aad0 f   MurimNet.obj
 0002:00052bd0       ??0CMNFrontDialog@@QAE@XZ  0058abd0 f   MNFrontDialog.obj
 0002:00052bf0       ??1CMNFrontDialog@@UAE@XZ  0058abf0 f   MNFrontDialog.obj
 0002:00052c00       ?Linking@CMNFrontDialog@@QAEXXZ 0058ac00 f   MNFrontDialog.obj
 0002:00052c10       ?OnActionEvent@CMNFrontDialog@@UAEXJPAXK@Z 0058ac10 f   MNFrontDialog.obj
 0002:00052c20       ??_GCMNFrontDialog@@UAEPAXI@Z 0058ac20 f i MNFrontDialog.obj
 0002:00052c20       ??_ECMNFrontDialog@@UAEPAXI@Z 0058ac20 f i MNFrontDialog.obj
 0002:00052c50       ??0CMNStgFront@@QAE@XZ     0058ac50 f   MNStgFront.obj
 0002:00052c70       ??1CMNStgFront@@UAE@XZ     0058ac70 f   MNStgFront.obj
 0002:00052c80       ?Init@CMNStgFront@@UAEXXZ  0058ac80 f   MNStgFront.obj
 0002:00052c90       ?Release@CMNStgFront@@UAEXXZ 0058ac90 f   MNStgFront.obj
 0002:00052ca0       ?Open@CMNStgFront@@UAEXXZ  0058aca0 f   MNStgFront.obj
 0002:00052cb0       ?Close@CMNStgFront@@UAEXXZ 0058acb0 f   MNStgFront.obj
 0002:00052cc0       ?Process@CMNStgFront@@UAEXXZ 0058acc0 f   MNStgFront.obj
 0002:00052cd0       ?Render@CMNStgFront@@UAEXXZ 0058acd0 f   MNStgFront.obj
 0002:00052ce0       ?NetworkMsgParse@CMNStgFront@@UAEXEEPAX@Z 0058ace0 f   MNStgFront.obj
 0002:00052cf0       ??_GCMNStgFront@@UAEPAXI@Z 0058acf0 f i MNStgFront.obj
 0002:00052cf0       ??_ECMNStgFront@@UAEPAXI@Z 0058acf0 f i MNStgFront.obj
 0002:00052d20       ?IsFocus@cWindow@@QAEHXZ   0058ad20 f i MNPlayRoomDialog.obj
 0002:00052d30       ?SetEditFunc@cEditBox@@QAEXP6AXJPAXK@Z@Z 0058ad30 f i MNPlayRoomDialog.obj
 0002:00052d40       ??0CMNPlayRoomDialog@@QAE@XZ 0058ad40 f   MNPlayRoomDialog.obj
 0002:00052d90       ??1CMNPlayRoomDialog@@UAE@XZ 0058ad90 f   MNPlayRoomDialog.obj
 0002:00052da0       ?Linking@CMNPlayRoomDialog@@QAEXXZ 0058ada0 f   MNPlayRoomDialog.obj
 0002:00052e40       ?ActionEvent@CMNPlayRoomDialog@@UAEKPAVCMouse@@@Z 0058ae40 f   MNPlayRoomDialog.obj
 0002:00052e80       ?SetPlayRoomInfo@CMNPlayRoomDialog@@QAEXPAUPLAYROOM_BASEINFO@@@Z 0058ae80 f   MNPlayRoomDialog.obj
 0002:00052eb0       ?AddPlayer@CMNPlayRoomDialog@@QAEXPAUMNPLAYER_BASEINFO@@@Z 0058aeb0 f   MNPlayRoomDialog.obj
 0002:00052ee0       ?RemovePlayer@CMNPlayRoomDialog@@QAEXPAUMNPLAYER_BASEINFO@@@Z 0058aee0 f   MNPlayRoomDialog.obj
 0002:00052f10       ?RemoveAllPlayer@CMNPlayRoomDialog@@QAEXXZ 0058af10 f   MNPlayRoomDialog.obj
 0002:00052f40       ?TeamChange@CMNPlayRoomDialog@@QAEXPADEE@Z 0058af40 f   MNPlayRoomDialog.obj
 0002:00052f90       ?SetCaptain@CMNPlayRoomDialog@@QAEXH@Z 0058af90 f   MNPlayRoomDialog.obj
 0002:00052fd0       ?ChatMsg@CMNPlayRoomDialog@@QAEXHPAD0@Z 0058afd0 f   MNPlayRoomDialog.obj
 0002:00053040       ?PrintMsg@CMNPlayRoomDialog@@QAEXHPAD@Z 0058b040 f   MNPlayRoomDialog.obj
 0002:00053060       ??_GCMNPlayRoomDialog@@UAEPAXI@Z 0058b060 f i MNPlayRoomDialog.obj
 0002:00053060       ??_ECMNPlayRoomDialog@@UAEPAXI@Z 0058b060 f i MNPlayRoomDialog.obj
 0002:00053090       ??0MSG_BYTE@@QAE@XZ        0058b090 f i MNPlayRoomDialog.obj
 0002:000530a0       ?SendMsgExit@CMNPlayRoomDialog@@QAEXXZ 0058b0a0 f   MNPlayRoomDialog.obj
 0002:000530e0       ?SendMsgStart@CMNPlayRoomDialog@@QAEXXZ 0058b0e0 f   MNPlayRoomDialog.obj
 0002:00053120       ?SendMsgTeamChange@CMNPlayRoomDialog@@QAEXE@Z 0058b120 f   MNPlayRoomDialog.obj
 0002:00053170       ?OnActionEvent@CMNPlayRoomDialog@@UAEXJPAXK@Z 0058b170 f   MNPlayRoomDialog.obj
 0002:000531e0       ?SetTeam@CMNPlayer@@QAEXE@Z 0058b1e0 f i MNStgPlayRoom.obj
 0002:000531f0       ?GetBaseInfo@CMNPlayer@@QAEPAUMNPLAYER_BASEINFO@@XZ 0058b1f0 f i MNStgPlayRoom.obj
 0002:00053200       ?GetName@CMNPlayer@@QAEPADXZ 0058b200 f i MNStgPlayRoom.obj
 0002:00053210       ?SetCaptain@CMNPlayer@@QAEXH@Z 0058b210 f i MNStgPlayRoom.obj
 0002:00053220       ??0CMNStgPlayRoom@@QAE@XZ  0058b220 f   MNStgPlayRoom.obj
 0002:00053240       ??1CMNStgPlayRoom@@UAE@XZ  0058b240 f   MNStgPlayRoom.obj
 0002:00053250       ?Init@CMNStgPlayRoom@@UAEXXZ 0058b250 f   MNStgPlayRoom.obj
 0002:00053290       ?Release@CMNStgPlayRoom@@UAEXXZ 0058b290 f   MNStgPlayRoom.obj
 0002:000532c0       ?Open@CMNStgPlayRoom@@UAEXXZ 0058b2c0 f   MNStgPlayRoom.obj
 0002:00053300       ?Close@CMNStgPlayRoom@@UAEXXZ 0058b300 f   MNStgPlayRoom.obj
 0002:00053320       ?Process@CMNStgPlayRoom@@UAEXXZ 0058b320 f   MNStgPlayRoom.obj
 0002:000533f0       ?Render@CMNStgPlayRoom@@UAEXXZ 0058b3f0 f   MNStgPlayRoom.obj
 0002:00053400       ?NetworkMsgParse@CMNStgPlayRoom@@UAEXEEPAX@Z 0058b400 f   MNStgPlayRoom.obj
 0002:00053680       ??_GCMNStgPlayRoom@@UAEPAXI@Z 0058b680 f i MNStgPlayRoom.obj
 0002:00053680       ??_ECMNStgPlayRoom@@UAEPAXI@Z 0058b680 f i MNStgPlayRoom.obj
 0002:000536b0       ?GetMNStage@CMurimNet@@QAEPAVCMNStage@@H@Z 0058b6b0 f i MNChannelDialog.obj
 0002:000536c0       ??0CMNChannelDialog@@QAE@XZ 0058b6c0 f   MNChannelDialog.obj
 0002:000536f0       ??1CMNChannelDialog@@UAE@XZ 0058b6f0 f   MNChannelDialog.obj
 0002:00053700       ?Linking@CMNChannelDialog@@QAEXXZ 0058b700 f   MNChannelDialog.obj
 0002:000537e0       ?ActionEvent@CMNChannelDialog@@UAEKPAVCMouse@@@Z 0058b7e0 f   MNChannelDialog.obj
 0002:00053820       ?OnActionEvent@CMNChannelDialog@@UAEXJPAXK@Z 0058b820 f   MNChannelDialog.obj
 0002:00053850       ?SetChannelInfo@CMNChannelDialog@@QAEXPAUCHANNEL_BASEINFO@@@Z 0058b850 f   MNChannelDialog.obj
 0002:00053880       ?AddPlayer@CMNChannelDialog@@QAEXPAUMNPLAYER_BASEINFO@@@Z 0058b880 f   MNChannelDialog.obj
 0002:000538d0       ?RemovePlayer@CMNChannelDialog@@QAEXPAUMNPLAYER_BASEINFO@@@Z 0058b8d0 f   MNChannelDialog.obj
 0002:00053920       ?RemoveAllPlayer@CMNChannelDialog@@QAEXXZ 0058b920 f   MNChannelDialog.obj
 0002:00053940       ?AddChannel@CMNChannelDialog@@QAEXPAUCHANNEL_BASEINFO@@@Z 0058b940 f   MNChannelDialog.obj
 0002:00053990       ?RemoveChannel@CMNChannelDialog@@QAEXPAUCHANNEL_BASEINFO@@@Z 0058b990 f   MNChannelDialog.obj
 0002:000539b0       ?RemoveAllChannel@CMNChannelDialog@@QAEXXZ 0058b9b0 f   MNChannelDialog.obj
 0002:000539d0       ?AddPlayRoom@CMNChannelDialog@@QAEXPAUPLAYROOM_BASEINFO@@@Z 0058b9d0 f   MNChannelDialog.obj
 0002:000539f0       ?RemovePlayRoom@CMNChannelDialog@@QAEXPAUPLAYROOM_BASEINFO@@@Z 0058b9f0 f   MNChannelDialog.obj
 0002:00053a10       ?RemoveAllPlayRoom@CMNChannelDialog@@QAEXXZ 0058ba10 f   MNChannelDialog.obj
 0002:00053a30       ?ChatMsg@CMNChannelDialog@@QAEXHPAVCMNPlayer@@PAD@Z 0058ba30 f   MNChannelDialog.obj
 0002:00053aa0       ??_ECMNChannelDialog@@UAEPAXI@Z 0058baa0 f i MNChannelDialog.obj
 0002:00053aa0       ??_GCMNChannelDialog@@UAEPAXI@Z 0058baa0 f i MNChannelDialog.obj
 0002:00053ad0       ?SetChannelMode@CMNChannelDialog@@QAEXH@Z 0058bad0 f   MNChannelDialog.obj
 0002:00053b80       ??0CMNCreateDialog@@QAE@XZ 0058bb80 f   MNCreateDialog.obj
 0002:00053ba0       ??1CMNCreateDialog@@UAE@XZ 0058bba0 f   MNCreateDialog.obj
 0002:00053bb0       ?Linking@CMNCreateDialog@@QAEXXZ 0058bbb0 f   MNCreateDialog.obj
 0002:00053bc0       ?OnActionEvent@CMNCreateDialog@@UAEXJPAXK@Z 0058bbc0 f   MNCreateDialog.obj
 0002:00053bd0       ??_GCMNCreateDialog@@UAEPAXI@Z 0058bbd0 f i MNCreateDialog.obj
 0002:00053bd0       ??_ECMNCreateDialog@@UAEPAXI@Z 0058bbd0 f i MNCreateDialog.obj
 0002:00053c00       ??0CMNJoinDialog@@QAE@XZ   0058bc00 f   MNJoinDialog.obj
 0002:00053c20       ??1CMNJoinDialog@@UAE@XZ   0058bc20 f   MNJoinDialog.obj
 0002:00053c30       ?Linking@CMNJoinDialog@@QAEXXZ 0058bc30 f   MNJoinDialog.obj
 0002:00053c40       ?OnActionEvent@CMNJoinDialog@@UAEXJPAXK@Z 0058bc40 f   MNJoinDialog.obj
 0002:00053c50       ??_ECMNJoinDialog@@UAEPAXI@Z 0058bc50 f i MNJoinDialog.obj
 0002:00053c50       ??_GCMNJoinDialog@@UAEPAXI@Z 0058bc50 f i MNJoinDialog.obj
 0002:00053c80       ??0CMNStgChannel@@QAE@XZ   0058bc80 f   MNStgChannel.obj
 0002:00053cb0       ??1CMNStgChannel@@UAE@XZ   0058bcb0 f   MNStgChannel.obj
 0002:00053cc0       ?Init@CMNStgChannel@@UAEXXZ 0058bcc0 f   MNStgChannel.obj
 0002:00053d20       ?Release@CMNStgChannel@@UAEXXZ 0058bd20 f   MNStgChannel.obj
 0002:00053d50       ?Open@CMNStgChannel@@UAEXXZ 0058bd50 f   MNStgChannel.obj
 0002:00053d90       ?Close@CMNStgChannel@@UAEXXZ 0058bd90 f   MNStgChannel.obj
 0002:00053db0       ?Process@CMNStgChannel@@UAEXXZ 0058bdb0 f   MNStgChannel.obj
 0002:00053dc0       ?Render@CMNStgChannel@@UAEXXZ 0058bdc0 f   MNStgChannel.obj
 0002:00053dd0       ?ChatMsg@CMNStgChannel@@UAEXHPAVCMNPlayer@@PAD@Z 0058bdd0 f   MNStgChannel.obj
 0002:00053de0       ?NetworkMsgParse@CMNStgChannel@@UAEXEEPAX@Z 0058bde0 f   MNStgChannel.obj
 0002:00053fc0       ??_ECMNStgChannel@@UAEPAXI@Z 0058bfc0 f i MNStgChannel.obj
 0002:00053fc0       ??_GCMNStgChannel@@UAEPAXI@Z 0058bfc0 f i MNStgChannel.obj
 0002:00053ff0       ?SetChannelMode@CMNStgChannel@@QAEXH@Z 0058bff0 f   MNStgChannel.obj
 0002:00054060       ??0CMNPlayer@@QAE@XZ       0058c060 f   MNPlayer.obj
 0002:00054070       ??1CMNPlayer@@UAE@XZ       0058c070 f   MNPlayer.obj
 0002:00054080       ?Init@CMNPlayer@@QAEXPAUMNPLAYER_BASEINFO@@@Z 0058c080 f   MNPlayer.obj
 0002:000540b0       ?Release@CMNPlayer@@QAEXXZ 0058c0b0 f   MNPlayer.obj
 0002:000540c0       ??_GCMNPlayer@@UAEPAXI@Z   0058c0c0 f i MNPlayer.obj
 0002:000540f0       ?GetID@CMNPlayer@@QAEKXZ   0058c0f0 f i MNPlayerManager.obj
 0002:00054100       ??0CMNPlayerManager@@QAE@XZ 0058c100 f   MNPlayerManager.obj
 0002:00054120       ??1CMNPlayerManager@@UAE@XZ 0058c120 f   MNPlayerManager.obj
 0002:00054130       ?SetMNHero@CMNPlayerManager@@QAEXPAVCMNPlayer@@@Z 0058c130 f   MNPlayerManager.obj
 0002:00054150       ??0?$CMemoryPoolTempl@VCMNPlayer@@@@QAE@XZ 0058c150 f i MNPlayerManager.obj
 0002:00054180       ?Initialize@?$CYHHashTable@VCMNPlayer@@@@QAE_NK@Z 0058c180 f i MNPlayerManager.obj
 0002:00054210       ?GetData@?$CYHHashTable@VCMNPlayer@@@@QAEPAVCMNPlayer@@K@Z 0058c210 f i MNPlayerManager.obj
 0002:00054250       ?GetData@?$CYHHashTable@VCMNPlayer@@@@QAEPAVCMNPlayer@@XZ 0058c250 f i MNPlayerManager.obj
 0002:00054270       ?SetPositionHead@?$CYHHashTable@VCMNPlayer@@@@QAEXXZ 0058c270 f i MNPlayerManager.obj
 0002:00054280       ?RemoveAll@?$CYHHashTable@VCMNPlayer@@@@QAEXXZ 0058c280 f i MNPlayerManager.obj
 0002:00054300       ??0?$CYHHashTable@VCMNPlayer@@@@QAE@XZ 0058c300 f i MNPlayerManager.obj
 0002:00054320       ??1?$CYHHashTable@VCMNPlayer@@@@QAE@XZ 0058c320 f i MNPlayerManager.obj
 0002:00054350       ?AddList@?$CYHHashTable@VCMNPlayer@@@@QAEPAULIST@1@PAUBUCKET@1@@Z 0058c350 f i MNPlayerManager.obj
 0002:000543b0       ?RemoveList@?$CYHHashTable@VCMNPlayer@@@@QAEXPAULIST@1@@Z 0058c3b0 f i MNPlayerManager.obj
 0002:00054400       ?Alloc@?$CBand@VCMNPlayer@@@@QAEPAVCMNPlayer@@XZ 0058c400 f i MNPlayerManager.obj
 0002:00054420       ?Free@?$CBand@VCMNPlayer@@@@QAEHPAVCMNPlayer@@@Z 0058c420 f i MNPlayerManager.obj
 0002:00054450       ??0BUCKET@?$CYHHashTable@VCMNPlayer@@@@QAE@PAVCMNPlayer@@K@Z 0058c450 f i MNPlayerManager.obj
 0002:00054470       ??_ECMNPlayer@@UAEPAXI@Z   0058c470 f i MNPlayerManager.obj
 0002:000544e0       ??0?$CBand@VCMNPlayer@@@@QAE@XZ 0058c4e0 f i MNPlayerManager.obj
 0002:00054500       ??_E?$CBand@VCMNPlayer@@@@UAEPAXI@Z 0058c500 f i MNPlayerManager.obj
 0002:00054500       ??_G?$CBand@VCMNPlayer@@@@UAEPAXI@Z 0058c500 f i MNPlayerManager.obj
 0002:00054530       ??1?$CBand@VCMNPlayer@@@@UAE@XZ 0058c530 f i MNPlayerManager.obj
 0002:00054590       ??_ECMNPlayerManager@@UAEPAXI@Z 0058c590 f i MNPlayerManager.obj
 0002:00054590       ??_GCMNPlayerManager@@UAEPAXI@Z 0058c590 f i MNPlayerManager.obj
 0002:000545c0       ??_G?$CYHHashTable@VCMNPlayer@@@@QAEPAXI@Z 0058c5c0 f i MNPlayerManager.obj
 0002:00054610       ?GetMNPlayer@CMNPlayerManager@@QAEPAVCMNPlayer@@K@Z 0058c610 f   MNPlayerManager.obj
 0002:00054660       ?Free@?$CMemoryPoolTempl@VCMNPlayer@@@@QAEXPAVCMNPlayer@@@Z 0058c660 f i MNPlayerManager.obj
 0002:000546c0       ?Add@?$CYHHashTable@VCMNPlayer@@@@QAE_NPAVCMNPlayer@@K@Z 0058c6c0 f i MNPlayerManager.obj
 0002:000547a0       ?Remove@?$CYHHashTable@VCMNPlayer@@@@QAEXK@Z 0058c7a0 f i MNPlayerManager.obj
 0002:00054870       ?Banding@?$CBand@VCMNPlayer@@@@SAPAV1@AAPAV1@K@Z 0058c870 f i MNPlayerManager.obj
 0002:000549b0       ?Release@CMNPlayerManager@@QAEXXZ 0058c9b0 f   MNPlayerManager.obj
 0002:00054a20       ?DeleteMNPlayer@CMNPlayerManager@@QAEXK@Z 0058ca20 f   MNPlayerManager.obj
 0002:00054a80       ?DeleteMNPlayer@CMNPlayerManager@@QAEXPAVCMNPlayer@@@Z 0058ca80 f   MNPlayerManager.obj
 0002:00054ab0       ?DeleteAllMNPlayer@CMNPlayerManager@@QAEXXZ 0058cab0 f   MNPlayerManager.obj
 0002:00054b30       ?Init@?$CMemoryPoolTempl@VCMNPlayer@@@@QAEXKKPAD@Z 0058cb30 f i MNPlayerManager.obj
 0002:00054c00       ?Alloc@?$CMemoryPoolTempl@VCMNPlayer@@@@QAEPAVCMNPlayer@@XZ 0058cc00 f i MNPlayerManager.obj
 0002:00054d60       ??_E?$CMemoryPoolTempl@VCMNPlayer@@@@UAEPAXI@Z 0058cd60 f i MNPlayerManager.obj
 0002:00054d60       ??_G?$CMemoryPoolTempl@VCMNPlayer@@@@UAEPAXI@Z 0058cd60 f i MNPlayerManager.obj
 0002:00054db0       ?FreeChain@?$CBand@VCMNPlayer@@@@QAEXXZ 0058cdb0 f i MNPlayerManager.obj
 0002:00054dd0       ?Init@CMNPlayerManager@@QAEXXZ 0058cdd0 f   MNPlayerManager.obj
 0002:00054e80       ?AddMNPlayer@CMNPlayerManager@@QAEXPAUMNPLAYER_BASEINFO@@@Z 0058ce80 f   MNPlayerManager.obj
 0002:00054ec0       ??0CGameLoading@@QAE@XZ    0058cec0 f   GameLoading.obj
 0002:00054f40       ??1CGameLoading@@UAE@XZ    0058cf40 f   GameLoading.obj
 0002:00054fc0       ?SetPositionScale@CGameLoading@@QAEXXZ 0058cfc0 f   GameLoading.obj
 0002:000550c0       ?Release@CGameLoading@@UAEXPAVCGameState@@@Z 0058d0c0 f   GameLoading.obj
 0002:00055100       ?BeforeRender@CGameLoading@@UAEXXZ 0058d100 f   GameLoading.obj
 0002:00055110       ?AfterRender@CGameLoading@@UAEXXZ 0058d110 f   GameLoading.obj
 0002:00055160       ?EnterGame@CGameLoading@@QAEXXZ 0058d160 f   GameLoading.obj
 0002:000551a0       ?UserConn_CharacterSelect_Ack@CGameLoading@@QAEXPAX@Z 0058d1a0 f   GameLoading.obj
 0002:000551c0       ?UserConn_CharacterSelect_Nack@CGameLoading@@QAEXXZ 0058d1c0 f   GameLoading.obj
 0002:000551f0       ?Cheat_EventNotify_On@CGameLoading@@QAEXPAX@Z 0058d1f0 f   GameLoading.obj
 0002:00055280       ?Cheat_EventNotify_Off@CGameLoading@@QAEXPAX@Z 0058d280 f   GameLoading.obj
 0002:000552a0       ?LoadingThread@@YGKPAX@Z   0058d2a0 f   GameLoading.obj
 0002:000552b0       ??_GCGameLoading@@UAEPAXI@Z 0058d2b0 f i GameLoading.obj
 0002:000552b0       ??_ECGameLoading@@UAEPAXI@Z 0058d2b0 f i GameLoading.obj
 0002:000552e0       ??0MSG_WORD@@QAE@XZ        0058d2e0 f i GameLoading.obj
 0002:000552f0       ?Process@CGameLoading@@UAEXXZ 0058d2f0 f   GameLoading.obj
 0002:000553c0       ?NetworkMsgParse@CGameLoading@@UAEXEEPAX@Z 0058d3c0 f   GameLoading.obj
 0002:00055470       ?Init@CGameLoading@@UAEHPAX@Z 0058d470 f   GameLoading.obj
 0002:00055540       ?SetID@cObject@@QAEXJ@Z    0058d540 f i cDivideBox.obj
 0002:00055550       ?SetShadow@cStatic@@QAEXH@Z 0058d550 f i cDivideBox.obj
 0002:00055560       ?SetAlign@cStatic@@QAEXH@Z 0058d560 f i cDivideBox.obj
 0002:00055570       ?SetUnit@cSpin@@QAEXK@Z    0058d570 f i cDivideBox.obj
 0002:00055580       ?SetMin@cSpin@@QAEXK@Z     0058d580 f i cDivideBox.obj
 0002:00055590       ?SetMax@cSpin@@QAEXK@Z     0058d590 f i cDivideBox.obj
 0002:000555a0       ??0cDivideBox@@QAE@XZ      0058d5a0 f   cDivideBox.obj
 0002:000555f0       ??1cDivideBox@@UAE@XZ      0058d5f0 f   cDivideBox.obj
 0002:00055600       ?CreateDivideBox@cDivideBox@@QAEXJJJP6AXJPAXK00@Z100PAD@Z 0058d600 f   cDivideBox.obj
 0002:000557a0       ?ChangeKind@cDivideBox@@QAEXH@Z 0058d7a0 f   cDivideBox.obj
 0002:00055850       ?ActionEvent@cDivideBox@@UAEKPAVCMouse@@@Z 0058d850 f   cDivideBox.obj
 0002:000559b0       ?ActionKeyboardEvent@cDivideBox@@UAEKPAVCKeyboard@@@Z 0058d9b0 f   cDivideBox.obj
 0002:000559c0       ?ExcuteDBFunc@cDivideBox@@QAEXK@Z 0058d9c0 f   cDivideBox.obj
 0002:00055ad0       ?SetValue@cDivideBox@@QAEXK@Z 0058dad0 f   cDivideBox.obj
 0002:00055ae0       ?GetValue@cDivideBox@@QAEJXZ 0058dae0 f   cDivideBox.obj
 0002:00055b00       ?SetMaxValue@cDivideBox@@QAEXK@Z 0058db00 f   cDivideBox.obj
 0002:00055b20       ?SetMinValue@cDivideBox@@QAEXK@Z 0058db20 f   cDivideBox.obj
 0002:00055b40       ??_GcDivideBox@@UAEPAXI@Z  0058db40 f i cDivideBox.obj
 0002:00055b40       ??_EcDivideBox@@UAEPAXI@Z  0058db40 f i cDivideBox.obj
 0002:00055b70       ??0CCertificateDlg@@QAE@XZ 0058db70 f   CertificateDlg.obj
 0002:00055bc0       ??_ECCertificateDlg@@UAEPAXI@Z 0058dbc0 f i CertificateDlg.obj
 0002:00055bc0       ??_GCCertificateDlg@@UAEPAXI@Z 0058dbc0 f i CertificateDlg.obj
 0002:00055bf0       ??1CCertificateDlg@@UAE@XZ 0058dbf0 f   CertificateDlg.obj
 0002:00055c00       ?Linking@CCertificateDlg@@QAEXXZ 0058dc00 f   CertificateDlg.obj
 0002:00055cc0       ?OnActionEvent@CCertificateDlg@@UAEXJPAXK@Z 0058dcc0 f   CertificateDlg.obj
 0002:00055e40       ?MakeRandomNumber@CCertificateDlg@@QAEXXZ 0058de40 f   CertificateDlg.obj
 0002:00055ed0       ?SetFontIdx@cWindow@@QAEXG@Z 0058ded0 f i cMsgBox.obj
 0002:00055ee0       ?SetMovable@cWindow@@QAEXH@Z 0058dee0 f i cMsgBox.obj
 0002:00055ef0       ?SetCaptionRect@cDialog@@QAEXPAUtagRECT@@@Z 0058def0 f i cMsgBox.obj
 0002:00055f10       ?GetTotalLine@cIMEex@@QAEHXZ 0058df10 f i cMsgBox.obj
 0002:00055f20       ?SetTextXY@cButton@@QAEXJJ@Z 0058df20 f i cMsgBox.obj
 0002:00055f40       ?SetAlign@cButton@@QAEXH@Z 0058df40 f i cMsgBox.obj
 0002:00055f50       ?SetFontColor@cTextArea@@QAEXK@Z 0058df50 f i cMsgBox.obj
 0002:00055f60       ?GetIMEex@cTextArea@@QAEPAVcIMEex@@XZ 0058df60 f i cMsgBox.obj
 0002:00055f70       ??0cMsgBox@@QAE@XZ         0058df70 f   cMsgBox.obj
 0002:00056030       ??1cMsgBox@@UAE@XZ         0058e030 f   cMsgBox.obj
 0002:00056040       ?InitMsgBox@cMsgBox@@SAXXZ 0058e040 f   cMsgBox.obj
 0002:00056150       ?MsgBox@cMsgBox@@QAEXJHPADP6AXJPAXK@Z@Z 0058e150 f   cMsgBox.obj
 0002:00056be0       ?ActionKeyboardEvent@cMsgBox@@UAEKPAVCKeyboard@@@Z 0058ebe0 f   cMsgBox.obj
 0002:00056bf0       ?ForcePressButton@cMsgBox@@QAEHJ@Z 0058ebf0 f   cMsgBox.obj
 0002:00056c50       ?ForceClose@cMsgBox@@QAEXXZ 0058ec50 f   cMsgBox.obj
 0002:00056cf0       ??_EcMsgBox@@UAEPAXI@Z     0058ecf0 f i cMsgBox.obj
 0002:00056cf0       ??_GcMsgBox@@UAEPAXI@Z     0058ecf0 f i cMsgBox.obj
 0002:00056d20       ?ActionEvent@cMsgBox@@UAEKPAVCMouse@@@Z 0058ed20 f   cMsgBox.obj
 0002:00056dc0       ?PressDefaultBtn@cMsgBox@@QAEHXZ 0058edc0 f   cMsgBox.obj
 0002:00056df0       ??0CGameNotifyManager@@QAE@XZ 0058edf0 f   GameNotifyManager.obj
 0002:00056e60       ??_GCGameNotifyManager@@UAEPAXI@Z 0058ee60 f i GameNotifyManager.obj
 0002:00056e60       ??_ECGameNotifyManager@@UAEPAXI@Z 0058ee60 f i GameNotifyManager.obj
 0002:00056e90       ??1CGameNotifyManager@@UAE@XZ 0058ee90 f   GameNotifyManager.obj
 0002:00056fb0       ??_GsGAMENOTIFY_MSG@@QAEPAXI@Z 0058efb0 f i GameNotifyManager.obj
 0002:00056fe0       ??1sGAMENOTIFY_MSG@@QAE@XZ 0058efe0 f i GameNotifyManager.obj
 0002:00056ff0       ?Init@CGameNotifyManager@@QAEXXZ 0058eff0 f   GameNotifyManager.obj
 0002:00057000       ?AddMsg@CGameNotifyManager@@QAEXPAUsGAMENOTIFY_MSG@@@Z 0058f000 f   GameNotifyManager.obj
 0002:00057010       ?Render@CGameNotifyManager@@QAEXXZ 0058f010 f   GameNotifyManager.obj
 0002:00057310       ?UpdateSubQuest@CGameNotifyManager@@QAEXPAUSEND_SUBQUEST_UPDATE@@@Z 0058f310 f   GameNotifyManager.obj
 0002:00057750       ??0sGAMENOTIFY_MSG@@QAE@XZ 0058f750 f i GameNotifyManager.obj
 0002:000577e0       ?GetTextHeight@cFont@@QAEJG@Z 0058f7e0 f i GameNotifyManager.obj
 0002:000577f0       ?GetQuestString@CQuestManager@@QAEPAVCQuestString@@K@Z 0058f7f0 f i GameNotifyManager.obj
 0002:00057800       ?GetTitle@CQuestString@@QAEPAVcPtrList@@XZ 0058f800 f i GameNotifyManager.obj
 0002:00057810       ?SetTitleStr@CQuestString@@QAEXPAD@Z 0058f810 f i GameNotifyManager.obj
 0002:00057860       ?EndSubQuest@CGameNotifyManager@@QAEXPAUSEND_QUEST_IDX@@@Z 0058f860 f   GameNotifyManager.obj
 0002:00057c10       ?GetData@?$CYHHashTable@VCQuestString@@@@QAEPAVCQuestString@@K@Z 0058fc10 f i GameNotifyManager.obj
 0002:00057c50       ??0line_node@@QAE@XZ       0058fc50 f i line_node.obj
 0002:00057c90       ??1line_node@@QAE@XZ       0058fc90 f i line_node.obj
 0002:00057cc0       ??_Gline_node@@QAEPAXI@Z   0058fcc0 f i line_node.obj
 0002:00057d00       ?release_line_node@line_node@@SAXPAPAV1@@Z 0058fd00 f   line_node.obj
 0002:00057d60       ?set_line_node@line_node@@SAXPADPAPAV1@@Z 0058fd60 f   line_node.obj
 0002:00057ef0       ??0CMouseCursor@@QAE@XZ    0058fef0 f   MouseCursor.obj
 0002:00057f00       ??1CMouseCursor@@UAE@XZ    0058ff00 f   MouseCursor.obj
 0002:00057f10       ?Init@CMouseCursor@@QAEXPAUHINSTANCE__@@@Z 0058ff10 f   MouseCursor.obj
 0002:00057fa0       ?Release@CMouseCursor@@QAEXXZ 0058ffa0 f   MouseCursor.obj
 0002:00057fb0       ?Process@CMouseCursor@@QAEXXZ 0058ffb0 f   MouseCursor.obj
 0002:00057fd0       ?SetCursor@CMouseCursor@@QAEXW4eCURSOR@@@Z 0058ffd0 f   MouseCursor.obj
 0002:00058000       ?SetActive@CMouseCursor@@QAEXH@Z 00590000 f   MouseCursor.obj
 0002:00058040       ?SetCheatMode@CMouseCursor@@QAEXH@Z 00590040 f   MouseCursor.obj
 0002:000580e0       ??_GCMouseCursor@@UAEPAXI@Z 005900e0 f i MouseCursor.obj
 0002:000580e0       ??_ECMouseCursor@@UAEPAXI@Z 005900e0 f i MouseCursor.obj
 0002:00058110       ??0CMousePointer@@QAE@XZ   00590110 f   MousePointer.obj
 0002:00058140       ??1CMousePointer@@UAE@XZ   00590140 f   MousePointer.obj
 0002:00058150       ?Linking@CMousePointer@@QAEXXZ 00590150 f   MousePointer.obj
 0002:00058160       ?MonsterAttack@CMousePointer@@QAEXXZ 00590160 f   MousePointer.obj
 0002:00058170       ?MonsterMouseOver@CMousePointer@@QAEXXZ 00590170 f   MousePointer.obj
 0002:00058180       ?MonsterLeave@CMousePointer@@QAEXXZ 00590180 f   MousePointer.obj
 0002:00058190       ??_ECMousePointer@@UAEPAXI@Z 00590190 f i MousePointer.obj
 0002:00058190       ??_GCMousePointer@@UAEPAXI@Z 00590190 f i MousePointer.obj
 0002:000581c0       ?SetXY@cMultiLineText@@QAEXJJ@Z 005901c0 f i StatusIconDlg.obj
 0002:000581e0       ?SetImageAlpha@cMultiLineText@@QAEXK@Z 005901e0 f i StatusIconDlg.obj
 0002:000581f0       ??0StaticString@@QAE@XZ    005901f0 f i StatusIconDlg.obj
 0002:00058200       ??1StaticString@@QAE@XZ    00590200 f i StatusIconDlg.obj
 0002:00058220       ??4StaticString@@QAEXPBD@Z 00590220 f i StatusIconDlg.obj
 0002:00058270       ?SetToolTipWindow@cWindowManager@@QAEXPAVcMultiLineText@@@Z 00590270 f i StatusIconDlg.obj
 0002:00058280       ?IsMouseOverUsed@cWindowManager@@QAEHXZ 00590280 f i StatusIconDlg.obj
 0002:00058290       ?IsInterfaceHided@cWindowManager@@QAEHXZ 00590290 f i StatusIconDlg.obj
 0002:000582a0       ?GetMouseX@CMouse@@QAEHXZ  005902a0 f i StatusIconDlg.obj
 0002:000582b0       ?GetMouseY@CMouse@@QAEHXZ  005902b0 f i StatusIconDlg.obj
 0002:000582c0       ?length@?$char_traits@D@std@@SAIPBD@Z 005902c0 f i StatusIconDlg.obj
 0002:000582e0       ?move@?$char_traits@D@std@@SAPADPADPBDI@Z 005902e0 f i StatusIconDlg.obj
 0002:000582f0       ??_EStaticString@@QAEPAXI@Z 005902f0 f i StatusIconDlg.obj
 0002:00058370       ??2@YAPAXIPAX@Z            00590370 f i StatusIconDlg.obj
 0002:00058380       ??3@YAXPAX0@Z              00590380 f i StatusIconDlg.obj
 0002:00058390       ?AddIcon@CStatusIconDlg@@QAEXPAVCObject@@GKK@Z 00590390 f   StatusIconDlg.obj
 0002:00058450       ?AddQuestTimeIcon@CStatusIconDlg@@QAEXPAVCObject@@G@Z 00590450 f   StatusIconDlg.obj
 0002:000584a0       ?RemoveIcon@CStatusIconDlg@@QAEXPAVCObject@@GK@Z 005904a0 f   StatusIconDlg.obj
 0002:00058550       ?RemoveQuestTimeIcon@CStatusIconDlg@@QAEXPAVCObject@@G@Z 00590550 f   StatusIconDlg.obj
 0002:000585d0       ?RemoveAllQuestTimeIcon@CStatusIconDlg@@QAEXXZ 005905d0 f   StatusIconDlg.obj
 0002:00058610       ?LoadDescription@CStatusIconDlg@@AAEXXZ 00590610 f   StatusIconDlg.obj
 0002:00058800       ?Init@CStatusIconDlg@@QAEXPAVCObject@@PAUVECTOR2@@H@Z 00590800 f   StatusIconDlg.obj
 0002:00058980       ?SetOneMinuteToShopItem@CStatusIconDlg@@QAEXK@Z 00590980 f   StatusIconDlg.obj
 0002:00058990       ?SetIconSize@CStatusIconDlg@@QAEXMM@Z 00590990 f   StatusIconDlg.obj
 0002:000589e0       ?GetDataNum@?$CYHHashTable@UStatusInfo@@@@QAEKXZ 005909e0 f i StatusIconDlg.obj
 0002:000589f0       ?Initialize@?$CYHHashTable@UStatusInfo@@@@QAE_NK@Z 005909f0 f i StatusIconDlg.obj
 0002:00058a80       ?GetData@?$CYHHashTable@UStatusInfo@@@@QAEPAUStatusInfo@@K@Z 00590a80 f i StatusIconDlg.obj
 0002:00058ac0       ?GetData@?$CYHHashTable@UStatusInfo@@@@QAEPAUStatusInfo@@XZ 00590ac0 f i StatusIconDlg.obj
 0002:00058ae0       ?SetPositionHead@?$CYHHashTable@UStatusInfo@@@@QAEXXZ 00590ae0 f i StatusIconDlg.obj
 0002:00058af0       ?RemoveAll@?$CYHHashTable@UStatusInfo@@@@QAEXXZ 00590af0 f i StatusIconDlg.obj
 0002:00058b70       ??0?$CYHHashTable@UStatusInfo@@@@QAE@XZ 00590b70 f i StatusIconDlg.obj
 0002:00058b90       ??1?$CYHHashTable@UStatusInfo@@@@QAE@XZ 00590b90 f i StatusIconDlg.obj
 0002:00058bc0       ?empty@?$list@PAUStatusInfo@@V?$allocator@PAUStatusInfo@@@std@@@std@@QBE_NXZ 00590bc0 f i StatusIconDlg.obj
 0002:00058bd0       ?AddList@?$CYHHashTable@UStatusInfo@@@@QAEPAULIST@1@PAUBUCKET@1@@Z 00590bd0 f i StatusIconDlg.obj
 0002:00058c30       ?RemoveList@?$CYHHashTable@UStatusInfo@@@@QAEXPAULIST@1@@Z 00590c30 f i StatusIconDlg.obj
 0002:00058c80       ?_Nextnode@?$list@PAUStatusInfo@@V?$allocator@PAUStatusInfo@@@std@@@std@@KAAAPAU_Node@?$_List_nod@PAUStatusInfo@@V?$allocator@PAUStatusInfo@@@std@@@2@PAU342@@Z 00590c80 f i StatusIconDlg.obj
 0002:00058c90       ?_Prevnode@?$list@PAUStatusInfo@@V?$allocator@PAUStatusInfo@@@std@@@std@@KAAAPAU_Node@?$_List_nod@PAUStatusInfo@@V?$allocator@PAUStatusInfo@@@std@@@2@PAU342@@Z 00590c90 f i StatusIconDlg.obj
 0002:00058ca0       ??0?$allocator@PAUStatusInfo@@@std@@QAE@XZ 00590ca0 f i StatusIconDlg.obj
 0002:00058cb0       ?deallocate@?$allocator@U_Node@?$_List_nod@PAUStatusInfo@@V?$allocator@PAUStatusInfo@@@std@@@std@@@std@@QAEXPAU_Node@?$_List_nod@PAUStatusInfo@@V?$allocator@PAUStatusInfo@@@std@@@2@I@Z 00590cb0 f i StatusIconDlg.obj
 0002:00058cd0       ??Econst_iterator@?$list@PAUStatusInfo@@V?$allocator@PAUStatusInfo@@@std@@@std@@QAEAAV012@XZ 00590cd0 f i StatusIconDlg.obj
 0002:00058ce0       ??8const_iterator@?$list@PAUStatusInfo@@V?$allocator@PAUStatusInfo@@@std@@@std@@QBE_NABV012@@Z 00590ce0 f i StatusIconDlg.obj
 0002:00058d00       ?_Mynode@const_iterator@?$list@PAUStatusInfo@@V?$allocator@PAUStatusInfo@@@std@@@std@@QBEPAU_Node@?$_List_nod@PAUStatusInfo@@V?$allocator@PAUStatusInfo@@@std@@@3@XZ 00590d00 f i StatusIconDlg.obj
 0002:00058d10       ??0BUCKET@?$CYHHashTable@UStatusInfo@@@@QAE@PAUStatusInfo@@K@Z 00590d10 f i StatusIconDlg.obj
 0002:00058d30       ?_Myval@?$list@PAUStatusInfo@@V?$allocator@PAUStatusInfo@@@std@@@std@@KAAAPAUStatusInfo@@PAU_Node@?$_List_nod@PAUStatusInfo@@V?$allocator@PAUStatusInfo@@@std@@@2@@Z 00590d30 f i StatusIconDlg.obj
 0002:00058d40       ??0?$allocator@PAUStatusInfo@@@std@@QAE@ABV01@@Z 00590d40 f i StatusIconDlg.obj
 0002:00058d50       ??0const_iterator@?$list@PAUStatusInfo@@V?$allocator@PAUStatusInfo@@@std@@@std@@QAE@PAU_Node@?$_List_nod@PAUStatusInfo@@V?$allocator@PAUStatusInfo@@@std@@@2@@Z 00590d50 f i StatusIconDlg.obj
 0002:00058d60       ?_Nextnode@?$list@UStatusInfo@@V?$allocator@UStatusInfo@@@std@@@std@@KAAAPAU_Node@?$_List_nod@UStatusInfo@@V?$allocator@UStatusInfo@@@std@@@2@PAU342@@Z 00590d60 f i StatusIconDlg.obj
 0002:00058d70       ?_Prevnode@?$list@UStatusInfo@@V?$allocator@UStatusInfo@@@std@@@std@@KAAAPAU_Node@?$_List_nod@UStatusInfo@@V?$allocator@UStatusInfo@@@std@@@2@PAU342@@Z 00590d70 f i StatusIconDlg.obj
 0002:00058d80       ?_Mynode@const_iterator@?$list@UStatusInfo@@V?$allocator@UStatusInfo@@@std@@@std@@QBEPAU_Node@?$_List_nod@UStatusInfo@@V?$allocator@UStatusInfo@@@std@@@3@XZ 00590d80 f i StatusIconDlg.obj
 0002:00058d90       ?deallocate@?$allocator@U_Node@?$_List_nod@UStatusInfo@@V?$allocator@UStatusInfo@@@std@@@std@@@std@@QAEXPAU_Node@?$_List_nod@UStatusInfo@@V?$allocator@UStatusInfo@@@std@@@2@I@Z 00590d90 f i StatusIconDlg.obj
 0002:00058db0       ??0const_iterator@?$list@UStatusInfo@@V?$allocator@UStatusInfo@@@std@@@std@@QAE@PAU_Node@?$_List_nod@UStatusInfo@@V?$allocator@UStatusInfo@@@std@@@2@@Z 00590db0 f i StatusIconDlg.obj
 0002:00058dc0       ??0_Node@?$_List_nod@PAUStatusInfo@@V?$allocator@PAUStatusInfo@@@std@@@std@@QAE@PAU012@0ABQAUStatusInfo@@@Z 00590dc0 f i StatusIconDlg.obj
 0002:00058df0       ??0_Node@?$_List_nod@UStatusInfo@@V?$allocator@UStatusInfo@@@std@@@std@@QAE@PAU012@0ABUStatusInfo@@@Z 00590df0 f i StatusIconDlg.obj
 0002:00058e40       ?max_size@?$allocator@PAUStatusInfo@@@std@@QBEIXZ 00590e40 f i StatusIconDlg.obj
 0002:00058e50       ?max_size@?$allocator@UStatusInfo@@@std@@QBEIXZ 00590e50 f i StatusIconDlg.obj
 0002:00058e60       ??$_Destroy@U_Node@?$_List_nod@PAUStatusInfo@@V?$allocator@PAUStatusInfo@@@std@@@std@@@std@@YAXPAU_Node@?$_List_nod@PAUStatusInfo@@V?$allocator@PAUStatusInfo@@@std@@@0@@Z 00590e60 f i StatusIconDlg.obj
 0002:00058e70       ??$?0PAUStatusInfo@@@?$allocator@PAU_Node@?$_List_nod@PAUStatusInfo@@V?$allocator@PAUStatusInfo@@@std@@@std@@@std@@QAE@ABV?$allocator@PAUStatusInfo@@@1@@Z 00590e70 f i StatusIconDlg.obj
 0002:00058e80       ??$_Allocate@U_Node@?$_List_nod@PAUStatusInfo@@V?$allocator@PAUStatusInfo@@@std@@@std@@@std@@YAPAU_Node@?$_List_nod@PAUStatusInfo@@V?$allocator@PAUStatusInfo@@@std@@@0@IPAU120@@Z 00590e80 f i StatusIconDlg.obj
 0002:00058ea0       ??$_Construct@PAU_Node@?$_List_nod@PAUStatusInfo@@V?$allocator@PAUStatusInfo@@@std@@@std@@PAU123@@std@@YAXPAPAU_Node@?$_List_nod@PAUStatusInfo@@V?$allocator@PAUStatusInfo@@@std@@@0@ABQAU120@@Z 00590ea0 f i StatusIconDlg.obj
 0002:00058ec0       ??$_Destroy@PAU_Node@?$_List_nod@PAUStatusInfo@@V?$allocator@PAUStatusInfo@@@std@@@std@@@std@@YAXPAPAU_Node@?$_List_nod@PAUStatusInfo@@V?$allocator@PAUStatusInfo@@@std@@@0@@Z 00590ec0 f i StatusIconDlg.obj
 0002:00058ed0       ??$?0PAUStatusInfo@@@?$allocator@U_Node@?$_List_nod@PAUStatusInfo@@V?$allocator@PAUStatusInfo@@@std@@@std@@@std@@QAE@ABV?$allocator@PAUStatusInfo@@@1@@Z 00590ed0 f i StatusIconDlg.obj
 0002:00058ee0       ??$_Allocate@U_Node@?$_List_nod@UStatusInfo@@V?$allocator@UStatusInfo@@@std@@@std@@@std@@YAPAU_Node@?$_List_nod@UStatusInfo@@V?$allocator@UStatusInfo@@@std@@@0@IPAU120@@Z 00590ee0 f i StatusIconDlg.obj
 0002:00058f00       ?size@?$basic_string@DU?$char_traits@D@std@@V?$allocator@D@2@@std@@QBEIXZ 00590f00 f i StatusIconDlg.obj
 0002:00058f10       ?_Inside@?$basic_string@DU?$char_traits@D@std@@V?$allocator@D@2@@std@@IAE_NPBD@Z 00590f10 f i StatusIconDlg.obj
 0002:00058f60       ?max_size@?$allocator@D@std@@QBEIXZ 00590f60 f i StatusIconDlg.obj
 0002:00058f70       ??$_Allocate@D@std@@YAPADIPAD@Z 00590f70 f i StatusIconDlg.obj
 0002:00058f90       ?Render@CStatusIconDlg@@UAEXXZ 00590f90 f   StatusIconDlg.obj
 0002:000595b0       ?Add@?$CYHHashTable@UStatusInfo@@@@QAE_NPAUStatusInfo@@K@Z 005915b0 f i StatusIconDlg.obj
 0002:00059690       ?Remove@?$CYHHashTable@UStatusInfo@@@@QAEXK@Z 00591690 f i StatusIconDlg.obj
 0002:00059760       ??Eiterator@?$list@PAUStatusInfo@@V?$allocator@PAUStatusInfo@@@std@@@std@@QAEAAV012@XZ 00591760 f i StatusIconDlg.obj
 0002:00059770       ??9const_iterator@?$list@PAUStatusInfo@@V?$allocator@PAUStatusInfo@@@std@@@std@@QBE_NABV012@@Z 00591770 f i StatusIconDlg.obj
 0002:00059790       ?destroy@?$allocator@U_Node@?$_List_nod@PAUStatusInfo@@V?$allocator@PAUStatusInfo@@@std@@@std@@@std@@QAEXPAU_Node@?$_List_nod@PAUStatusInfo@@V?$allocator@PAUStatusInfo@@@std@@@2@@Z 00591790 f i StatusIconDlg.obj
 0002:000597a0       ??0iterator@?$list@PAUStatusInfo@@V?$allocator@PAUStatusInfo@@@std@@@std@@QAE@PAU_Node@?$_List_nod@PAUStatusInfo@@V?$allocator@PAUStatusInfo@@@std@@@2@@Z 005917a0 f i StatusIconDlg.obj
 0002:000597b0       ??Eiterator@?$list@PAUStatusInfo@@V?$allocator@PAUStatusInfo@@@std@@@std@@QAE?AV012@H@Z 005917b0 f i StatusIconDlg.obj
 0002:000597d0       ??Dconst_iterator@?$list@PAUStatusInfo@@V?$allocator@PAUStatusInfo@@@std@@@std@@QBEABQAUStatusInfo@@XZ 005917d0 f i StatusIconDlg.obj
 0002:000597e0       ?allocate@?$allocator@U_Node@?$_List_nod@PAUStatusInfo@@V?$allocator@PAUStatusInfo@@@std@@@std@@@std@@QAEPAU_Node@?$_List_nod@PAUStatusInfo@@V?$allocator@PAUStatusInfo@@@std@@@2@I@Z 005917e0 f i StatusIconDlg.obj
 0002:00059800       ?construct@?$allocator@PAU_Node@?$_List_nod@PAUStatusInfo@@V?$allocator@PAUStatusInfo@@@std@@@std@@@std@@QAEXPAPAU_Node@?$_List_nod@PAUStatusInfo@@V?$allocator@PAUStatusInfo@@@std@@@2@ABQAU342@@Z 00591800 f i StatusIconDlg.obj
 0002:00059820       ?destroy@?$allocator@PAU_Node@?$_List_nod@PAUStatusInfo@@V?$allocator@PAUStatusInfo@@@std@@@std@@@std@@QAEXPAPAU_Node@?$_List_nod@PAUStatusInfo@@V?$allocator@PAUStatusInfo@@@std@@@2@@Z 00591820 f i StatusIconDlg.obj
 0002:00059830       ??0iterator@?$list@UStatusInfo@@V?$allocator@UStatusInfo@@@std@@@std@@QAE@PAU_Node@?$_List_nod@UStatusInfo@@V?$allocator@UStatusInfo@@@std@@@2@@Z 00591830 f i StatusIconDlg.obj
 0002:00059840       ?max_size@?$list@PAUStatusInfo@@V?$allocator@PAUStatusInfo@@@std@@@std@@QBEIXZ 00591840 f i StatusIconDlg.obj
 0002:00059850       ??0?$_List_nod@PAUStatusInfo@@V?$allocator@PAUStatusInfo@@@std@@@std@@IAE@V?$allocator@PAUStatusInfo@@@1@@Z 00591850 f i StatusIconDlg.obj
 0002:00059860       ?max_size@?$list@UStatusInfo@@V?$allocator@UStatusInfo@@@std@@@std@@QBEIXZ 00591860 f i StatusIconDlg.obj
 0002:00059870       ?allocate@?$allocator@U_Node@?$_List_nod@UStatusInfo@@V?$allocator@UStatusInfo@@@std@@@std@@@std@@QAEPAU_Node@?$_List_nod@UStatusInfo@@V?$allocator@UStatusInfo@@@std@@@2@I@Z 00591870 f i StatusIconDlg.obj
 0002:00059890       ?max_size@?$basic_string@DU?$char_traits@D@std@@V?$allocator@D@2@@std@@QBEIXZ 00591890 f i StatusIconDlg.obj
 0002:000598a0       ?allocate@?$allocator@D@std@@QAEPADI@Z 005918a0 f i StatusIconDlg.obj
 0002:000598c0       ?begin@?$list@PAUStatusInfo@@V?$allocator@PAUStatusInfo@@@std@@@std@@QAE?AViterator@12@XZ 005918c0 f i StatusIconDlg.obj
 0002:000598e0       ?end@?$list@PAUStatusInfo@@V?$allocator@PAUStatusInfo@@@std@@@std@@QAE?AViterator@12@XZ 005918e0 f i StatusIconDlg.obj
 0002:000598f0       ?erase@?$list@PAUStatusInfo@@V?$allocator@PAUStatusInfo@@@std@@@std@@QAE?AViterator@12@V312@@Z 005918f0 f i StatusIconDlg.obj
 0002:00059940       ?clear@?$list@PAUStatusInfo@@V?$allocator@PAUStatusInfo@@@std@@@std@@QAEXXZ 00591940 f i StatusIconDlg.obj
 0002:00059990       ??Diterator@?$list@PAUStatusInfo@@V?$allocator@PAUStatusInfo@@@std@@@std@@QBEAAPAUStatusInfo@@XZ 00591990 f i StatusIconDlg.obj
 0002:000599a0       ?_Buynode@?$list@PAUStatusInfo@@V?$allocator@PAUStatusInfo@@@std@@@std@@IAEPAU_Node@?$_List_nod@PAUStatusInfo@@V?$allocator@PAUStatusInfo@@@std@@@2@XZ 005919a0 f i StatusIconDlg.obj
 0002:000599c0       ?_Tidy@?$list@PAUStatusInfo@@V?$allocator@PAUStatusInfo@@@std@@@std@@IAEXXZ 005919c0 f i StatusIconDlg.obj
 0002:000599f0       ?end@?$list@UStatusInfo@@V?$allocator@UStatusInfo@@@std@@@std@@QAE?AViterator@12@XZ 005919f0 f i StatusIconDlg.obj
 0002:00059a00       ?_Buynode@?$list@PAUStatusInfo@@V?$allocator@PAUStatusInfo@@@std@@@std@@IAEPAU_Node@?$_List_nod@PAUStatusInfo@@V?$allocator@PAUStatusInfo@@@std@@@2@PAU342@0ABQAUStatusInfo@@@Z 00591a00 f i StatusIconDlg.obj
 0002:00059a30       ??0?$_List_ptr@PAUStatusInfo@@V?$allocator@PAUStatusInfo@@@std@@@std@@IAE@V?$allocator@PAUStatusInfo@@@1@@Z 00591a30 f i StatusIconDlg.obj
 0002:00059a40       ?_Buynode@?$list@UStatusInfo@@V?$allocator@UStatusInfo@@@std@@@std@@IAEPAU_Node@?$_List_nod@UStatusInfo@@V?$allocator@UStatusInfo@@@std@@@2@PAU342@0ABUStatusInfo@@@Z 00591a40 f i StatusIconDlg.obj
 0002:00059aa0       ?erase@?$basic_string@DU?$char_traits@D@std@@V?$allocator@D@2@@std@@QAEAAV12@II@Z 00591aa0 f i StatusIconDlg.obj
 0002:00059b40       ?_Copy@?$basic_string@DU?$char_traits@D@std@@V?$allocator@D@2@@std@@IAEXII@Z 00591b40 f i StatusIconDlg.obj
 0002:00059cd0       ?Release@CStatusIconDlg@@QAEXXZ 00591cd0 f   StatusIconDlg.obj
 0002:00059df0       ?UpdateSkillTime@CStatusIconDlg@@QAEXKKK@Z 00591df0 f   StatusIconDlg.obj
 0002:00059e80       ?UpdateSkillCount@CStatusIconDlg@@QAEXKKG@Z 00591e80 f   StatusIconDlg.obj
 0002:00059f10       ??1?$list@PAUStatusInfo@@V?$allocator@PAUStatusInfo@@@std@@@std@@QAE@XZ 00591f10 f i StatusIconDlg.obj
 0002:00059f40       ?front@?$list@PAUStatusInfo@@V?$allocator@PAUStatusInfo@@@std@@@std@@QAEAAPAUStatusInfo@@XZ 00591f40 f i StatusIconDlg.obj
 0002:00059f50       ?pop_front@?$list@PAUStatusInfo@@V?$allocator@PAUStatusInfo@@@std@@@std@@QAEXXZ 00591f50 f i StatusIconDlg.obj
 0002:00059f90       ??0?$_List_val@PAUStatusInfo@@V?$allocator@PAUStatusInfo@@@std@@@std@@IAE@V?$allocator@PAUStatusInfo@@@1@@Z 00591f90 f i StatusIconDlg.obj
 0002:00059fa0       ?_Grow@?$basic_string@DU?$char_traits@D@std@@V?$allocator@D@2@@std@@IAE_NI_N@Z 00591fa0 f i StatusIconDlg.obj
 0002:0005a0a0       ??1logic_error@std@@UAE@XZ 005920a0 f i StatusIconDlg.obj
 0002:0005a0e0       ?what@logic_error@std@@UBEPBDXZ 005920e0 f i StatusIconDlg.obj
 0002:0005a100       ??_Glogic_error@std@@UAEPAXI@Z 00592100 f i StatusIconDlg.obj
 0002:0005a100       ??_Elogic_error@std@@UAEPAXI@Z 00592100 f i StatusIconDlg.obj
 0002:0005a130       ??1CStatusIconDlg@@UAE@XZ  00592130 f   StatusIconDlg.obj
 0002:0005a250       ?RemoveSkillIcon@CStatusIconDlg@@QAEXKK@Z 00592250 f   StatusIconDlg.obj
 0002:0005a3c0       ??0?$list@PAUStatusInfo@@V?$allocator@PAUStatusInfo@@@std@@@std@@QAE@XZ 005923c0 f i StatusIconDlg.obj
 0002:0005a3e0       ?assign@?$basic_string@DU?$char_traits@D@std@@V?$allocator@D@2@@std@@QAEAAV12@ABV12@II@Z 005923e0 f i StatusIconDlg.obj
 0002:0005a500       ?assign@?$basic_string@DU?$char_traits@D@std@@V?$allocator@D@2@@std@@QAEAAV12@PBDI@Z 00592500 f i StatusIconDlg.obj
 0002:0005a630       ??0CStatusIconDlg@@QAE@XZ  00592630 f   StatusIconDlg.obj
 0002:0005a7b0       ??_GCStatusIconDlg@@UAEPAXI@Z 005927b0 f i StatusIconDlg.obj
 0002:0005a7b0       ??_ECStatusIconDlg@@UAEPAXI@Z 005927b0 f i StatusIconDlg.obj
 0002:0005a7e0       ??0?$basic_string@DU?$char_traits@D@std@@V?$allocator@D@2@@std@@QAE@ABV01@@Z 005927e0 f i StatusIconDlg.obj
 0002:0005a810       ?assign@?$basic_string@DU?$char_traits@D@std@@V?$allocator@D@2@@std@@QAEAAV12@PBD@Z 00592810 f i StatusIconDlg.obj
 0002:0005a840       ??0logic_error@std@@QAE@ABV?$basic_string@DU?$char_traits@D@std@@V?$allocator@D@2@@1@@Z 00592840 f i StatusIconDlg.obj
 0002:0005a8c0       ??0length_error@std@@QAE@ABV?$basic_string@DU?$char_traits@D@std@@V?$allocator@D@2@@1@@Z 005928c0 f i StatusIconDlg.obj
 0002:0005a8e0       ??_Elength_error@std@@UAEPAXI@Z 005928e0 f i StatusIconDlg.obj
 0002:0005a8e0       ??_Glength_error@std@@UAEPAXI@Z 005928e0 f i StatusIconDlg.obj
 0002:0005a910       ??1length_error@std@@UAE@XZ 00592910 f i StatusIconDlg.obj
 0002:0005a950       ??0?$basic_string@DU?$char_traits@D@std@@V?$allocator@D@2@@std@@QAE@PBD@Z 00592950 f i StatusIconDlg.obj
 0002:0005a9a0       ?_Incsize@?$list@PAUStatusInfo@@V?$allocator@PAUStatusInfo@@@std@@@std@@IAEXI@Z 005929a0 f i StatusIconDlg.obj
 0002:0005aa60       ??0logic_error@std@@QAE@ABV01@@Z 00592a60 f i StatusIconDlg.obj
 0002:0005aae0       ?_Incsize@?$list@UStatusInfo@@V?$allocator@UStatusInfo@@@std@@@std@@IAEXI@Z 00592ae0 f i StatusIconDlg.obj
 0002:0005aba0       ??0length_error@std@@QAE@ABV01@@Z 00592ba0 f i StatusIconDlg.obj
 0002:0005abc0       ?_Insert@?$list@PAUStatusInfo@@V?$allocator@PAUStatusInfo@@@std@@@std@@QAEXViterator@12@ABQAUStatusInfo@@@Z 00592bc0 f i StatusIconDlg.obj
 0002:0005ac00       ?_Insert@?$list@UStatusInfo@@V?$allocator@UStatusInfo@@@std@@@std@@QAEXViterator@12@ABUStatusInfo@@@Z 00592c00 f i StatusIconDlg.obj
 0002:0005ac40       ?push_back@?$list@PAUStatusInfo@@V?$allocator@PAUStatusInfo@@@std@@@std@@QAEXABQAUStatusInfo@@@Z 00592c40 f i StatusIconDlg.obj
 0002:0005ac80       ?push_back@?$list@UStatusInfo@@V?$allocator@UStatusInfo@@@std@@@std@@QAEXABUStatusInfo@@@Z 00592c80 f i StatusIconDlg.obj
 0002:0005acc0       ?AddSkillIcon@CStatusIconDlg@@QAEXKKKG@Z 00592cc0 f   StatusIconDlg.obj
 0002:0005af00       ?Copy@CStatusIconDlg@@QAEXAAV?$list@UStatusInfo@@V?$allocator@UStatusInfo@@@std@@@std@@@Z 00592f00 f   StatusIconDlg.obj
 0002:0005b090       ??4cImageBase@@QAEAAV0@ABV0@@Z 00593090 f i cAni.obj
 0002:0005b0b0       ??0cAni@@QAE@XZ            005930b0 f   cAni.obj
 0002:0005b120       ?SetActive@cObject@@UAEXH@Z 00593120 f i cAni.obj
 0002:0005b140       ?SetDisable@cObject@@UAEXH@Z 00593140 f i cAni.obj
 0002:0005b150       ?ActionKeyboardEvent@cWindow@@UAEKPAVCKeyboard@@@Z 00593150 f i cAni.obj
 0002:0005b160       ?SetAbsXY@cWindow@@UAEXJJ@Z 00593160 f i cAni.obj
 0002:0005b190       ?SetAutoClose@cWindow@@UAEXH@Z 00593190 f i cAni.obj
 0002:0005b1a0       ?IsAutoClose@cWindow@@UAEHXZ 005931a0 f i cAni.obj
 0002:0005b1b0       ?SetAlpha@cWindow@@UAEXE@Z 005931b0 f i cAni.obj
 0002:0005b1d0       ?SetOptionAlpha@cWindow@@UAEXK@Z 005931d0 f i cAni.obj
 0002:0005b1e0       ??1cAni@@UAE@XZ            005931e0 f   cAni.obj
 0002:0005b290       ?ActionEvent@cAni@@UAEKPAVCMouse@@@Z 00593290 f   cAni.obj
 0002:0005b3a0       ?Render@cAni@@UAEXXZ       005933a0 f   cAni.obj
 0002:0005b410       ?SetMaxSprite@cAni@@QAEXG@Z 00593410 f   cAni.obj
 0002:0005b510       ??_EcImage@@UAEPAXI@Z      00593510 f i cAni.obj
 0002:0005b580       ?Add@cAni@@UAEXPAVcWindow@@@Z 00593580 f   cAni.obj
 0002:0005b5a0       ??4cImage@@QAEAAV0@ABV0@@Z 005935a0 f i cAni.obj
 0002:0005b5f0       ??_GcAni@@UAEPAXI@Z        005935f0 f i cAni.obj
 0002:0005b5f0       ??_EcAni@@UAEPAXI@Z        005935f0 f i cAni.obj
 0002:0005b620       ?AddSprite@cAni@@QAEXPAVcImage@@G@Z 00593620 f   cAni.obj
 0002:0005b6e0       ?SetParam@ANISHAKEINFO@@QAEXQAVANISHAKEVECTOR@@K@Z 005936e0 f i cAnimationManager.obj
 0002:0005b700       ?GetCaptionRect@cDialog@@QAEPAUtagRECT@@XZ 00593700 f i cAnimationManager.obj
 0002:0005b710       ?Init@cAnimationManager@@QAEXXZ 00593710 f   cAnimationManager.obj
 0002:0005b740       ?RollBack@cAnimationManager@@IAEXXZ 00593740 f   cAnimationManager.obj
 0002:0005b770       ?StartShake@cAnimationManager@@QAEXW4ESHAKETYPE@@PAVcWindow@@@Z 00593770 f   cAnimationManager.obj
 0002:0005b800       ?ShakeProcess@cAnimationManager@@QAEXXZ 00593800 f   cAnimationManager.obj
 0002:0005b8c0       ?MagProcess@cAnimationManager@@SAHPAUtagRECT@@PAVcWindow@@PAUVECTOR2@@@Z 005938c0 f   cAnimationManager.obj
 0002:0005bc40       ??0?$cLinkedList@VFADE_INFO@cAnimationManager@@@@QAE@XZ 00593c40 f i cAnimationManager.obj
 0002:0005bc60       ?AddTail@?$cLinkedList@VFADE_INFO@cAnimationManager@@@@QAEXPAVFADE_INFO@cAnimationManager@@@Z 00593c60 f i cAnimationManager.obj
 0002:0005bcc0       ?GetFirstPos@?$cLinkedList@VFADE_INFO@cAnimationManager@@@@QAEPAXXZ 00593cc0 f i cAnimationManager.obj
 0002:0005bcd0       ?GetNextPos@?$cLinkedList@VFADE_INFO@cAnimationManager@@@@QAEPAVFADE_INFO@cAnimationManager@@AAPAX@Z 00593cd0 f i cAnimationManager.obj
 0002:0005bcf0       ?GetCount@?$cLinkedList@VFADE_INFO@cAnimationManager@@@@QAEHXZ 00593cf0 f i cAnimationManager.obj
 0002:0005bd00       ?GetAt@?$cLinkedList@VFADE_INFO@cAnimationManager@@@@QAEPAVFADE_INFO@cAnimationManager@@H@Z 00593d00 f i cAnimationManager.obj
 0002:0005bd40       ?DeleteAll@?$cLinkedList@VFADE_INFO@cAnimationManager@@@@QAEXXZ 00593d40 f i cAnimationManager.obj
 0002:0005bd90       ?DeleteHead@?$cLinkedList@VFADE_INFO@cAnimationManager@@@@QAEPAVFADE_INFO@cAnimationManager@@XZ 00593d90 f i cAnimationManager.obj
 0002:0005be00       ?DeleteTail@?$cLinkedList@VFADE_INFO@cAnimationManager@@@@QAEPAVFADE_INFO@cAnimationManager@@XZ 00593e00 f i cAnimationManager.obj
 0002:0005be70       ?FindFadeNode@cAnimationManager@@IAEHPAVcDialog@@@Z 00593e70 f   cAnimationManager.obj
 0002:0005bea0       ?EndFadeAll@cAnimationManager@@QAEXXZ 00593ea0 f   cAnimationManager.obj
 0002:0005bee0       ??1?$cLinkedList@VFADE_INFO@cAnimationManager@@@@UAE@XZ 00593ee0 f i cAnimationManager.obj
 0002:0005bef0       ?DeleteAt@?$cLinkedList@VFADE_INFO@cAnimationManager@@@@QAEPAVFADE_INFO@cAnimationManager@@H@Z 00593ef0 f i cAnimationManager.obj
 0002:0005bf90       ??_G?$cLinkedList@VFADE_INFO@cAnimationManager@@@@UAEPAXI@Z 00593f90 f i cAnimationManager.obj
 0002:0005bf90       ??_E?$cLinkedList@VFADE_INFO@cAnimationManager@@@@UAEPAXI@Z 00593f90 f i cAnimationManager.obj
 0002:0005bfc0       ??0cAnimationManager@@QAE@XZ 00593fc0 f   cAnimationManager.obj
 0002:0005c000       ??1cAnimationManager@@UAE@XZ 00594000 f   cAnimationManager.obj
 0002:0005c060       ?StartFade@cAnimationManager@@QAEXEFFKPAVcDialog@@@Z 00594060 f   cAnimationManager.obj
 0002:0005c170       ?FadeProcess@cAnimationManager@@QAEXXZ 00594170 f   cAnimationManager.obj
 0002:0005c2f0       ??_GcAnimationManager@@UAEPAXI@Z 005942f0 f i cAnimationManager.obj
 0002:0005c2f0       ??_EcAnimationManager@@UAEPAXI@Z 005942f0 f i cAnimationManager.obj
 0002:0005c320       ??0cBrowser@@QAE@XZ        00594320 f   cBrowser.obj
 0002:0005c370       ?Add@cBrowser@@UAEXPAVcWindow@@@Z 00594370 f i cBrowser.obj
 0002:0005c380       ??_EcBrowser@@UAEPAXI@Z    00594380 f i cBrowser.obj
 0002:0005c380       ??_GcBrowser@@UAEPAXI@Z    00594380 f i cBrowser.obj
 0002:0005c3b0       ??0DWebBrowserEventsImpl@@QAE@XZ 005943b0 f i cBrowser.obj
 0002:0005c3d0       ?QueryInterface@DWebBrowserEventsImpl@@EAGJABU_GUID@@PAPAX@Z 005943d0 f i cBrowser.obj
 0002:0005c470       _==                        00594470 f i cBrowser.obj
 0002:0005c480       _IsEqualGUID               00594480 f i cBrowser.obj
 0002:0005c4a0       ?AddRef@DWebBrowserEventsImpl@@EAGKXZ 005944a0 f i cBrowser.obj
 0002:0005c4b0       ?Release@DWebBrowserEventsImpl@@EAGKXZ 005944b0 f i cBrowser.obj
 0002:0005c4c0       ?GetTypeInfoCount@DWebBrowserEventsImpl@@EAGJPAI@Z 005944c0 f i cBrowser.obj
 0002:0005c4d0       ?GetTypeInfo@DWebBrowserEventsImpl@@EAGJIKPAPAUITypeInfo@@@Z 005944d0 f i cBrowser.obj
 0002:0005c4e0       ?GetIDsOfNames@DWebBrowserEventsImpl@@EAGJABU_GUID@@PAPAGIKPAJ@Z 005944e0 f i cBrowser.obj
 0002:0005c4f0       ?Invoke@DWebBrowserEventsImpl@@EAGJJABU_GUID@@KGPAUtagDISPPARAMS@@PAUtagVARIANT@@PAUtagEXCEPINFO@@PAI@Z 005944f0 f i cBrowser.obj
 0002:0005c5f0       ??0_bstr_t@@QAE@PBD@Z      005945f0 f i cBrowser.obj
 0002:0005c680       ??0_bstr_t@@QAE@PBG@Z      00594680 f i cBrowser.obj
 0002:0005c710       ??1_bstr_t@@QAE@XZ         00594710 f i cBrowser.obj
 0002:0005c720       ?_Free@_bstr_t@@AAEXXZ     00594720 f i cBrowser.obj
 0002:0005c740       ??0Data_t@_bstr_t@@QAE@PBD@Z 00594740 f i cBrowser.obj
 0002:0005c770       ??0Data_t@_bstr_t@@QAE@PBG@Z 00594770 f i cBrowser.obj
 0002:0005c7c0       ?Release@Data_t@_bstr_t@@QAEKXZ 005947c0 f i cBrowser.obj
 0002:0005c800       ??2Data_t@_bstr_t@@SAPAXI@Z 00594800 f i cBrowser.obj
 0002:0005c810       ??_GData_t@_bstr_t@@AAEPAXI@Z 00594810 f i cBrowser.obj
 0002:0005c840       ??1Data_t@_bstr_t@@AAE@XZ  00594840 f i cBrowser.obj
 0002:0005c850       ?_Free@Data_t@_bstr_t@@AAEXXZ 00594850 f i cBrowser.obj
 0002:0005c880       ?BeforeNavigate@DWebBrowserEventsImpl@@AAEJV_bstr_t@@J0PAUtagVARIANT@@0PAF@Z 00594880 f i cBrowser.obj
 0002:0005c8b0       ?NavigateComplete@DWebBrowserEventsImpl@@AAEJV_bstr_t@@@Z 005948b0 f i cBrowser.obj
 0002:0005c8d0       ??0DWebBrowserEvents@@QAE@XZ 005948d0 f i cBrowser.obj
 0002:0005c8e0       ??1cBrowser@@UAE@XZ        005948e0 f   cBrowser.obj
 0002:0005c920       ??1?$CComQIPtr@UIWebBrowser2@@$1?_GUID_d30c1661_cdaf_11d0_8a3e_00c04fc9e26e@@3U__s_GUID@@B@ATL@@QAE@XZ 00594920 f i cBrowser.obj
 0002:0005c930       ?Init@cBrowser@@UAEXJJGGPAVcImage@@J@Z 00594930 f   cBrowser.obj
 0002:0005ca70       _AtlAxGetControl@8         00594a70 f i cBrowser.obj
 0002:0005cac0       ?SetAbsXY@cBrowser@@UAEXJJ@Z 00594ac0 f   cBrowser.obj
 0002:0005cb20       ?Navigate@cBrowser@@QAEXPAD@Z 00594b20 f   cBrowser.obj
 0002:0005cc90       ??B_bstr_t@@QBEPAGXZ       00594c90 f i cBrowser.obj
 0002:0005ccb0       ?GetWString@Data_t@_bstr_t@@QAEAAPAGXZ 00594cb0 f i cBrowser.obj
 0002:0005ccc0       ?SetActive@cBrowser@@UAEXH@Z 00594cc0 f   cBrowser.obj
 0002:0005cd10       ??0?$CComQIPtr@UIWebBrowser2@@$1?_GUID_d30c1661_cdaf_11d0_8a3e_00c04fc9e26e@@3U__s_GUID@@B@ATL@@QAE@XZ 00594d10 f i cBrowser.obj
 0002:0005cd20       ??4?$CComQIPtr@UIWebBrowser2@@$1?_GUID_d30c1661_cdaf_11d0_8a3e_00c04fc9e26e@@3U__s_GUID@@B@ATL@@QAEPAUIWebBrowser2@@PAUIUnknown@@@Z 00594d20 f i cBrowser.obj
 0002:0005cd40       ?SetMovedWnd@cWindow@@QAEXH@Z 00594d40 f i cButton.obj
 0002:0005cd50       ?IsMovedWnd@cWindow@@QAEHXZ 00594d50 f i cButton.obj
 0002:0005cd60       ?LButtonUp@CMouse@@QAEHXZ  00594d60 f i cButton.obj
 0002:0005cd70       ?RButtonUp@CMouse@@QAEHXZ  00594d70 f i cButton.obj
 0002:0005cd80       ?LButtonPressed@CMouse@@QAEHXZ 00594d80 f i cButton.obj
 0002:0005cd90       ?RButtonPressed@CMouse@@QAEHXZ 00594d90 f i cButton.obj
 0002:0005cda0       ??0cButton@@QAE@XZ         00594da0 f   cButton.obj
 0002:0005cee0       ??1cButton@@UAE@XZ         00594ee0 f   cButton.obj
 0002:0005cf60       ?ActionEvent@cButton@@UAEKPAVCMouse@@@Z 00594f60 f   cButton.obj
 0002:0005d1a0       ?SetRenderArea@cButton@@QAEXXZ 005951a0 f   cButton.obj
 0002:0005d350       ?SetText@cButton@@QAEXPADKKK@Z 00595350 f   cButton.obj
 0002:0005d420       ?SetTextValue@cButton@@QAEXK@Z 00595420 f   cButton.obj
 0002:0005d470       ?Add@cButton@@UAEXPAVcWindow@@@Z 00595470 f   cButton.obj
 0002:0005d490       ??_GcButton@@UAEPAXI@Z     00595490 f i cButton.obj
 0002:0005d490       ??_EcButton@@UAEPAXI@Z     00595490 f i cButton.obj
 0002:0005d4c0       ?Init@cButton@@UAEXJJGGPAVcImage@@00P6AXJPAXK@ZJ@Z 005954c0 f   cButton.obj
 0002:0005d5c0       ?Render@cButton@@UAEXXZ    005955c0 f   cButton.obj
 0002:0005d6d0       ??0cCheckBox@@QAE@XZ       005956d0 f   cCheckBox.obj
 0002:0005d780       ??1cCheckBox@@UAE@XZ       00595780 f   cCheckBox.obj
 0002:0005d800       ?ActionEvent@cCheckBox@@UAEKPAVCMouse@@@Z 00595800 f   cCheckBox.obj
 0002:0005d8a0       ?Render@cCheckBox@@UAEXXZ  005958a0 f   cCheckBox.obj
 0002:0005da30       ?Add@cCheckBox@@UAEXPAVcWindow@@@Z 00595a30 f   cCheckBox.obj
 0002:0005da50       ??_GcCheckBox@@UAEPAXI@Z   00595a50 f i cCheckBox.obj
 0002:0005da50       ??_EcCheckBox@@UAEPAXI@Z   00595a50 f i cCheckBox.obj
 0002:0005da80       ?Init@cCheckBox@@UAEXJJGGPAVcImage@@00P6AXJPAXK@ZJ@Z 00595a80 f   cCheckBox.obj
 0002:0005db70       ?SetParent@cObject@@QAEXPAV1@@Z 00595b70 f i cComboBox.obj
 0002:0005db80       ?GetRelX@cWindow@@QAEMXZ   00595b80 f i cComboBox.obj
 0002:0005db90       ?GetRelY@cWindow@@QAEMXZ   00595b90 f i cComboBox.obj
 0002:0005dba0       ??0cListItem@@QAE@XZ       00595ba0 f i cComboBox.obj
 0002:0005dbd0       ?RemoveAll@cListItem@@UAEXXZ 00595bd0 f i cComboBox.obj
 0002:0005dc20       ?RemoveItem@cListItem@@UAEXJ@Z 00595c20 f i cComboBox.obj
 0002:0005dc70       ?RemoveItem@cListItem@@UAEXPAD@Z 00595c70 f i cComboBox.obj
 0002:0005dd30       ?IsMouseDownUsed@cWindowManager@@QAEHXZ 00595d30 f i cComboBox.obj
 0002:0005dd40       ?SetMouseOverUsed@cWindowManager@@QAEXXZ 00595d40 f i cComboBox.obj
 0002:0005dd50       ?SetMouseDownUsed@cWindowManager@@QAEXXZ 00595d50 f i cComboBox.obj
 0002:0005dd60       ?Init@cComboBox@@UAEXJJGGPAVcImage@@P6AXJPAXK@ZJ@Z 00595d60 f   cComboBox.obj
 0002:0005ddb0       ?ActionEvent@cComboBox@@UAEKPAVCMouse@@@Z 00595db0 f   cComboBox.obj
 0002:0005de70       ?Add@cComboBox@@UAEXPAVcWindow@@@Z 00595e70 f   cComboBox.obj
 0002:0005df00       ?SetAbsXY@cComboBox@@UAEXJJ@Z 00595f00 f   cComboBox.obj
 0002:0005df90       ?SetMargin@cComboBox@@QAEXUtagRECT@@@Z 00595f90 f   cComboBox.obj
 0002:0005dfc0       ??1cListItem@@UAE@XZ       00595fc0 f i cComboBox.obj
 0002:0005e030       ?AddItem@cListItem@@UAEXPAU_ITEM@@@Z 00596030 f i cComboBox.obj
 0002:0005e090       ?AddItem@cListItem@@UAEXPAU_ITEM@@J@Z 00596090 f i cComboBox.obj
 0002:0005e110       ??_GcListItem@@UAEPAXI@Z   00596110 f i cComboBox.obj
 0002:0005e110       ??_EcListItem@@UAEPAXI@Z   00596110 f i cComboBox.obj
 0002:0005e140       ?GetItemCount@cComboBox@@QAEJXZ 00596140 f i cComboBox.obj
 0002:0005e150       ??0cComboBox@@QAE@XZ       00596150 f   cComboBox.obj
 0002:0005e2c0       ??_EcComboBox@@WBHM@AEPAXI@Z 005962c0 f i cComboBox.obj
 0002:0005e2d0       ??1cComboBox@@UAE@XZ       005962d0 f   cComboBox.obj
 0002:0005e3c0       ?InitComboList@cComboBox@@UAEXGPAVcImage@@G0G0G0@Z 005963c0 f   cComboBox.obj
 0002:0005e540       ?PtIdxInComboList@cComboBox@@QAEGJJ@Z 00596540 f   cComboBox.obj
 0002:0005e640       ?Render@cComboBox@@UAEXXZ  00596640 f   cComboBox.obj
 0002:0005ea80       ??_GcComboBox@@UAEPAXI@Z   00596a80 f i cComboBox.obj
 0002:0005ea80       ??_EcComboBox@@UAEPAXI@Z   00596a80 f i cComboBox.obj
 0002:0005eab0       ?ListMouseCheck@cComboBox@@UAEXPAVCMouse@@@Z 00596ab0 f   cComboBox.obj
 0002:0005ec20       ??0cDebugString@@QAE@XZ    00596c20 f   cDebugString.obj
 0002:0005ed30       ??0MSG_EXP_RESULT@@QAE@XZ  00596d30 f i cDebugString.obj
 0002:0005ed40       ??0MSG_DROPMONEY_RESULT@@QAE@XZ 00596d40 f i cDebugString.obj
 0002:0005ed50       ??0MSG_DROPITEM_RESULT@@QAE@XZ 00596d50 f i cDebugString.obj
 0002:0005ed60       ??1cDebugString@@QAE@XZ    00596d60 f   cDebugString.obj
 0002:0005ed70       ?set_debug_string@cDebugString@@QAEXGH@Z 00596d70 f   cDebugString.obj
 0002:0005ee10       ?print_debug_string@cDebugString@@QAEXXZ 00596e10 f   cDebugString.obj
 0002:0005ee60       ?print_debug_string@cDebugString@@QAEXGH@Z 00596e60 f   cDebugString.obj
 0002:0005ee70       ?SetPos@cDebugString@@QAEXEPAUVECTOR2@@@Z 00596e70 f   cDebugString.obj
 0002:0005ef60       ?SetOption@cDebugString@@QAEXEE@Z 00596f60 f   cDebugString.obj
 0002:0005ef90       ?print_npc_totalinfo@cDebugString@@QAEXXZ 00596f90 f   cDebugString.obj
 0002:0005f280       ?GetNpcTotalInfo@CNpc@@QAEPAUNPC_TOTALINFO@@XZ 00597280 f i cDebugString.obj
 0002:0005f290       ?print_npc_listinfo@cDebugString@@QAEXXZ 00597290 f   cDebugString.obj
 0002:0005f5e0       ?GetNpcListInfo@CNpc@@QAEPAUNPC_LIST@@XZ 005975e0 f i cDebugString.obj
 0002:0005f5f0       ?print_char_totalInfo@cDebugString@@QAEXXZ 005975f0 f   cDebugString.obj
 0002:0005f950       ?SetHpMpPoint@cDebugString@@QAEXEE@Z 00597950 f   cDebugString.obj
 0002:0005f970       ?print_hpmp_determination@cDebugString@@QAEXXZ 00597970 f   cDebugString.obj
 0002:000603a0       ?GetShopItemStats@CPlayer@@QAEPAUSHOPITEMOPTION@@XZ 005983a0 f i cDebugString.obj
 0002:000603b0       ?GetAvatarOption@CPlayer@@QAEPAUAVATARITEMOPTION@@XZ 005983b0 f i cDebugString.obj
 0002:000603c0       ?GetItemStats@CHero@@QAEAAUPlayerStat@@XZ 005983c0 f i cDebugString.obj
 0002:000603d0       ?SetExpInfo@cDebugString@@QAEXPAUMSG_EXP_RESULT@@@Z 005983d0 f   cDebugString.obj
 0002:00060400       ?print_ExpInfo@cDebugString@@QAEXXZ 00598400 f   cDebugString.obj
 0002:00061640       ?pow@@YAMMM@Z              00599640 f i cDebugString.obj
 0002:00061660       _powf                      00599660 f i cDebugString.obj
 0002:00061680       ?SetItemInfo@cDebugString@@QAEXPAUITEM_INFO@@@Z 00599680 f   cDebugString.obj
 0002:00061690       ?print_ItemInfo@cDebugString@@QAEXXZ 00599690 f   cDebugString.obj
 0002:00062960       ?Set_DropMoney@cDebugString@@QAEXPAUMSG_DROPMONEY_RESULT@@@Z 0059a960 f   cDebugString.obj
 0002:00062990       ?Set_DropItem@cDebugString@@QAEXPAUMSG_DROPITEM_RESULT@@@Z 0059a990 f   cDebugString.obj
 0002:000629b0       ?print_DropItem@cDebugString@@QAEXXZ 0059a9b0 f   cDebugString.obj
 0002:000633b0       ?GetUseOwnAlpha@cWindow@@QAEHXZ 0059b3b0 f i cDialog.obj
 0002:000633c0       ?SetDragStart@cWindowManager@@QAEXJJJJJ@Z 0059b3c0 f i cDialog.obj
 0002:00063410       ?IsClickInside@cButton@@QAEHXZ 0059b410 f i cDialog.obj
 0002:00063420       ??0cDialog@@QAE@XZ         0059b420 f   cDialog.obj
 0002:000634c0       ?DestroyCtrl@cDialog@@QAEXXZ 0059b4c0 f   cDialog.obj
 0002:00063520       ?Init@cDialog@@UAEXJJGGPAVcImage@@J@Z 0059b520 f   cDialog.obj
 0002:00063ae0       ?ActionEvent@cDialog@@UAEKPAVCMouse@@@Z 0059bae0 f   cDialog.obj
 0002:00063b40       ?ActionEventComponent@cDialog@@UAEKPAVCMouse@@@Z 0059bb40 f   cDialog.obj
 0002:00063bc0       ?ActionKeyboardEvent@cDialog@@UAEKPAVCKeyboard@@@Z 0059bbc0 f   cDialog.obj
 0002:00063be0       ?ActionKeyboardEventComponent@cDialog@@UAEKPAVCKeyboard@@@Z 0059bbe0 f   cDialog.obj
 0002:00063c60       ?Add@cDialog@@UAEXPAVcWindow@@@Z 0059bc60 f   cDialog.obj
 0002:00063ce0       ?SetActive@cDialog@@UAEXH@Z 0059bce0 f   cDialog.obj
 0002:00063d20       ?SetActiveRecursive@cDialog@@UAEXH@Z 0059bd20 f   cDialog.obj
 0002:00063d90       ?SetAlpha@cDialog@@UAEXE@Z 0059bd90 f   cDialog.obj
 0002:00063e00       ?SetOptionAlpha@cDialog@@UAEXK@Z 0059be00 f   cDialog.obj
 0002:00063e60       ?RenderWindow@cDialog@@UAEXXZ 0059be60 f   cDialog.obj
 0002:00063e70       ?RenderComponent@cDialog@@UAEXXZ 0059be70 f   cDialog.obj
 0002:00063ed0       ?PtInCaption@cDialog@@QAEHJJ@Z 0059bed0 f   cDialog.obj
 0002:00063f70       ?GetWindowForID@cDialog@@UAEPAVcWindow@@J@Z 0059bf70 f   cDialog.obj
 0002:00063fd0       ?SetAbsXY@cDialog@@UAEXJJ@Z 0059bfd0 f   cDialog.obj
 0002:00064080       ?SetDisable@cDialog@@UAEXH@Z 0059c080 f   cDialog.obj
 0002:000640e0       ??1cDialog@@UAE@XZ         0059c0e0 f   cDialog.obj
 0002:00064160       ?ActionEventWindow@cDialog@@UAEKPAVCMouse@@@Z 0059c160 f   cDialog.obj
 0002:00064360       ?Render@cDialog@@UAEXXZ    0059c360 f   cDialog.obj
 0002:00064380       ??_EcDialog@@UAEPAXI@Z     0059c380 f i cDialog.obj
 0002:00064380       ??_GcDialog@@UAEPAXI@Z     0059c380 f i cDialog.obj
 0002:000643b0       ?IsNull@cImageBase@@QBEHXZ 0059c3b0 f i cEditBox.obj
 0002:000643c0       ?SetFocus@cWindow@@QAEXH@Z 0059c3c0 f i cEditBox.obj
 0002:000643d0       ?GetInsertPos@cIMEex@@QAEPAUsInsertPos@@XZ 0059c3d0 f i cEditBox.obj
 0002:000643e0       ?GetValidCheckMethod@cIMEex@@QAEHXZ 0059c3e0 f i cEditBox.obj
 0002:000643f0       ?SetParentEdit@cIMEex@@QAEXPAVcEditBox@@@Z 0059c3f0 f i cEditBox.obj
 0002:00064400       ??0cEditBox@@QAE@XZ        0059c400 f   cEditBox.obj
 0002:00064550       ??1cEditBox@@UAE@XZ        0059c550 f   cEditBox.obj
 0002:00064640       ?SetTextOffset@cEditBox@@QAEXJJJ@Z 0059c640 f   cEditBox.obj
 0002:00064670       ?InitEditbox@cEditBox@@QAEXGG@Z 0059c670 f   cEditBox.obj
 0002:000646e0       ?ActionEvent@cEditBox@@UAEKPAVCMouse@@@Z 0059c6e0 f   cEditBox.obj
 0002:000647c0       ?ActionKeyboardEvent@cEditBox@@UAEKPAVCKeyboard@@@Z 0059c7c0 f   cEditBox.obj
 0002:000647d0       ?SetActive@cEditBox@@UAEXH@Z 0059c7d0 f   cEditBox.obj
 0002:00064800       ?SetFocus@cEditBox@@QAEXH@Z 0059c800 f   cEditBox.obj
 0002:00064810       ?Render@cEditBox@@UAEXXZ   0059c810 f   cEditBox.obj
 0002:00064d80       ?SetAbsXY@cEditBox@@UAEXJJ@Z 0059cd80 f   cEditBox.obj
 0002:00064db0       ?GetEditText@cEditBox@@QAEPADXZ 0059cdb0 f   cEditBox.obj
 0002:00064e20       ?SetEditText@cEditBox@@QAEXPAD@Z 0059ce20 f   cEditBox.obj
 0002:00064e40       ?SetValidCheck@cEditBox@@QAEXH@Z 0059ce40 f   cEditBox.obj
 0002:00064e60       ?GetValidCheckMethod@cEditBox@@QAEHXZ 0059ce60 f   cEditBox.obj
 0002:00064e80       ?SetAlign@cEditBox@@QAEXH@Z 0059ce80 f   cEditBox.obj
 0002:00064e90       ?SetDisable@cEditBox@@UAEXH@Z 0059ce90 f   cEditBox.obj
 0002:00064ec0       ?IMEEvent@cEditBox@@QAEXK@Z 0059cec0 f   cEditBox.obj
 0002:00064ef0       ?GetCaretPos@cEditBox@@QAEXPAJ0@Z 0059cef0 f   cEditBox.obj
 0002:000650c0       ?Add@cEditBox@@UAEXPAVcWindow@@@Z 0059d0c0 f   cEditBox.obj
 0002:000650e0       ??_EcEditBox@@UAEPAXI@Z    0059d0e0 f i cEditBox.obj
 0002:000650e0       ??_GcEditBox@@UAEPAXI@Z    0059d0e0 f i cEditBox.obj
 0002:00065110       ?Init@cEditBox@@UAEXJJGGPAVcImage@@0J@Z 0059d110 f   cEditBox.obj
 0002:00065240       ?SetFocusEdit@cEditBox@@UAEXH@Z 0059d240 f   cEditBox.obj
 0002:00065370       ?GetTextWidth@cFont@@QAEJG@Z 0059d370 f i cFont.obj
 0002:00065380       ??0cFont@@QAE@XZ           0059d380 f   cFont.obj
 0002:000653e0       ?Release@cFont@@QAEXXZ     0059d3e0 f   cFont.obj
 0002:00065430       ?CreateFontObject@cFont@@QAEHPAUtagLOGFONTA@@G@Z 0059d430 f   cFont.obj
 0002:000654d0       ?GetTextExtent@cFont@@QAEJGPADJ@Z 0059d4d0 f   cFont.obj
 0002:00065560       ?GetTextExtentEx@cFont@@QAEJGPADH@Z 0059d560 f   cFont.obj
 0002:000655f0       ?GetTextExtentWidth@cFont@@QAEJGPADH@Z 0059d5f0 f   cFont.obj
 0002:00065670       ?RenderFont@cFont@@QAEXGPADHPAUtagRECT@@K@Z 0059d670 f   cFont.obj
 0002:000657b0       ?RenderOutLineFont@cFont@@QAEXGPADHPAUtagRECT@@K@Z 0059d7b0 f   cFont.obj
 0002:000659a0       ?RenderFontShadow@cFont@@QAEXGHPADHPAUtagRECT@@K@Z 0059d9a0 f   cFont.obj
 0002:00065b50       ?RenderFontShadowAlpha@cFont@@QAEXGHPADHPAUtagRECT@@KKK@Z 0059db50 f   cFont.obj
 0002:00065d10       ?RenderFontAlpha@cFont@@QAEXGPADHPAUtagRECT@@K@Z 0059dd10 f   cFont.obj
 0002:00065e30       ?RenderNoticeMsg@cFont@@QAEXGPADHPAUtagRECT@@KK@Z 0059de30 f   cFont.obj
 0002:00066020       ??1cFont@@UAE@XZ           0059e020 f   cFont.obj
 0002:00066050       ??_EcFont@@UAEPAXI@Z       0059e050 f i cFont.obj
 0002:00066050       ??_GcFont@@UAEPAXI@Z       0059e050 f i cFont.obj
 0002:000660a0       ??0cGridDialog@@QAE@XZ     0059e0a0 f   cGridDialog.obj
 0002:000660c0       ??1cGridDialog@@UAE@XZ     0059e0c0 f   cGridDialog.obj
 0002:000660d0       ?Init@cGridDialog@@UAEXJJGGPAVcImage@@PAVcPushupButton@@GJ@Z 0059e0d0 f   cGridDialog.obj
 0002:00066230       ??_GcGridDialog@@UAEPAXI@Z 0059e230 f i cGridDialog.obj
 0002:00066230       ??_EcGridDialog@@UAEPAXI@Z 0059e230 f i cGridDialog.obj
 0002:00066260       ??0cGuage@@QAE@XZ          0059e260 f   cGuage.obj
 0002:00066310       ??1cGuage@@UAE@XZ          0059e310 f   cGuage.obj
 0002:00066380       ?ActionEvent@cGuage@@UAEKPAVCMouse@@@Z 0059e380 f   cGuage.obj
 0002:00066430       ?Render@cGuage@@UAEXXZ     0059e430 f   cGuage.obj
 0002:000664c0       ?InitGuage@cGuage@@QAEXJJ@Z 0059e4c0 f   cGuage.obj
 0002:000664e0       ?SetAbsXY@cGuage@@UAEXJJ@Z 0059e4e0 f   cGuage.obj
 0002:00066530       ?Add@cGuage@@UAEXPAVcWindow@@@Z 0059e530 f   cGuage.obj
 0002:00066550       ??_EcGuage@@UAEPAXI@Z      0059e550 f i cGuage.obj
 0002:00066550       ??_GcGuage@@UAEPAXI@Z      0059e550 f i cGuage.obj
 0002:00066580       ?SetAbsX@cWindow@@QAEXJ@Z  0059e580 f i cGuageBar.obj
 0002:00066590       ?SetAbsY@cWindow@@QAEXJ@Z  0059e590 f i cGuageBar.obj
 0002:000665a0       ?SetImageRGB@cWindow@@QAEXK@Z 0059e5a0 f i cGuageBar.obj
 0002:000665b0       ??0cGuageBar@@QAE@XZ       0059e5b0 f   cGuageBar.obj
 0002:00066610       ??1cGuageBar@@UAE@XZ       0059e610 f   cGuageBar.obj
 0002:00066690       ?InitGuageBar@cGuageBar@@UAEXJH@Z 0059e690 f   cGuageBar.obj
 0002:000666f0       ?Add@cGuageBar@@UAEXPAVcWindow@@@Z 0059e6f0 f   cGuageBar.obj
 0002:000667f0       ?ActionEvent@cGuageBar@@UAEKPAVCMouse@@@Z 0059e7f0 f   cGuageBar.obj
 0002:00066b30       ?Render@cGuageBar@@UAEXXZ  0059eb30 f   cGuageBar.obj
 0002:00066b60       ?SetAbsXY@cGuageBar@@UAEXJJ@Z 0059eb60 f   cGuageBar.obj
 0002:00066bf0       ?SetAlpha@cGuageBar@@UAEXE@Z 0059ebf0 f   cGuageBar.obj
 0002:00066c20       ?repositioning@cGuageBar@@AAEXXZ 0059ec20 f   cGuageBar.obj
 0002:00066ca0       ?GetCurValue@cGuageBar@@QAEJXZ 0059eca0 f   cGuageBar.obj
 0002:00066cb0       ?SetMinValue@cGuageBar@@QAEXJ@Z 0059ecb0 f   cGuageBar.obj
 0002:00066cd0       ?SetMaxValue@cGuageBar@@QAEXJ@Z 0059ecd0 f   cGuageBar.obj
 0002:00066cf0       ?SetCurValue@cGuageBar@@QAEXJ@Z 0059ecf0 f   cGuageBar.obj
 0002:00066d10       ?SetGuageLock@cGuageBar@@QAEXHK@Z 0059ed10 f   cGuageBar.obj
 0002:00066d40       ??_GcGuageBar@@UAEPAXI@Z   0059ed40 f i cGuageBar.obj
 0002:00066d40       ??_EcGuageBar@@UAEPAXI@Z   0059ed40 f i cGuageBar.obj
 0002:00066d70       ?InitValue@cGuageBar@@QAEXJJJ@Z 0059ed70 f   cGuageBar.obj
 0002:00066da0       ??0cGuagen@@QAE@XZ         0059eda0 f   cGuagen.obj
 0002:00066e40       ??1cGuagen@@UAE@XZ         0059ee40 f   cGuagen.obj
 0002:00066eb0       ?Render@cGuagen@@UAEXXZ    0059eeb0 f   cGuagen.obj
 0002:00066f70       ?Add@cGuagen@@UAEXPAVcWindow@@@Z 0059ef70 f   cGuagen.obj
 0002:00066f90       ??_GcGuagen@@UAEPAXI@Z     0059ef90 f i cGuagen.obj
 0002:00066f90       ??_EcGuagen@@UAEPAXI@Z     0059ef90 f i cGuagen.obj
 0002:00066fc0       ??0__unnamed@cIcon@@QAE@XZ 0059efc0 f i cIcon.obj
 0002:00066fe0       ??1__unnamed@cIcon@@QAE@XZ 0059efe0 f i cIcon.obj
 0002:00066ff0       ??1cIcon@@UAE@XZ           0059eff0 f   cIcon.obj
 0002:00067110       ?SetZeroCount@cIcon@@UAEXH@Z 0059f110 f i cIcon.obj
 0002:00067120       ?CanMoveToDialog@cIcon@@UAEHPAVcDialog@@@Z 0059f120 f i cIcon.obj
 0002:00067130       ?CanDelete@cIcon@@UAEHXZ   0059f130 f i cIcon.obj
 0002:00067140       ?Init@cIcon@@UAEXJJGGPAVcImage@@J@Z 0059f140 f   cIcon.obj
 0002:00067210       ?Render@cIcon@@UAEXXZ      0059f210 f   cIcon.obj
 0002:000673f0       ?Render@cIcon@@UAEXPAUVECTOR2@@@Z 0059f3f0 f   cIcon.obj
 0002:00067440       ?ActionEvent@cIcon@@UAEKPAVCMouse@@@Z 0059f440 f   cIcon.obj
 0002:000675f0       ?SetLock@cIcon@@UAEXH@Z    0059f5f0 f   cIcon.obj
 0002:00067600       ?AddLinkIconDialog@cIcon@@QAEXPAVcIconDialog@@@Z 0059f600 f   cIcon.obj
 0002:00067610       ?RemoveLinkIconDialog@cIcon@@QAEXPAVcIconDialog@@@Z 0059f610 f   cIcon.obj
 0002:00067620       ?SetCoolTimeAbs@cIcon@@QAEXKKK@Z 0059f620 f   cIcon.obj
 0002:00067660       ?SetCoolTime@cIcon@@QAEXK@Z 0059f660 f   cIcon.obj
 0002:00067690       ?GetRemainedCoolTime@cIcon@@QBEKXZ 0059f690 f   cIcon.obj
 0002:000676e0       ?ToolTipForcedRender@cIcon@@QAEXXZ 0059f6e0 f   cIcon.obj
 0002:00067740       ??0cIcon@@QAE@XZ           0059f740 f   cIcon.obj
 0002:00067870       ??_GcIcon@@UAEPAXI@Z       0059f870 f i cIcon.obj
 0002:00067870       ??_EcIcon@@UAEPAXI@Z       0059f870 f i cIcon.obj
 0002:000678a0       ?IsDepend@cWindow@@QAEHXZ  0059f8a0 f i cIconDialog.obj
 0002:000678b0       ??0cIconCell@@QAE@XZ       0059f8b0 f i cIconDialog.obj
 0002:000678d0       ??1cIconCell@@QAE@XZ       0059f8d0 f i cIconDialog.obj
 0002:000678e0       ?IsDragWindow@cWindowManager@@QAEHXZ 0059f8e0 f i cIconDialog.obj
 0002:000678f0       ?GetDragDlg@cWindowManager@@QAEPAVcDialog@@XZ 0059f8f0 f i cIconDialog.obj
 0002:00067900       ??0cIconDialog@@QAE@XZ     0059f900 f   cIconDialog.obj
 0002:000679d0       ??_EcIconCell@@QAEPAXI@Z   0059f9d0 f i cIconDialog.obj
 0002:00067a30       ?Init@cIconDialog@@UAEXJJGGPAVcImage@@J@Z 0059fa30 f   cIconDialog.obj
 0002:00067a40       ?PtInCell@cIconDialog@@QAEHJJ@Z 0059fa40 f   cIconDialog.obj
 0002:00067b10       ?AddIconCell@cIconDialog@@QAEXPAUtagRECT@@@Z 0059fb10 f   cIconDialog.obj
 0002:00067b60       ?SetAbsXY@cIconDialog@@UAEXJJ@Z 0059fb60 f   cIconDialog.obj
 0002:00067c60       ?SetActive@cIconDialog@@UAEXH@Z 0059fc60 f   cIconDialog.obj
 0002:00067ce0       ?Render@cIconDialog@@UAEXXZ 0059fce0 f   cIconDialog.obj
 0002:00067f20       ?SetAlpha@cIconDialog@@UAEXE@Z 0059ff20 f   cIconDialog.obj
 0002:00067fa0       ?IsAddable@cIconDialog@@QAEHG@Z 0059ffa0 f   cIconDialog.obj
 0002:00067fd0       ?GetPositionForXYRef@cIconDialog@@QAEHJJAAG@Z 0059ffd0 f   cIconDialog.obj
 0002:00068090       ?AddIcon@cIconDialog@@QAEHGPAVcIcon@@H@Z 005a0090 f   cIconDialog.obj
 0002:00068210       ?DeleteIcon@cIconDialog@@QAEHGPAPAVcIcon@@@Z 005a0210 f   cIconDialog.obj
 0002:000682e0       ?DeleteIconAll@cIconDialog@@QAEXXZ 005a02e0 f   cIconDialog.obj
 0002:00068360       ?SetDisable@cIconDialog@@UAEXH@Z 005a0360 f   cIconDialog.obj
 0002:000683c0       ?IsDragOverDraw@cIconDialog@@UAEHXZ 005a03c0 f   cIconDialog.obj
 0002:000683f0       ?NotifyLinkIconDeleted@cIconDialog@@QAEXPAVcIcon@@@Z 005a03f0 f   cIconDialog.obj
 0002:00068460       ?GetIconCellRect@cIconDialog@@QAEHGAAUtagRECT@@@Z 005a0460 f   cIconDialog.obj
 0002:000684c0       ?Release@cIconDialog@@QAEXXZ 005a04c0 f   cIconDialog.obj
 0002:00068510       ?SetCellNum@cIconDialog@@QAEXG@Z 005a0510 f   cIconDialog.obj
 0002:00068630       ?ActionEvent@cIconDialog@@UAEKPAVCMouse@@@Z 005a0630 f   cIconDialog.obj
 0002:00068850       ?AddIcon@cIconDialog@@UAEHJJPAVcIcon@@@Z 005a0850 f   cIconDialog.obj
 0002:00068940       ??1cIconDialog@@UAE@XZ     005a0940 f   cIconDialog.obj
 0002:00068a10       ??_GcIconDialog@@UAEPAXI@Z 005a0a10 f i cIconDialog.obj
 0002:00068a10       ??_EcIconDialog@@UAEPAXI@Z 005a0a10 f i cIconDialog.obj
 0002:00068a40       ?GetIconType@cIcon@@QAEKXZ 005a0a40 f i cIconGridDialog.obj
 0002:00068a50       ?SetCellPosition@cIcon@@QAEXGG@Z 005a0a50 f i cIconGridDialog.obj
 0002:00068a80       ?GetCellX@cIcon@@QAEGXZ    005a0a80 f i cIconGridDialog.obj
 0002:00068a90       ?GetCellY@cIcon@@QAEGXZ    005a0a90 f i cIconGridDialog.obj
 0002:00068aa0       ??0cIconGridDialog@@QAE@XZ 005a0aa0 f   cIconGridDialog.obj
 0002:00068bd0       ??1cIconGridDialog@@UAE@XZ 005a0bd0 f   cIconGridDialog.obj
 0002:00068c90       ?InitDialog@cIconGridDialog@@UAEXJJGGPAVcImage@@GGJ@Z 005a0c90 f   cIconGridDialog.obj
 0002:00068dc0       ?InitGrid@cIconGridDialog@@QAEXJJGGGG@Z 005a0dc0 f   cIconGridDialog.obj
 0002:00068ea0       ?PtInCell@cIconGridDialog@@QAEHJJ@Z 005a0ea0 f   cIconGridDialog.obj
 0002:00068f50       ?SetCellRect@cIconGridDialog@@QAEXPAUtagRECT@@@Z 005a0f50 f   cIconGridDialog.obj
 0002:00068f70       ?SetAbsXY@cIconGridDialog@@UAEXJJ@Z 005a0f70 f   cIconGridDialog.obj
 0002:00069070       ?Render@cIconGridDialog@@UAEXXZ 005a1070 f   cIconGridDialog.obj
 0002:00069310       ?SetActive@cIconGridDialog@@UAEXH@Z 005a1310 f   cIconGridDialog.obj
 0002:000693c0       ?SetAlpha@cIconGridDialog@@UAEXE@Z 005a13c0 f   cIconGridDialog.obj
 0002:00069450       ?IsAddable@cIconGridDialog@@QAEHG@Z 005a1450 f   cIconGridDialog.obj
 0002:000694a0       ?AddIcon@cIconGridDialog@@QAEHGPAVcIcon@@@Z 005a14a0 f   cIconGridDialog.obj
 0002:00069620       ?GetCellAbsPos@cIconGridDialog@@QAEHGAAH0@Z 005a1620 f   cIconGridDialog.obj
 0002:00069730       ?GetCellPosition@cIconGridDialog@@QAEHJJAAG0@Z 005a1730 f   cIconGridDialog.obj
 0002:000698a0       ?GetPositionForXYRef@cIconGridDialog@@QAEHJJAAG@Z 005a18a0 f   cIconGridDialog.obj
 0002:000698f0       ?GetPositionForCell@cIconGridDialog@@QAEGGG@Z 005a18f0 f   cIconGridDialog.obj
 0002:00069910       ?IsAddable@cIconGridDialog@@UAEHGGPAVcIcon@@@Z 005a1910 f   cIconGridDialog.obj
 0002:00069980       ?AddIcon@cIconGridDialog@@QAEHGGPAVcIcon@@@Z 005a1980 f   cIconGridDialog.obj
 0002:000699b0       ?DeleteIcon@cIconGridDialog@@QAEHGPAPAVcIcon@@@Z 005a19b0 f   cIconGridDialog.obj
 0002:00069a60       ?DeleteIcon@cIconGridDialog@@QAEHGGPAPAVcIcon@@@Z 005a1a60 f   cIconGridDialog.obj
 0002:00069a90       ?SetDisable@cIconGridDialog@@UAEXH@Z 005a1a90 f   cIconGridDialog.obj
 0002:00069b10       ?IsDragOverDraw@cIconGridDialog@@UAEHXZ 005a1b10 f   cIconGridDialog.obj
 0002:00069b40       ?GetIconForIdx@cIconGridDialog@@QAEPAVcIcon@@G@Z 005a1b40 f   cIconGridDialog.obj
 0002:00069b80       ??_EcIconGridDialog@@UAEPAXI@Z 005a1b80 f i cIconGridDialog.obj
 0002:00069b80       ??_GcIconGridDialog@@UAEPAXI@Z 005a1b80 f i cIconGridDialog.obj
 0002:00069bb0       ?ActionEvent@cIconGridDialog@@UAEKPAVCMouse@@@Z 005a1bb0 f   cIconGridDialog.obj
 0002:00069ed0       ?DeleteIcon@cIconGridDialog@@QAEHPAVcIcon@@@Z 005a1ed0 f   cIconGridDialog.obj
 0002:00069f10       ?MoveIcon@cIconGridDialog@@UAEHGGPAVcIcon@@@Z 005a1f10 f   cIconGridDialog.obj
 0002:0006a020       ?RenderSprite@cImageBase@@IAEXPAUVECTOR2@@0M0PAUtagRECT@@K@Z 005a2020 f i cImage.obj
 0002:0006a080       ??0cImageBase@@QAE@XZ      005a2080 f   cImage.obj
 0002:0006a0a0       ??1cImageBase@@UAE@XZ      005a20a0 f   cImage.obj
 0002:0006a0b0       ??0cImage@@QAE@XZ          005a20b0 f   cImage.obj
 0002:0006a0d0       ??1cImage@@UAE@XZ          005a20d0 f   cImage.obj
 0002:0006a0e0       ?RenderSprite@cImage@@QAEXPAUVECTOR2@@0M0K@Z 005a20e0 f   cImage.obj
 0002:0006a1c0       ??_GcImageBase@@UAEPAXI@Z  005a21c0 f i cImage.obj
 0002:0006a1c0       ??_EcImageBase@@UAEPAXI@Z  005a21c0 f i cImage.obj
 0002:0006a1f0       ??_GcImage@@UAEPAXI@Z      005a21f0 f i cImage.obj
 0002:0006a220       ?Init@cList@@UAEXJJGGPAVcImage@@J@Z 005a2220 f   cList.obj
 0002:0006a260       ?SetMargin@cList@@QAEXPAUtagRECT@@@Z 005a2260 f   cList.obj
 0002:0006a280       ?Resize@cList@@IAEXXZ      005a2280 f   cList.obj
 0002:0006a2d0       ?SetListBar@cList@@QAEXJJGGH@Z 005a22d0 f   cList.obj
 0002:0006a320       ?PtInListBar@cList@@QAEHJJ@Z 005a2320 f   cList.obj
 0002:0006a420       ?Render@cList@@UAEXXZ      005a2420 f   cList.obj
 0002:0006a610       ?Add@cList@@UAEXPAVcWindow@@@Z 005a2610 f   cList.obj
 0002:0006a6f0       ?SetAbsXY@cList@@UAEXJJ@Z  005a26f0 f   cList.obj
 0002:0006a7a0       ?GetItemCount@cListItem@@QAEJXZ 005a27a0 f i cList.obj
 0002:0006a7b0       ??0cList@@QAE@XZ           005a27b0 f   cList.obj
 0002:0006a8c0       ??_EcList@@WBHM@AEPAXI@Z   005a28c0 f i cList.obj
 0002:0006a8d0       ??1cList@@UAE@XZ           005a28d0 f   cList.obj
 0002:0006a9b0       ?InitList@cList@@UAEXGPAUtagRECT@@@Z 005a29b0 f   cList.obj
 0002:0006aa20       ?OnUpwardItem@cList@@QAEXXZ 005a2a20 f   cList.obj
 0002:0006aa50       ?OnDownwardItem@cList@@QAEXXZ 005a2a50 f   cList.obj
 0002:0006aa80       ??_GcList@@UAEPAXI@Z       005a2a80 f i cList.obj
 0002:0006aa80       ??_EcList@@UAEPAXI@Z       005a2a80 f i cList.obj
 0002:0006aab0       ?ActionEvent@cList@@UAEKPAVCMouse@@@Z 005a2ab0 f   cList.obj
 0002:0006ac90       ??1cReportItem@@UAE@XZ     005a2c90 f i cListCtrl.obj
 0002:0006ad10       ??_GcReportItem@@UAEPAXI@Z 005a2d10 f i cListCtrl.obj
 0002:0006ad10       ??_EcReportItem@@UAEPAXI@Z 005a2d10 f i cListCtrl.obj
 0002:0006ad40       ?Init@cListCtrl@@UAEXJJGGPAVcImage@@J@Z 005a2d40 f   cListCtrl.obj
 0002:0006ad50       ?InitListCtrl@cListCtrl@@UAEXGG@Z 005a2d50 f   cListCtrl.obj
 0002:0006ad70       ?SetMargin@cListCtrl@@QAEXPBUtagRECT@@@Z 005a2d70 f   cListCtrl.obj
 0002:0006ad90       ?PtIdxInRow@cListCtrl@@QAEGJJ@Z 005a2d90 f   cListCtrl.obj
 0002:0006ae90       ??0?$cLooseLinkedList@VRITEM@@@@QAE@XZ 005a2e90 f i cListCtrl.obj
 0002:0006aeb0       ?GetIndexPos@?$cLooseLinkedList@VRITEM@@@@QAEPAXH@Z 005a2eb0 f i cListCtrl.obj
 0002:0006aee0       ?GetNextPos@?$cLooseLinkedList@VRITEM@@@@QAEPAVRITEM@@AAPAX@Z 005a2ee0 f i cListCtrl.obj
 0002:0006af00       ?GetCount@?$cLooseLinkedList@VRITEM@@@@QAEHXZ 005a2f00 f i cListCtrl.obj
 0002:0006af10       ?_Nextnode@?$list@PAVcWindow@@V?$allocator@PAVcWindow@@@std@@@std@@KAAAPAU_Node@?$_List_nod@PAVcWindow@@V?$allocator@PAVcWindow@@@std@@@2@PAU342@@Z 005a2f10 f i cListCtrl.obj
 0002:0006af20       ??0?$allocator@PAVcWindow@@@std@@QAE@XZ 005a2f20 f i cListCtrl.obj
 0002:0006af30       ??Econst_iterator@?$list@PAVcWindow@@V?$allocator@PAVcWindow@@@std@@@std@@QAEAAV012@XZ 005a2f30 f i cListCtrl.obj
 0002:0006af40       ??8const_iterator@?$list@PAVcWindow@@V?$allocator@PAVcWindow@@@std@@@std@@QBE_NABV012@@Z 005a2f40 f i cListCtrl.obj
 0002:0006af60       ?_Prevnode@?$list@PAVcWindow@@V?$allocator@PAVcWindow@@@std@@@std@@KAAAPAU_Node@?$_List_nod@PAVcWindow@@V?$allocator@PAVcWindow@@@std@@@2@PAU342@@Z 005a2f60 f i cListCtrl.obj
 0002:0006af70       ?_Myval@?$list@PAVcWindow@@V?$allocator@PAVcWindow@@@std@@@std@@KAAAPAVcWindow@@PAU_Node@?$_List_nod@PAVcWindow@@V?$allocator@PAVcWindow@@@std@@@2@@Z 005a2f70 f i cListCtrl.obj
 0002:0006af80       ??0?$allocator@PAVcWindow@@@std@@QAE@ABV01@@Z 005a2f80 f i cListCtrl.obj
 0002:0006af90       ?deallocate@?$allocator@U_Node@?$_List_nod@PAVcWindow@@V?$allocator@PAVcWindow@@@std@@@std@@@std@@QAEXPAU_Node@?$_List_nod@PAVcWindow@@V?$allocator@PAVcWindow@@@std@@@2@I@Z 005a2f90 f i cListCtrl.obj
 0002:0006afb0       ??0const_iterator@?$list@PAVcWindow@@V?$allocator@PAVcWindow@@@std@@@std@@QAE@PAU_Node@?$_List_nod@PAVcWindow@@V?$allocator@PAVcWindow@@@std@@@2@@Z 005a2fb0 f i cListCtrl.obj
 0002:0006afc0       ?_Mynode@const_iterator@?$list@PAVcWindow@@V?$allocator@PAVcWindow@@@std@@@std@@QBEPAU_Node@?$_List_nod@PAVcWindow@@V?$allocator@PAVcWindow@@@std@@@3@XZ 005a2fc0 f i cListCtrl.obj
 0002:0006afd0       ??0_Node@?$_List_nod@PAVcWindow@@V?$allocator@PAVcWindow@@@std@@@std@@QAE@PAU012@0ABQAVcWindow@@@Z 005a2fd0 f i cListCtrl.obj
 0002:0006b000       ?max_size@?$allocator@PAVcWindow@@@std@@QBEIXZ 005a3000 f i cListCtrl.obj
 0002:0006b010       ??$?0PAVcWindow@@@?$allocator@PAU_Node@?$_List_nod@PAVcWindow@@V?$allocator@PAVcWindow@@@std@@@std@@@std@@QAE@ABV?$allocator@PAVcWindow@@@1@@Z 005a3010 f i cListCtrl.obj
 0002:0006b020       ??$_Allocate@U_Node@?$_List_nod@PAVcWindow@@V?$allocator@PAVcWindow@@@std@@@std@@@std@@YAPAU_Node@?$_List_nod@PAVcWindow@@V?$allocator@PAVcWindow@@@std@@@0@IPAU120@@Z 005a3020 f i cListCtrl.obj
 0002:0006b040       ??$_Construct@PAU_Node@?$_List_nod@PAVcWindow@@V?$allocator@PAVcWindow@@@std@@@std@@PAU123@@std@@YAXPAPAU_Node@?$_List_nod@PAVcWindow@@V?$allocator@PAVcWindow@@@std@@@0@ABQAU120@@Z 005a3040 f i cListCtrl.obj
 0002:0006b060       ??$_Destroy@PAU_Node@?$_List_nod@PAVcWindow@@V?$allocator@PAVcWindow@@@std@@@std@@@std@@YAXPAPAU_Node@?$_List_nod@PAVcWindow@@V?$allocator@PAVcWindow@@@std@@@0@@Z 005a3060 f i cListCtrl.obj
 0002:0006b070       ??$?0PAVcWindow@@@?$allocator@U_Node@?$_List_nod@PAVcWindow@@V?$allocator@PAVcWindow@@@std@@@std@@@std@@QAE@ABV?$allocator@PAVcWindow@@@1@@Z 005a3070 f i cListCtrl.obj
 0002:0006b080       ??$_Destroy@U_Node@?$_List_nod@PAVcWindow@@V?$allocator@PAVcWindow@@@std@@@std@@@std@@YAXPAU_Node@?$_List_nod@PAVcWindow@@V?$allocator@PAVcWindow@@@std@@@0@@Z 005a3080 f i cListCtrl.obj
 0002:0006b090       ??0cReportItem@@QAE@XZ     005a3090 f i cListCtrl.obj
 0002:0006b100       ?InitListCtrlImage@cListCtrl@@UAEXPAVcImage@@E0E0@Z 005a3100 f   cListCtrl.obj
 0002:0006b240       ?Render@cListCtrl@@UAEXXZ  005a3240 f   cListCtrl.obj
 0002:0006b730       ?ActionEvent@cListCtrl@@UAEKPAVCMouse@@@Z 005a3730 f   cListCtrl.obj
 0002:0006b8a0       ??Eiterator@?$list@PAVcWindow@@V?$allocator@PAVcWindow@@@std@@@std@@QAEAAV012@XZ 005a38a0 f i cListCtrl.obj
 0002:0006b8b0       ??9const_iterator@?$list@PAVcWindow@@V?$allocator@PAVcWindow@@@std@@@std@@QBE_NABV012@@Z 005a38b0 f i cListCtrl.obj
 0002:0006b8d0       ??_G?$cLooseLinkedList@VRITEM@@@@UAEPAXI@Z 005a38d0 f i cListCtrl.obj
 0002:0006b8d0       ??_E?$cLooseLinkedList@VRITEM@@@@UAEPAXI@Z 005a38d0 f i cListCtrl.obj
 0002:0006b900       ?DeleteAll@?$cLooseLinkedList@VRITEM@@@@QAEXXZ 005a3900 f i cListCtrl.obj
 0002:0006b950       ??0iterator@?$list@PAVcWindow@@V?$allocator@PAVcWindow@@@std@@@std@@QAE@PAU_Node@?$_List_nod@PAVcWindow@@V?$allocator@PAVcWindow@@@std@@@2@@Z 005a3950 f i cListCtrl.obj
 0002:0006b960       ??Dconst_iterator@?$list@PAVcWindow@@V?$allocator@PAVcWindow@@@std@@@std@@QBEABQAVcWindow@@XZ 005a3960 f i cListCtrl.obj
 0002:0006b970       ?allocate@?$allocator@U_Node@?$_List_nod@PAVcWindow@@V?$allocator@PAVcWindow@@@std@@@std@@@std@@QAEPAU_Node@?$_List_nod@PAVcWindow@@V?$allocator@PAVcWindow@@@std@@@2@I@Z 005a3970 f i cListCtrl.obj
 0002:0006b990       ?construct@?$allocator@PAU_Node@?$_List_nod@PAVcWindow@@V?$allocator@PAVcWindow@@@std@@@std@@@std@@QAEXPAPAU_Node@?$_List_nod@PAVcWindow@@V?$allocator@PAVcWindow@@@std@@@2@ABQAU342@@Z 005a3990 f i cListCtrl.obj
 0002:0006b9b0       ?destroy@?$allocator@PAU_Node@?$_List_nod@PAVcWindow@@V?$allocator@PAVcWindow@@@std@@@std@@@std@@QAEXPAPAU_Node@?$_List_nod@PAVcWindow@@V?$allocator@PAVcWindow@@@std@@@2@@Z 005a39b0 f i cListCtrl.obj
 0002:0006b9c0       ?max_size@?$list@PAVcWindow@@V?$allocator@PAVcWindow@@@std@@@std@@QBEIXZ 005a39c0 f i cListCtrl.obj
 0002:0006b9d0       ??0?$_List_nod@PAVcWindow@@V?$allocator@PAVcWindow@@@std@@@std@@IAE@V?$allocator@PAVcWindow@@@1@@Z 005a39d0 f i cListCtrl.obj
 0002:0006b9e0       ?destroy@?$allocator@U_Node@?$_List_nod@PAVcWindow@@V?$allocator@PAVcWindow@@@std@@@std@@@std@@QAEXPAU_Node@?$_List_nod@PAVcWindow@@V?$allocator@PAVcWindow@@@std@@@2@@Z 005a39e0 f i cListCtrl.obj
 0002:0006b9f0       ?begin@?$list@PAVcWindow@@V?$allocator@PAVcWindow@@@std@@@std@@QAE?AViterator@12@XZ 005a39f0 f i cListCtrl.obj
 0002:0006ba10       ?end@?$list@PAVcWindow@@V?$allocator@PAVcWindow@@@std@@@std@@QAE?AViterator@12@XZ 005a3a10 f i cListCtrl.obj
 0002:0006ba20       ??Diterator@?$list@PAVcWindow@@V?$allocator@PAVcWindow@@@std@@@std@@QBEAAPAVcWindow@@XZ 005a3a20 f i cListCtrl.obj
 0002:0006ba30       ?_Buynode@?$list@PAVcWindow@@V?$allocator@PAVcWindow@@@std@@@std@@IAEPAU_Node@?$_List_nod@PAVcWindow@@V?$allocator@PAVcWindow@@@std@@@2@XZ 005a3a30 f i cListCtrl.obj
 0002:0006ba50       ?clear@?$list@PAVcWindow@@V?$allocator@PAVcWindow@@@std@@@std@@QAEXXZ 005a3a50 f i cListCtrl.obj
 0002:0006baa0       ?_Buynode@?$list@PAVcWindow@@V?$allocator@PAVcWindow@@@std@@@std@@IAEPAU_Node@?$_List_nod@PAVcWindow@@V?$allocator@PAVcWindow@@@std@@@2@PAU342@0ABQAVcWindow@@@Z 005a3aa0 f i cListCtrl.obj
 0002:0006bad0       ??0?$_List_ptr@PAVcWindow@@V?$allocator@PAVcWindow@@@std@@@std@@IAE@V?$allocator@PAVcWindow@@@1@@Z 005a3ad0 f i cListCtrl.obj
 0002:0006bae0       ?_Tidy@?$list@PAVcWindow@@V?$allocator@PAVcWindow@@@std@@@std@@IAEXXZ 005a3ae0 f i cListCtrl.obj
 0002:0006bb10       ??0?$_List_val@PAVcWindow@@V?$allocator@PAVcWindow@@@std@@@std@@IAE@V?$allocator@PAVcWindow@@@1@@Z 005a3b10 f i cListCtrl.obj
 0002:0006bb20       ??0?$list@PAVcWindow@@V?$allocator@PAVcWindow@@@std@@@std@@QAE@XZ 005a3b20 f i cListCtrl.obj
 0002:0006bb40       ??1?$list@PAVcWindow@@V?$allocator@PAVcWindow@@@std@@@std@@QAE@XZ 005a3b40 f i cListCtrl.obj
 0002:0006bb70       ??0cListCtrl@@QAE@XZ       005a3b70 f   cListCtrl.obj
 0002:0006bcf0       ??_EcListCtrl@@WBHM@AEPAXI@Z 005a3cf0 f i cListCtrl.obj
 0002:0006bd00       ??1cListCtrl@@UAE@XZ       005a3d00 f   cListCtrl.obj
 0002:0006be60       ??_EcListCtrl@@UAEPAXI@Z   005a3e60 f i cListCtrl.obj
 0002:0006be60       ??_GcListCtrl@@UAEPAXI@Z   005a3e60 f i cListCtrl.obj
 0002:0006be90       ?_Incsize@?$list@PAVcWindow@@V?$allocator@PAVcWindow@@@std@@@std@@IAEXI@Z 005a3e90 f i cListCtrl.obj
 0002:0006bf50       ?_Insert@?$list@PAVcWindow@@V?$allocator@PAVcWindow@@@std@@@std@@QAEXViterator@12@ABQAVcWindow@@@Z 005a3f50 f i cListCtrl.obj
 0002:0006bf90       ?push_back@?$list@PAVcWindow@@V?$allocator@PAVcWindow@@@std@@@std@@QAEXABQAVcWindow@@@Z 005a3f90 f i cListCtrl.obj
 0002:0006bfd0       ?Add@cListCtrl@@UAEXPAVcWindow@@@Z 005a3fd0 f   cListCtrl.obj
 0002:0006c040       ?GetColumnWidth@cLCColumn@@QAEHXZ 005a4040 f i cListCtrlEx.obj
 0002:0006c050       ??1cLCItemBase@@QAE@XZ     005a4050 f i cListCtrlEx.obj
 0002:0006c060       ??0cListCtrlEx@@QAE@XZ     005a4060 f   cListCtrlEx.obj
 0002:0006c160       ?Release@cListCtrlEx@@QAEXXZ 005a4160 f   cListCtrlEx.obj
 0002:0006c1b0       ??_EcLCItemBase@@QAEPAXI@Z 005a41b0 f i cListCtrlEx.obj
 0002:0006c220       ??0cLCItemBase@@QAE@XZ     005a4220 f i cListCtrlEx.obj
 0002:0006c240       ?SetItemContent@cLCItemBase@@UAEXPAX@Z 005a4240 f i cListCtrlEx.obj
 0002:0006c250       ?Render@cLCItemBase@@UAEXJJ@Z 005a4250 f i cListCtrlEx.obj
 0002:0006c260       ??0?$cLinkedList@VcLCItemBase@@@@QAE@XZ 005a4260 f i cListCtrlEx.obj
 0002:0006c280       ?AddHead@?$cLinkedList@VcLCItemBase@@@@QAEXPAVcLCItemBase@@@Z 005a4280 f i cListCtrlEx.obj
 0002:0006c2e0       ?AddTail@?$cLinkedList@VcLCItemBase@@@@QAEXPAVcLCItemBase@@@Z 005a42e0 f i cListCtrlEx.obj
 0002:0006c340       ?GetFirstPos@?$cLinkedList@VcLCItemBase@@@@QAEPAXXZ 005a4340 f i cListCtrlEx.obj
 0002:0006c350       ?GetIndexPos@?$cLinkedList@VcLCItemBase@@@@QAEPAXH@Z 005a4350 f i cListCtrlEx.obj
 0002:0006c380       ?GetNextPos@?$cLinkedList@VcLCItemBase@@@@QAEPAVcLCItemBase@@AAPAX@Z 005a4380 f i cListCtrlEx.obj
 0002:0006c3a0       ?DeleteAll@?$cLinkedList@VcLCItemBase@@@@QAEXXZ 005a43a0 f i cListCtrlEx.obj
 0002:0006c3f0       ?DeleteHead@?$cLinkedList@VcLCItemBase@@@@QAEPAVcLCItemBase@@XZ 005a43f0 f i cListCtrlEx.obj
 0002:0006c460       ?DeleteTail@?$cLinkedList@VcLCItemBase@@@@QAEPAVcLCItemBase@@XZ 005a4460 f i cListCtrlEx.obj
 0002:0006c4d0       ?AddTail@cLCColumn@@QAEXPAVcLCItemBase@@@Z 005a44d0 f i cListCtrlEx.obj
 0002:0006c530       ?AddHead@cLCColumn@@QAEXPAVcLCItemBase@@@Z 005a4530 f i cListCtrlEx.obj
 0002:0006c590       ??_GcLCItemBase@@QAEPAXI@Z 005a4590 f i cListCtrlEx.obj
 0002:0006c5c0       ?Render@cLCColumn@@QAEXJJHHH@Z 005a45c0 f   cListCtrlEx.obj
 0002:0006c640       ??1cListCtrlEx@@UAE@XZ     005a4640 f   cListCtrlEx.obj
 0002:0006c740       ?InitListCtrlExImage@cListCtrlEx@@QAEXPAVcImage@@0000@Z 005a4740 f   cListCtrlEx.obj
 0002:0006c8d0       ?CreateNewItem@cListCtrlEx@@QAEXPAPAVcLCItemBase@@@Z 005a48d0 f   cListCtrlEx.obj
 0002:0006c980       ?AddTail@cListCtrlEx@@QAEXPAPAVcLCItemBase@@@Z 005a4980 f   cListCtrlEx.obj
 0002:0006ca30       ?AddHead@cListCtrlEx@@QAEXPAPAVcLCItemBase@@@Z 005a4a30 f   cListCtrlEx.obj
 0002:0006cae0       ?Render@cListCtrlEx@@UAEXXZ 005a4ae0 f   cListCtrlEx.obj
 0002:0006cbc0       ??1?$cLinkedList@VcLCItemBase@@@@UAE@XZ 005a4bc0 f i cListCtrlEx.obj
 0002:0006cbd0       ?DeleteAt@?$cLinkedList@VcLCItemBase@@@@QAEPAVcLCItemBase@@H@Z 005a4bd0 f i cListCtrlEx.obj
 0002:0006cc70       ??_G?$cLinkedList@VcLCItemBase@@@@UAEPAXI@Z 005a4c70 f i cListCtrlEx.obj
 0002:0006cc70       ??_E?$cLinkedList@VcLCItemBase@@@@UAEPAXI@Z 005a4c70 f i cListCtrlEx.obj
 0002:0006cca0       ?Remove@cLCColumn@@QAEPAVcLCItemBase@@H@Z 005a4ca0 f i cListCtrlEx.obj
 0002:0006ccb0       ??0cLCColumn@@QAE@XZ       005a4cb0 f   cListCtrlEx.obj
 0002:0006ccf0       ?RemoveAll@cLCColumn@@QAEXXZ 005a4cf0 f   cListCtrlEx.obj
 0002:0006cd30       ??_EcListCtrlEx@@UAEPAXI@Z 005a4d30 f i cListCtrlEx.obj
 0002:0006cd30       ??_GcListCtrlEx@@UAEPAXI@Z 005a4d30 f i cListCtrlEx.obj
 0002:0006cd60       ?Remove@cListCtrlEx@@QAEXH@Z 005a4d60 f   cListCtrlEx.obj
 0002:0006cdd0       ??1cLCColumn@@UAE@XZ       005a4dd0 f   cListCtrlEx.obj
 0002:0006ce40       ?InitListCtrlEx@cListCtrlEx@@QAEXHHHHH@Z 005a4e40 f   cListCtrlEx.obj
 0002:0006cf10       ??_EcLCColumn@@UAEPAXI@Z   005a4f10 f i cListCtrlEx.obj
 0002:0006cf80       ?IsDisable@cObject@@QBEHXZ 005a4f80 f i cListDialog.obj
 0002:0006cf90       ?GetItem@cListItem@@QAEPAU_ITEM@@J@Z 005a4f90 f i cListDialog.obj
 0002:0006cfd0       ?SetInterval@cGuageBar@@QAEXJ@Z 005a4fd0 f i cListDialog.obj
 0002:0006cff0       ?GetInterval@cGuageBar@@QAEJXZ 005a4ff0 f i cListDialog.obj
 0002:0006d000       ?GetMaxValue@cGuageBar@@QAEJXZ 005a5000 f i cListDialog.obj
 0002:0006d010       ?GetCurRate@cGuageBar@@QAEMXZ 005a5010 f i cListDialog.obj
 0002:0006d020       ?SetCurRate@cGuageBar@@QAEXM@Z 005a5020 f i cListDialog.obj
 0002:0006d040       ?IsDrag@cGuageBar@@QAEHXZ  005a5040 f i cListDialog.obj
 0002:0006d050       ?IsCreateFont@cFont@@QAEHG@Z 005a5050 f i cListDialog.obj
 0002:0006d080       ?GetWheel@CMouse@@QAEHXZ   005a5080 f i cListDialog.obj
 0002:0006d090       ?compare@?$char_traits@D@std@@SAHPBD0I@Z 005a5090 f i cListDialog.obj
 0002:0006d0c0       ?Add@cListDialog@@UAEXPAVcWindow@@@Z 005a50c0 f   cListDialog.obj
 0002:0006d170       ?Resize@cListDialog@@QAEHE@Z 005a5170 f   cListDialog.obj
 0002:0006d220       ?PtInWindow@cListDialog@@QAEHJJ@Z 005a5220 f   cListDialog.obj
 0002:0006d2f0       ?GetClickedItem@cListDialog@@QAEPBDXZ 005a52f0 f   cListDialog.obj
 0002:0006d330       ?RenderNormalList@cListDialog@@QAEXXZ 005a5330 f   cListDialog.obj
 0002:0006d9c0       ?RenderServerList@cListDialog@@QAEXXZ 005a59c0 f   cListDialog.obj
 0002:0006dea0       ?RenderShadowList@cListDialog@@QAEXXZ 005a5ea0 f   cListDialog.obj
 0002:0006e290       ?RenderQuestNotice@cListDialog@@QAEXXZ 005a6290 f   cListDialog.obj
 0002:0006e2a0       ?AddNoticeItem@cListDialog@@QAEXPAUsGAMENOTIFY_MSG@@@Z 005a62a0 f   cListDialog.obj
 0002:0006e340       ?GetCurSelectedRowIdx@cListDialog@@QAEHXZ 005a6340 f   cListDialog.obj
 0002:0006e360       ?SetLineHeight@cListDialog@@QAEXJ@Z 005a6360 f   cListDialog.obj
 0002:0006e3b0       ?SetShowSelect@cListDialog@@QAEXH@Z 005a63b0 f   cListDialog.obj
 0002:0006e3c0       ?SetDisableScroll@cListDialog@@QAEXXZ 005a63c0 f   cListDialog.obj
 0002:0006e400       ?SetPosition@cListDialog@@QAEXM@Z 005a6400 f   cListDialog.obj
 0002:0006e490       ?SetTextRect@cListDialog@@QAEXABUtagRECT@@@Z 005a6490 f   cListDialog.obj
 0002:0006e4c0       ?AddItemAutoLine@cListDialog@@QAEXPBDK@Z 005a64c0 f   cListDialog.obj
 0002:0006e5d0       ?SetActive@cListDialog@@UAEXH@Z 005a65d0 f   cListDialog.obj
 0002:0006e5f0       ?empty@?$list@V?$basic_string@DU?$char_traits@D@std@@V?$allocator@D@2@@std@@V?$allocator@V?$basic_string@DU?$char_traits@D@std@@V?$allocator@D@2@@std@@@2@@std@@QBE_NXZ 005a65f0 f i cListDialog.obj
 0002:0006e600       ?_Nextnode@?$list@UToolTip@cListDialog@@V?$allocator@UToolTip@cListDialog@@@std@@@std@@KAAAPAU_Node@?$_List_nod@UToolTip@cListDialog@@V?$allocator@UToolTip@cListDialog@@@std@@@2@PAU342@@Z 005a6600 f i cListDialog.obj
 0002:0006e610       ?_Prevnode@?$list@UToolTip@cListDialog@@V?$allocator@UToolTip@cListDialog@@@std@@@std@@KAAAPAU_Node@?$_List_nod@UToolTip@cListDialog@@V?$allocator@UToolTip@cListDialog@@@std@@@2@PAU342@@Z 005a6610 f i cListDialog.obj
 0002:0006e620       ??0?$allocator@UToolTip@cListDialog@@@std@@QAE@XZ 005a6620 f i cListDialog.obj
 0002:0006e630       ?deallocate@?$allocator@U_Node@?$_List_nod@UToolTip@cListDialog@@V?$allocator@UToolTip@cListDialog@@@std@@@std@@@std@@QAEXPAU_Node@?$_List_nod@UToolTip@cListDialog@@V?$allocator@UToolTip@cListDialog@@@std@@@2@I@Z 005a6630 f i cListDialog.obj
 0002:0006e650       ??Econst_iterator@?$list@UToolTip@cListDialog@@V?$allocator@UToolTip@cListDialog@@@std@@@std@@QAEAAV012@XZ 005a6650 f i cListDialog.obj
 0002:0006e660       ??8const_iterator@?$list@UToolTip@cListDialog@@V?$allocator@UToolTip@cListDialog@@@std@@@std@@QBE_NABV012@@Z 005a6660 f i cListDialog.obj
 0002:0006e680       ?_Mynode@const_iterator@?$list@UToolTip@cListDialog@@V?$allocator@UToolTip@cListDialog@@@std@@@std@@QBEPAU_Node@?$_List_nod@UToolTip@cListDialog@@V?$allocator@UToolTip@cListDialog@@@std@@@3@XZ 005a6680 f i cListDialog.obj
 0002:0006e690       ?_Nextnode@?$list@V?$basic_string@DU?$char_traits@D@std@@V?$allocator@D@2@@std@@V?$allocator@V?$basic_string@DU?$char_traits@D@std@@V?$allocator@D@2@@std@@@2@@std@@KAAAPAU_Node@?$_List_nod@V?$basic_string@DU?$char_traits@D@std@@V?$allocator@D@2@@std@@V?$allocator@V?$basic_string@DU?$char_traits@D@std@@V?$allocator@D@2@@std@@@2@@2@PAU342@@Z 005a6690 f i cListDialog.obj
 0002:0006e6a0       ??0const_iterator@?$list@V?$basic_string@DU?$char_traits@D@std@@V?$allocator@D@2@@std@@V?$allocator@V?$basic_string@DU?$char_traits@D@std@@V?$allocator@D@2@@std@@@2@@std@@QAE@PAU_Node@?$_List_nod@V?$basic_string@DU?$char_traits@D@std@@V?$allocator@D@2@@std@@V?$allocator@V?$basic_string@DU?$char_traits@D@std@@V?$allocator@D@2@@std@@@2@@2@@Z 005a66a0 f i cListDialog.obj
 0002:0006e6b0       ??8const_iterator@?$list@V?$basic_string@DU?$char_traits@D@std@@V?$allocator@D@2@@std@@V?$allocator@V?$basic_string@DU?$char_traits@D@std@@V?$allocator@D@2@@std@@@2@@std@@QBE_NABV012@@Z 005a66b0 f i cListDialog.obj
 0002:0006e6d0       ?_Myval@?$list@UToolTip@cListDialog@@V?$allocator@UToolTip@cListDialog@@@std@@@std@@KAAAUToolTip@cListDialog@@PAU_Node@?$_List_nod@UToolTip@cListDialog@@V?$allocator@UToolTip@cListDialog@@@std@@@2@@Z 005a66d0 f i cListDialog.obj
 0002:0006e6e0       ??0?$allocator@UToolTip@cListDialog@@@std@@QAE@ABV01@@Z 005a66e0 f i cListDialog.obj
 0002:0006e6f0       ??0const_iterator@?$list@UToolTip@cListDialog@@V?$allocator@UToolTip@cListDialog@@@std@@@std@@QAE@PAU_Node@?$_List_nod@UToolTip@cListDialog@@V?$allocator@UToolTip@cListDialog@@@std@@@2@@Z 005a66f0 f i cListDialog.obj
 0002:0006e700       ?_Myval@?$list@V?$basic_string@DU?$char_traits@D@std@@V?$allocator@D@2@@std@@V?$allocator@V?$basic_string@DU?$char_traits@D@std@@V?$allocator@D@2@@std@@@2@@std@@KAAAV?$basic_string@DU?$char_traits@D@std@@V?$allocator@D@2@@2@PAU_Node@?$_List_nod@V?$basic_string@DU?$char_traits@D@std@@V?$allocator@D@2@@std@@V?$allocator@V?$basic_string@DU?$char_traits@D@std@@V?$allocator@D@2@@std@@@2@@2@@Z 005a6700 f i cListDialog.obj
 0002:0006e710       ?max_size@?$allocator@UToolTip@cListDialog@@@std@@QBEIXZ 005a6710 f i cListDialog.obj
 0002:0006e720       ??$?0UToolTip@cListDialog@@@?$allocator@PAU_Node@?$_List_nod@UToolTip@cListDialog@@V?$allocator@UToolTip@cListDialog@@@std@@@std@@@std@@QAE@ABV?$allocator@UToolTip@cListDialog@@@1@@Z 005a6720 f i cListDialog.obj
 0002:0006e730       ??$_Allocate@U_Node@?$_List_nod@UToolTip@cListDialog@@V?$allocator@UToolTip@cListDialog@@@std@@@std@@@std@@YAPAU_Node@?$_List_nod@UToolTip@cListDialog@@V?$allocator@UToolTip@cListDialog@@@std@@@0@IPAU120@@Z 005a6730 f i cListDialog.obj
 0002:0006e750       ??$_Construct@PAU_Node@?$_List_nod@UToolTip@cListDialog@@V?$allocator@UToolTip@cListDialog@@@std@@@std@@PAU123@@std@@YAXPAPAU_Node@?$_List_nod@UToolTip@cListDialog@@V?$allocator@UToolTip@cListDialog@@@std@@@0@ABQAU120@@Z 005a6750 f i cListDialog.obj
 0002:0006e770       ??$_Destroy@PAU_Node@?$_List_nod@UToolTip@cListDialog@@V?$allocator@UToolTip@cListDialog@@@std@@@std@@@std@@YAXPAPAU_Node@?$_List_nod@UToolTip@cListDialog@@V?$allocator@UToolTip@cListDialog@@@std@@@0@@Z 005a6770 f i cListDialog.obj
 0002:0006e780       ??$?0UToolTip@cListDialog@@@?$allocator@U_Node@?$_List_nod@UToolTip@cListDialog@@V?$allocator@UToolTip@cListDialog@@@std@@@std@@@std@@QAE@ABV?$allocator@UToolTip@cListDialog@@@1@@Z 005a6780 f i cListDialog.obj
 0002:0006e790       ?Init@cListDialog@@UAEXJJGPAVcImage@@G0G0G0EJ@Z 005a6790 f   cListDialog.obj
 0002:0006e940       ?InitList@cListDialog@@UAEXGPAUtagRECT@@@Z 005a6940 f   cListDialog.obj
 0002:0006e990       ?IsMaxLineOver@cListDialog@@QAEHXZ 005a6990 f   cListDialog.obj
 0002:0006e9b0       ?Render@cListDialog@@UAEXXZ 005a69b0 f   cListDialog.obj
 0002:0006ea50       ?OnUpwardItem@cListDialog@@QAEXXZ 005a6a50 f   cListDialog.obj
 0002:0006eac0       ?OnDownwardItem@cListDialog@@QAEXXZ 005a6ac0 f   cListDialog.obj
 0002:0006eb30       ?AddItem@cListDialog@@UAEXPBDKH@Z 005a6b30 f   cListDialog.obj
 0002:0006ec40       ?AddItemWithFont@cListDialog@@QAEXPADKHH@Z 005a6c40 f   cListDialog.obj
 0002:0006ed50       ?SetTopListItemIdx@cListDialog@@QAEXH@Z 005a6d50 f   cListDialog.obj
 0002:0006edf0       ?PtIdxInRow@cListDialog@@QAEHJJ@Z 005a6df0 f   cListDialog.obj
 0002:0006ef60       ?SetCurSelectedRowIdx@cListDialog@@QAEXH@Z 005a6f60 f   cListDialog.obj
 0002:0006eff0       ?ResetGuageBarPos@cListDialog@@QAEXXZ 005a6ff0 f   cListDialog.obj
 0002:0006f090       ??Eiterator@?$list@UToolTip@cListDialog@@V?$allocator@UToolTip@cListDialog@@@std@@@std@@QAEAAV012@XZ 005a7090 f i cListDialog.obj
 0002:0006f0a0       ??9const_iterator@?$list@UToolTip@cListDialog@@V?$allocator@UToolTip@cListDialog@@@std@@@std@@QBE_NABV012@@Z 005a70a0 f i cListDialog.obj
 0002:0006f0c0       ?begin@?$list@V?$basic_string@DU?$char_traits@D@std@@V?$allocator@D@2@@std@@V?$allocator@V?$basic_string@DU?$char_traits@D@std@@V?$allocator@D@2@@std@@@2@@std@@QBE?AVconst_iterator@12@XZ 005a70c0 f i cListDialog.obj
 0002:0006f0e0       ?end@?$list@V?$basic_string@DU?$char_traits@D@std@@V?$allocator@D@2@@std@@V?$allocator@V?$basic_string@DU?$char_traits@D@std@@V?$allocator@D@2@@std@@@2@@std@@QBE?AVconst_iterator@12@XZ 005a70e0 f i cListDialog.obj
 0002:0006f0f0       ??Econst_iterator@?$list@V?$basic_string@DU?$char_traits@D@std@@V?$allocator@D@2@@std@@V?$allocator@V?$basic_string@DU?$char_traits@D@std@@V?$allocator@D@2@@std@@@2@@std@@QAEAAV012@XZ 005a70f0 f i cListDialog.obj
 0002:0006f100       ??9const_iterator@?$list@V?$basic_string@DU?$char_traits@D@std@@V?$allocator@D@2@@std@@V?$allocator@V?$basic_string@DU?$char_traits@D@std@@V?$allocator@D@2@@std@@@2@@std@@QBE_NABV012@@Z 005a7100 f i cListDialog.obj
 0002:0006f120       ??0iterator@?$list@UToolTip@cListDialog@@V?$allocator@UToolTip@cListDialog@@@std@@@std@@QAE@PAU_Node@?$_List_nod@UToolTip@cListDialog@@V?$allocator@UToolTip@cListDialog@@@std@@@2@@Z 005a7120 f i cListDialog.obj
 0002:0006f130       ??Eiterator@?$list@UToolTip@cListDialog@@V?$allocator@UToolTip@cListDialog@@@std@@@std@@QAE?AV012@H@Z 005a7130 f i cListDialog.obj
 0002:0006f150       ??Dconst_iterator@?$list@UToolTip@cListDialog@@V?$allocator@UToolTip@cListDialog@@@std@@@std@@QBEABUToolTip@cListDialog@@XZ 005a7150 f i cListDialog.obj
 0002:0006f160       ??Dconst_iterator@?$list@V?$basic_string@DU?$char_traits@D@std@@V?$allocator@D@2@@std@@V?$allocator@V?$basic_string@DU?$char_traits@D@std@@V?$allocator@D@2@@std@@@2@@std@@QBEABV?$basic_string@DU?$char_traits@D@std@@V?$allocator@D@2@@2@XZ 005a7160 f i cListDialog.obj
 0002:0006f170       ?allocate@?$allocator@U_Node@?$_List_nod@UToolTip@cListDialog@@V?$allocator@UToolTip@cListDialog@@@std@@@std@@@std@@QAEPAU_Node@?$_List_nod@UToolTip@cListDialog@@V?$allocator@UToolTip@cListDialog@@@std@@@2@I@Z 005a7170 f i cListDialog.obj
 0002:0006f190       ?construct@?$allocator@PAU_Node@?$_List_nod@UToolTip@cListDialog@@V?$allocator@UToolTip@cListDialog@@@std@@@std@@@std@@QAEXPAPAU_Node@?$_List_nod@UToolTip@cListDialog@@V?$allocator@UToolTip@cListDialog@@@std@@@2@ABQAU342@@Z 005a7190 f i cListDialog.obj
 0002:0006f1b0       ?destroy@?$allocator@PAU_Node@?$_List_nod@UToolTip@cListDialog@@V?$allocator@UToolTip@cListDialog@@@std@@@std@@@std@@QAEXPAPAU_Node@?$_List_nod@UToolTip@cListDialog@@V?$allocator@UToolTip@cListDialog@@@std@@@2@@Z 005a71b0 f i cListDialog.obj
 0002:0006f1c0       ?max_size@?$list@UToolTip@cListDialog@@V?$allocator@UToolTip@cListDialog@@@std@@@std@@QBEIXZ 005a71c0 f i cListDialog.obj
 0002:0006f1d0       ??0?$_List_nod@UToolTip@cListDialog@@V?$allocator@UToolTip@cListDialog@@@std@@@std@@IAE@V?$allocator@UToolTip@cListDialog@@@1@@Z 005a71d0 f i cListDialog.obj
 0002:0006f1e0       ?compare@?$basic_string@DU?$char_traits@D@std@@V?$allocator@D@2@@std@@QBEHIIPBDI@Z 005a71e0 f i cListDialog.obj
 0002:0006f270       ?onSize@cListDialog@@QAEXH@Z 005a7270 f   cListDialog.obj
 0002:0006f4f0       ?SetExtendReduction@cListDialog@@QAEXH@Z 005a74f0 f   cListDialog.obj
 0002:0006f630       ?begin@?$list@UToolTip@cListDialog@@V?$allocator@UToolTip@cListDialog@@@std@@@std@@QAE?AViterator@12@XZ 005a7630 f i cListDialog.obj
 0002:0006f650       ?end@?$list@UToolTip@cListDialog@@V?$allocator@UToolTip@cListDialog@@@std@@@std@@QAE?AViterator@12@XZ 005a7650 f i cListDialog.obj
 0002:0006f660       ??Diterator@?$list@UToolTip@cListDialog@@V?$allocator@UToolTip@cListDialog@@@std@@@std@@QBEAAUToolTip@cListDialog@@XZ 005a7660 f i cListDialog.obj
 0002:0006f670       ??Cconst_iterator@?$list@V?$basic_string@DU?$char_traits@D@std@@V?$allocator@D@2@@std@@V?$allocator@V?$basic_string@DU?$char_traits@D@std@@V?$allocator@D@2@@std@@@2@@std@@QBEPBV?$basic_string@DU?$char_traits@D@std@@V?$allocator@D@2@@2@XZ 005a7670 f i cListDialog.obj
 0002:0006f680       ?_Buynode@?$list@UToolTip@cListDialog@@V?$allocator@UToolTip@cListDialog@@@std@@@std@@IAEPAU_Node@?$_List_nod@UToolTip@cListDialog@@V?$allocator@UToolTip@cListDialog@@@std@@@2@XZ 005a7680 f i cListDialog.obj
 0002:0006f6a0       ??0?$_List_ptr@UToolTip@cListDialog@@V?$allocator@UToolTip@cListDialog@@@std@@@std@@IAE@V?$allocator@UToolTip@cListDialog@@@1@@Z 005a76a0 f i cListDialog.obj
 0002:0006f6b0       ?compare@?$basic_string@DU?$char_traits@D@std@@V?$allocator@D@2@@std@@QBEHPBD@Z 005a76b0 f i cListDialog.obj
 0002:0006f6f0       ??0?$_List_val@UToolTip@cListDialog@@V?$allocator@UToolTip@cListDialog@@@std@@@std@@IAE@V?$allocator@UToolTip@cListDialog@@@1@@Z 005a76f0 f i cListDialog.obj
 0002:0006f700       ??$?8DU?$char_traits@D@std@@V?$allocator@D@1@@std@@YA_NABV?$basic_string@DU?$char_traits@D@std@@V?$allocator@D@2@@0@PBD@Z 005a7700 f i cListDialog.obj
 0002:0006f740       ?ListMouseCheck@cListDialog@@QAEXPAVCMouse@@@Z 005a7740 f   cListDialog.obj
 0002:0006f8b0       ??0ToolTip@cListDialog@@QAE@XZ 005a78b0 f i cListDialog.obj
 0002:0006f8d0       ??1ToolTip@cListDialog@@QAE@XZ 005a78d0 f i cListDialog.obj
 0002:0006f900       ??0?$list@UToolTip@cListDialog@@V?$allocator@UToolTip@cListDialog@@@std@@@std@@QAE@XZ 005a7900 f i cListDialog.obj
 0002:0006f920       ??1_Node@?$_List_nod@UToolTip@cListDialog@@V?$allocator@UToolTip@cListDialog@@@std@@@std@@QAE@XZ 005a7920 f i cListDialog.obj
 0002:0006f950       ?ActionEvent@cListDialog@@UAEKPAVCMouse@@@Z 005a7950 f   cListDialog.obj
 0002:0006fb80       ??_G_Node@?$_List_nod@UToolTip@cListDialog@@V?$allocator@UToolTip@cListDialog@@@std@@@std@@QAEPAXI@Z 005a7b80 f i cListDialog.obj
 0002:0006fbb0       ??0ToolTip@cListDialog@@QAE@ABU01@@Z 005a7bb0 f i cListDialog.obj
 0002:0006fbf0       ??$_Destroy@U_Node@?$_List_nod@UToolTip@cListDialog@@V?$allocator@UToolTip@cListDialog@@@std@@@std@@@std@@YAXPAU_Node@?$_List_nod@UToolTip@cListDialog@@V?$allocator@UToolTip@cListDialog@@@std@@@0@@Z 005a7bf0 f i cListDialog.obj
 0002:0006fc00       ??4?$basic_string@DU?$char_traits@D@std@@V?$allocator@D@2@@std@@QAEAAV01@PBD@Z 005a7c00 f i cListDialog.obj
 0002:0006fc30       ?destroy@?$allocator@U_Node@?$_List_nod@UToolTip@cListDialog@@V?$allocator@UToolTip@cListDialog@@@std@@@std@@@std@@QAEXPAU_Node@?$_List_nod@UToolTip@cListDialog@@V?$allocator@UToolTip@cListDialog@@@std@@@2@@Z 005a7c30 f i cListDialog.obj
 0002:0006fc40       ?_Incsize@?$list@UToolTip@cListDialog@@V?$allocator@UToolTip@cListDialog@@@std@@@std@@IAEXI@Z 005a7c40 f i cListDialog.obj
 0002:0006fd00       ??0_Node@?$_List_nod@UToolTip@cListDialog@@V?$allocator@UToolTip@cListDialog@@@std@@@std@@QAE@PAU012@0ABUToolTip@cListDialog@@@Z 005a7d00 f i cListDialog.obj
 0002:0006fd60       ?erase@?$list@UToolTip@cListDialog@@V?$allocator@UToolTip@cListDialog@@@std@@@std@@QAE?AViterator@12@V312@@Z 005a7d60 f i cListDialog.obj
 0002:0006fdc0       ?clear@?$list@UToolTip@cListDialog@@V?$allocator@UToolTip@cListDialog@@@std@@@std@@QAEXXZ 005a7dc0 f i cListDialog.obj
 0002:0006fe10       ?_Tidy@?$list@UToolTip@cListDialog@@V?$allocator@UToolTip@cListDialog@@@std@@@std@@IAEXXZ 005a7e10 f i cListDialog.obj
 0002:0006fe40       ?_Buynode@?$list@UToolTip@cListDialog@@V?$allocator@UToolTip@cListDialog@@@std@@@std@@IAEPAU_Node@?$_List_nod@UToolTip@cListDialog@@V?$allocator@UToolTip@cListDialog@@@std@@@2@PAU342@0ABUToolTip@cListDialog@@@Z 005a7e40 f i cListDialog.obj
 0002:0006ff00       ?RemoveAll@cListDialog@@UAEXXZ 005a7f00 f   cListDialog.obj
 0002:0006ff70       ?RemoveItem@cListDialog@@UAEXK@Z 005a7f70 f   cListDialog.obj
 0002:00070120       ?RemoveItem@cListDialog@@UAEXPBD@Z 005a8120 f   cListDialog.obj
 0002:00070260       ??1?$list@UToolTip@cListDialog@@V?$allocator@UToolTip@cListDialog@@@std@@@std@@QAE@XZ 005a8260 f i cListDialog.obj
 0002:00070290       ?_Insert@?$list@UToolTip@cListDialog@@V?$allocator@UToolTip@cListDialog@@@std@@@std@@QAEXViterator@12@ABUToolTip@cListDialog@@@Z 005a8290 f i cListDialog.obj
 0002:000702d0       ??0cListDialog@@QAE@XZ     005a82d0 f   cListDialog.obj
 0002:000704f0       ??_EcListDialog@@WBLE@AEPAXI@Z 005a84f0 f i cListDialog.obj
 0002:00070500       ??1cListDialog@@UAE@XZ     005a8500 f   cListDialog.obj
 0002:00070670       ?push_back@?$list@UToolTip@cListDialog@@V?$allocator@UToolTip@cListDialog@@@std@@@std@@QAEXABUToolTip@cListDialog@@@Z 005a8670 f i cListDialog.obj
 0002:000706b0       ??_GcListDialog@@UAEPAXI@Z 005a86b0 f i cListDialog.obj
 0002:000706b0       ??_EcListDialog@@UAEPAXI@Z 005a86b0 f i cListDialog.obj
 0002:000706e0       ?AddItem@cListDialog@@QAEXPBDKABV?$list@V?$basic_string@DU?$char_traits@D@std@@V?$allocator@D@2@@std@@V?$allocator@V?$basic_string@DU?$char_traits@D@std@@V?$allocator@D@2@@std@@@2@@std@@@Z 005a86e0 f   cListDialog.obj
 0002:000708e0       ??0LINE_NODE@@QAE@XZ       005a88e0 f i cMultiLineText.obj
 0002:00070910       ??1LINE_NODE@@QAE@XZ       005a8910 f i cMultiLineText.obj
 0002:00070920       ??0cMultiLineText@@QAE@XZ  005a8920 f   cMultiLineText.obj
 0002:00070990       ??_GLINE_NODE@@QAEPAXI@Z   005a8990 f i cMultiLineText.obj
 0002:000709b0       ?SetRenderArea@cMultiLineText@@QAEXPAUVECTOR2@@0@Z 005a89b0 f   cMultiLineText.obj
 0002:00070b50       ?AddLine@cMultiLineText@@QAEXPBDK@Z 005a8b50 f   cMultiLineText.obj
 0002:00070c70       ?AddNamePannel@cMultiLineText@@QAEXK@Z 005a8c70 f   cMultiLineText.obj
 0002:00070db0       ?Release@cMultiLineText@@QAEXXZ 005a8db0 f   cMultiLineText.obj
 0002:00070e00       ?Render@cMultiLineText@@QAEXXZ 005a8e00 f   cMultiLineText.obj
 0002:00070f50       ?SetText@cMultiLineText@@QAEXPBD@Z 005a8f50 f   cMultiLineText.obj
 0002:00071180       ?SetText@cMultiLineText@@UAEHPAUVECTOR3@@PBD@Z 005a9180 f   cMultiLineText.obj
 0002:000712a0       ??1cMultiLineText@@UAE@XZ  005a92a0 f   cMultiLineText.obj
 0002:000712c0       ?Init@cMultiLineText@@QAEXGKPAVcImage@@K@Z 005a92c0 f   cMultiLineText.obj
 0002:00071360       ??_GcMultiLineText@@UAEPAXI@Z 005a9360 f i cMultiLineText.obj
 0002:00071360       ??_EcMultiLineText@@UAEPAXI@Z 005a9360 f i cMultiLineText.obj
 0002:00071390       ??0cObject@@QAE@XZ         005a9390 f   cObject.obj
 0002:000713a0       ??1cObject@@UAE@XZ         005a93a0 f   cObject.obj
 0002:000713b0       ??_EcObject@@UAEPAXI@Z     005a93b0 f i cObject.obj
 0002:000713b0       ??_GcObject@@UAEPAXI@Z     005a93b0 f i cObject.obj
 0002:000713e0       ??0cPushupButton@@QAE@XZ   005a93e0 f   cPushupButton.obj
 0002:00071410       ??1cPushupButton@@UAE@XZ   005a9410 f   cPushupButton.obj
 0002:00071420       ?Init@cPushupButton@@UAEXJJGGPAVcImage@@00P6AXJPAXK@ZJ@Z 005a9420 f   cPushupButton.obj
 0002:00071480       ?SetPush@cPushupButton@@QAEXH@Z 005a9480 f   cPushupButton.obj
 0002:000714e0       ?SetPushEx@cPushupButton@@QAEXH@Z 005a94e0 f   cPushupButton.obj
 0002:00071560       ??_EcPushupButton@@UAEPAXI@Z 005a9560 f i cPushupButton.obj
 0002:00071560       ??_GcPushupButton@@UAEPAXI@Z 005a9560 f i cPushupButton.obj
 0002:00071590       ?ActionEvent@cPushupButton@@UAEKPAVCMouse@@@Z 005a9590 f   cPushupButton.obj
 0002:000716d0       ??0IMAGE_NODE@@QAE@XZ      005a96d0 f i cResourceManager.obj
 0002:000716e0       ??0cResourceManager@@QAE@XZ 005a96e0 f   cResourceManager.obj
 0002:00071770       ?GetInfo@cResourceManager@@QAEPAUIMAGE_NODE@@H@Z 005a9770 f   cResourceManager.obj
 0002:000717a0       ?GetImageInfo@cResourceManager@@QAEPAUIDISpriteObject@@H@Z 005a97a0 f   cResourceManager.obj
 0002:00071820       ?GetImageInfo@cResourceManager@@QAEPAUIDISpriteObject@@PADUVECTOR2@@H@Z 005a9820 f   cResourceManager.obj
 0002:00071ab0       ?ReleaseResourceAll@cResourceManager@@QAEXXZ 005a9ab0 f   cResourceManager.obj
 0002:00071b90       ?GetMsg@cResourceManager@@QAEPADH@Z 005a9b90 f   cResourceManager.obj
 0002:00071cd0       ?ReleaseResource@cResourceManager@@QAEXH@Z 005a9cd0 f   cResourceManager.obj
 0002:00071de0       ?GetClassNameNum@cResourceManager@@QAEHH@Z 005a9de0 f   cResourceManager.obj
 0002:00072530       ?GetClassIconNum@cResourceManager@@QAEHH@Z 005aa530 f   cResourceManager.obj
 0002:000725a0       ?ReleaseIconList@cResourceManager@@QAEXXZ 005aa5a0 f   cResourceManager.obj
 0002:00072600       ?Release@cResourceManager@@QAEXXZ 005aa600 f   cResourceManager.obj
 0002:00072660       ?LoadClassIcon@cResourceManager@@QAEXXZ 005aa660 f   cResourceManager.obj
 0002:000727b0       ??1cResourceManager@@UAE@XZ 005aa7b0 f   cResourceManager.obj
 0002:00072870       ?Init@cResourceManager@@QAEXPAD0@Z 005aa870 f   cResourceManager.obj
 0002:00072ac0       ??_GcResourceManager@@UAEPAXI@Z 005aaac0 f i cResourceManager.obj
 0002:00072ac0       ??_EcResourceManager@@UAEPAXI@Z 005aaac0 f i cResourceManager.obj
 0002:00072af0       ??0cScriptManager@@QAE@XZ  005aaaf0 f   cScriptManager.obj
 0002:00072b10       ??_GcScriptManager@@UAEPAXI@Z 005aab10 f i cScriptManager.obj
 0002:00072b10       ??_EcScriptManager@@UAEPAXI@Z 005aab10 f i cScriptManager.obj
 0002:00072b40       ??1cScriptManager@@UAE@XZ  005aab40 f   cScriptManager.obj
 0002:00072b50       ?GetMsg@cScriptManager@@IAEPADH@Z 005aab50 f   cScriptManager.obj
 0002:00072b60       ?GetImage@cScriptManager@@IAEXPAVCMHFile@@PAVcImage@@@Z 005aab60 f   cScriptManager.obj
 0002:00072c70       ?GetImage@cScriptManager@@QAEXHPAVcImage@@PAUtagRECT@@@Z 005aac70 f   cScriptManager.obj
 0002:00072cf0       ?SetSpriteObject@cImageBase@@QAEXPAUIDISpriteObject@@@Z 005aacf0 f i cScriptManager.obj
 0002:00072d00       ?SetImageSrcSize@cImage@@QAEXPBUVECTOR2@@@Z 005aad00 f i cScriptManager.obj
 0002:00072d20       ?SetImageSrcRect@cImage@@QAEXPBUtagRECT@@@Z 005aad20 f i cScriptManager.obj
 0002:00072d50       ?GetImage@cScriptManager@@QAEXHPAVcImage@@W4ePATH_FILE_TYPE@@@Z 005aad50 f   cScriptManager.obj
 0002:00072fd0       ?GetDlgInfoFromFile@cScriptManager@@QAEPAVcWindow@@PAD0@Z 005aafd0 f   cScriptManager.obj
 0002:00076b60       ?GetCtrlInfo@cScriptManager@@QAEPAVcWindow@@PAV2@PADPAVCMHFile@@@Z 005aeb60 f   cScriptManager.obj
 0002:000777b0       ?InitTokenHash@cScriptManager@@IAEXXZ 005af7b0 f   cScriptManager.obj
 0002:00077920       ?ReleaseTokenHash@cScriptManager@@IAEXXZ 005af920 f   cScriptManager.obj
 0002:00077990       ?GetInfoFromFile@cScriptManager@@QAEPAVcWindow@@PAV2@PAVCMHFile@@@Z 005af990 f   cScriptManager.obj
 0002:0007c370       ?SetRelXY@cWindow@@QAEXJJ@Z 005b4370 f i cScriptManager.obj
 0002:0007c3a0       ?SetValidXY@cWindow@@QAEXJJ@Z 005b43a0 f i cScriptManager.obj
 0002:0007c3d0       ?SetWH@cWindow@@QAEXGG@Z   005b43d0 f i cScriptManager.obj
 0002:0007c400       ?SetcbFunc@cWindow@@QAEXP6AXJPAXK@Z@Z 005b4400 f i cScriptManager.obj
 0002:0007c420       ?SetImageSrcRect@cWindow@@QAEXPAUtagRECT@@@Z 005b4420 f i cScriptManager.obj
 0002:0007c440       ?SetUseOwnAlpha@cWindow@@QAEXH@Z 005b4440 f i cScriptManager.obj
 0002:0007c450       ?SetTextXY@cStatic@@QAEXJJ@Z 005b4450 f i cScriptManager.obj
 0002:0007c470       ?SetFGColor@cStatic@@QAEXK@Z 005b4470 f i cScriptManager.obj
 0002:0007c480       ?SetShadowTextXY@cStatic@@QAEXJJ@Z 005b4480 f i cScriptManager.obj
 0002:0007c4a0       ?SetShadowColor@cStatic@@QAEXK@Z 005b44a0 f i cScriptManager.obj
 0002:0007c4b0       ?SetTextAlpha@cStatic@@QAEXH@Z 005b44b0 f i cScriptManager.obj
 0002:0007c4c0       ?SetHasExtendColor@cStatic@@QAEXH@Z 005b44c0 f i cScriptManager.obj
 0002:0007c4d0       ?SetExtendColorCount@cStatic@@QAEXE@Z 005b44d0 f i cScriptManager.obj
 0002:0007c4e0       ?SetGuageImagePos@cGuagen@@QAEXJJ@Z 005b44e0 f i cScriptManager.obj
 0002:0007c500       ?SetValue@cGuagen@@QAEXM@Z 005b4500 f i cScriptManager.obj
 0002:0007c540       ?SetPieceImage@cGuagen@@QAEXPAVcImage@@@Z 005b4540 f i cScriptManager.obj
 0002:0007c550       ?SetGuageWidth@cGuagen@@QAEXM@Z 005b4550 f i cScriptManager.obj
 0002:0007c560       ?SetGuagePieceWidth@cGuagen@@QAEXM@Z 005b4560 f i cScriptManager.obj
 0002:0007c570       ?SetGuagePieceHeightScale@cGuagen@@QAEXM@Z 005b4570 f i cScriptManager.obj
 0002:0007c580       ?SetIconCellBGImage@cIconDialog@@QAEXPAVcImage@@@Z 005b4580 f i cScriptManager.obj
 0002:0007c590       ?SetDragOverBGImage@cIconDialog@@QAEXPAVcImage@@@Z 005b4590 f i cScriptManager.obj
 0002:0007c5a0       ?SetIconCellBGImage@cIconGridDialog@@QAEXPAVcImage@@@Z 005b45a0 f i cScriptManager.obj
 0002:0007c5b0       ?SetDragOverBGImage@cIconGridDialog@@QAEXPAVcImage@@@Z 005b45b0 f i cScriptManager.obj
 0002:0007c5c0       ?SetTextAni@cButton@@QAEXEE@Z 005b45c0 f i cScriptManager.obj
 0002:0007c5e0       ?SetClickSound@cButton@@QAEXG@Z 005b45e0 f i cScriptManager.obj
 0002:0007c600       ?SetShadowTextXY@cButton@@QAEXJJ@Z 005b4600 f i cScriptManager.obj
 0002:0007c620       ?SetShadowColor@cButton@@QAEXK@Z 005b4620 f i cScriptManager.obj
 0002:0007c630       ?SetShadow@cButton@@QAEXH@Z 005b4630 f i cScriptManager.obj
 0002:0007c640       ?SetChecked@cCheckBox@@QAEXH@Z 005b4640 f i cScriptManager.obj
 0002:0007c650       ?SetCheckBoxMsg@cCheckBox@@QAEXPADK@Z 005b4650 f i cScriptManager.obj
 0002:0007c690       ?SetActiveTextColor@cEditBox@@QAEXK@Z 005b4690 f i cScriptManager.obj
 0002:0007c6a0       ?SetNonactiveTextColor@cEditBox@@QAEXK@Z 005b46a0 f i cScriptManager.obj
 0002:0007c6b0       ?SetSecret@cEditBox@@QAEXH@Z 005b46b0 f i cScriptManager.obj
 0002:0007c6c0       ?SetReadOnly@cEditBox@@QAEXH@Z 005b46c0 f i cScriptManager.obj
 0002:0007c6d0       ?SetCaretColor@cEditBox@@QAEXK@Z 005b46d0 f i cScriptManager.obj
 0002:0007c6e0       ?SetMaxLine@cListItem@@QAEXG@Z 005b46e0 f i cScriptManager.obj
 0002:0007c6f0       ?SetLineUpward@cList@@QAEXH@Z 005b46f0 f i cScriptManager.obj
 0002:0007c700       ?SetListBarImage@cList@@QAEXPAVcImage@@@Z 005b4700 f i cScriptManager.obj
 0002:0007c710       ?SetMinMaxMiddleNum@cListDialog@@QAEXEE@Z 005b4710 f i cScriptManager.obj
 0002:0007c730       ?SetOverImageScale@cListDialog@@QAEXMM@Z 005b4730 f i cScriptManager.obj
 0002:0007c750       ?SetAutoScroll@cListDialog@@QAEXH@Z 005b4750 f i cScriptManager.obj
 0002:0007c760       ?SetShowScroll@cListDialog@@QAEXH@Z 005b4760 f i cScriptManager.obj
 0002:0007c770       ?SetColumnColor@cListDialog@@QAEXK@Z 005b4770 f i cScriptManager.obj
 0002:0007c780       ?SetSelectColumnColor@cListDialog@@QAEXK@Z 005b4780 f i cScriptManager.obj
 0002:0007c790       ?Create@cReportItem@@QAEXH@Z 005b4790 f i cScriptManager.obj
 0002:0007c840       ?InsertColoumn@cReportItem@@QAEXGPADGK@Z 005b4840 f i cScriptManager.obj
 0002:0007c900       ?SetItemText@cReportItem@@QAEXGGPADK@Z 005b4900 f i cScriptManager.obj
 0002:0007c9a0       ?GetItemCount@cReportItem@@QAEJXZ 005b49a0 f i cScriptManager.obj
 0002:0007c9b0       ?SetOverImageScale@cListCtrl@@QAEXMM@Z 005b49b0 f i cScriptManager.obj
 0002:0007c9d0       ?SetSelectOption@cListCtrl@@QAEXG@Z 005b49d0 f i cScriptManager.obj
 0002:0007c9f0       ?SetRowsMsgID@cListCtrl@@QAEXHH@Z 005b49f0 f i cScriptManager.obj
 0002:0007ca10       ?SetMinMax@cSpin@@QAEXKK@Z 005b4a10 f i cScriptManager.obj
 0002:0007ca30       ?SetPassive@cPushupButton@@QAEXH@Z 005b4a30 f i cScriptManager.obj
 0002:0007ca40       ?SetComboTextColor@cComboBox@@QAEXK@Z 005b4a40 f i cScriptManager.obj
 0002:0007ca50       ?SetOverImageScale@cComboBox@@QAEXMM@Z 005b4a50 f i cScriptManager.obj
 0002:0007ca70       ?SelectComboText@cComboBox@@QAEXG@Z 005b4a70 f i cScriptManager.obj
 0002:0007cad0       ?SetPieceImage@cGuage@@QAEXPAVcImage@@@Z 005b4ad0 f i cScriptManager.obj
 0002:0007cae0       ?SetMinValue@cGuage@@QAEXJ@Z 005b4ae0 f i cScriptManager.obj
 0002:0007cb00       ?SetMaxValue@cGuage@@QAEXJ@Z 005b4b00 f i cScriptManager.obj
 0002:0007cb20       ?SetCurValue@cGuage@@QAEXJ@Z 005b4b20 f i cScriptManager.obj
 0002:0007cb60       ?SetTravelingType@cAni@@QAEXG@Z 005b4b60 f i cScriptManager.obj
 0002:0007cb80       ?SetLoop@cAni@@QAEXH@Z     005b4b80 f i cScriptManager.obj
 0002:0007cb90       ?SetMiddleScale@cTextArea@@QAEXUVECTOR2@@@Z 005b4b90 f i cScriptManager.obj
 0002:0007cbb0       ?SetEffectPieceImage@CObjectGuagen@@QAEXPAVcImage@@@Z 005b4bb0 f i cScriptManager.obj
 0002:0007cbc0       ?SetGuageEffectPieceWidth@CObjectGuagen@@QAEXM@Z 005b4bc0 f i cScriptManager.obj
 0002:0007cbd0       ?SetGuageEffectPieceHeightScale@CObjectGuagen@@QAEXM@Z 005b4bd0 f i cScriptManager.obj
 0002:0007cbe0       ?GetAt@?$cLooseLinkedList@VRITEM@@@@QAEPAVRITEM@@H@Z 005b4be0 f i cScriptManager.obj
 0002:0007cc10       ??0cSpin@@QAE@XZ           005b4c10 f   cSpin.obj
 0002:0007cc60       ??1cSpin@@UAE@XZ           005b4c60 f   cSpin.obj
 0002:0007cd00       ?Init@cSpin@@UAEXJJGGPAVcImage@@P6AXJPAXK@ZJ@Z 005b4d00 f   cSpin.obj
 0002:0007cd60       ?SetAbsXY@cSpin@@UAEXJJ@Z  005b4d60 f   cSpin.obj
 0002:0007ce10       ?ActionEvent@cSpin@@UAEKPAVCMouse@@@Z 005b4e10 f   cSpin.obj
 0002:0007ceb0       ?Render@cSpin@@UAEXXZ      005b4eb0 f   cSpin.obj
 0002:0007cee0       ?GetValue@cSpin@@QAEJXZ    005b4ee0 f   cSpin.obj
 0002:0007cf70       ?SetValue@cSpin@@QAEXK@Z   005b4f70 f   cSpin.obj
 0002:0007d020       ?IncUnit@cSpin@@QAEXXZ     005b5020 f   cSpin.obj
 0002:0007d0d0       ?DecUnit@cSpin@@QAEXXZ     005b50d0 f   cSpin.obj
 0002:0007d190       ??_GcSpin@@UAEPAXI@Z       005b5190 f i cSpin.obj
 0002:0007d190       ??_EcSpin@@UAEPAXI@Z       005b5190 f i cSpin.obj
 0002:0007d1c0       ?InitSpin@cSpin@@QAEXGG@Z  005b51c0 f   cSpin.obj
 0002:0007d1f0       ?SpinUpBtnProc@@YAXJPAXK@Z 005b51f0 f   cSpin.obj
 0002:0007d200       ?SpinDownBtnProc@@YAXJPAXK@Z 005b5200 f   cSpin.obj
 0002:0007d210       ?Add@cSpin@@UAEXPAVcWindow@@@Z 005b5210 f   cSpin.obj
 0002:0007d320       ?IsValid@cMultiLineText@@QAEHXZ 005b5320 f i cStatic.obj
 0002:0007d330       ?SetFontIdx@cMultiLineText@@QAEXG@Z 005b5330 f i cStatic.obj
 0002:0007d340       ??4cMultiLineText@@QAEXPBD@Z 005b5340 f i cStatic.obj
 0002:0007d350       ?SetTextAlpha@cMultiLineText@@QAEXH@Z 005b5350 f i cStatic.obj
 0002:0007d360       ??0cStatic@@QAE@XZ         005b5360 f   cStatic.obj
 0002:0007d440       ??0cStatic@@QAE@ABV0@@Z    005b5440 f   cStatic.obj
 0002:0007d590       ??1cStatic@@UAE@XZ         005b5590 f   cStatic.obj
 0002:0007d640       ?InitMultiLine@cStatic@@QAEXXZ 005b5640 f   cStatic.obj
 0002:0007d680       ?SetFontIdx@cStatic@@QAEXG@Z 005b5680 f   cStatic.obj
 0002:0007d6a0       ?SetRenderArea@cStatic@@QAEXXZ 005b56a0 f   cStatic.obj
 0002:0007d820       ?SetStaticText@cStatic@@QAEXPBD@Z 005b5820 f   cStatic.obj
 0002:0007d8f0       ?SetExtendColor@cStatic@@QAEXEK@Z 005b58f0 f   cStatic.obj
 0002:0007d910       ?GetExtendColor@cStatic@@QAEKE@Z 005b5910 f   cStatic.obj
 0002:0007d930       ?InitializeExtendColor@cStatic@@QAEXXZ 005b5930 f   cStatic.obj
 0002:0007d960       ?Add@cStatic@@UAEXPAVcWindow@@@Z 005b5960 f   cStatic.obj
 0002:0007d980       ??_EcStatic@@UAEPAXI@Z     005b5980 f i cStatic.obj
 0002:0007d980       ??_GcStatic@@UAEPAXI@Z     005b5980 f i cStatic.obj
 0002:0007d9b0       ?Render@cStatic@@UAEXXZ    005b59b0 f   cStatic.obj
 0002:0007dc10       ??0cTabDialog@@QAE@XZ      005b5c10 f   cTabDialog.obj
 0002:0007dc70       ??1cTabDialog@@UAE@XZ      005b5c70 f   cTabDialog.obj
 0002:0007dd90       ?InitTab@cTabDialog@@QAEXE@Z 005b5d90 f   cTabDialog.obj
 0002:0007de90       ?SetAlpha@cTabDialog@@UAEXE@Z 005b5e90 f   cTabDialog.obj
 0002:0007df10       ?SetOptionAlpha@cTabDialog@@UAEXK@Z 005b5f10 f   cTabDialog.obj
 0002:0007df90       ?AddTabBtn@cTabDialog@@QAEXEPAVcPushupButton@@@Z 005b5f90 f   cTabDialog.obj
 0002:0007e0b0       ?AddTabSheet@cTabDialog@@QAEXEPAVcWindow@@@Z 005b60b0 f   cTabDialog.obj
 0002:0007e1c0       ?ActionEvent@cTabDialog@@UAEKPAVCMouse@@@Z 005b61c0 f   cTabDialog.obj
 0002:0007e280       ?SelectTab@cTabDialog@@UAEXE@Z 005b6280 f   cTabDialog.obj
 0002:0007e370       ?RenderTabComponent@cTabDialog@@UAEXXZ 005b6370 f   cTabDialog.obj
 0002:0007e420       ?SetAbsXY@cTabDialog@@UAEXJJ@Z 005b6420 f   cTabDialog.obj
 0002:0007e560       ?SetActive@cTabDialog@@UAEXH@Z 005b6560 f   cTabDialog.obj
 0002:0007e620       ?GetTabBtn@cTabDialog@@QAEPAVcPushupButton@@E@Z 005b6620 f   cTabDialog.obj
 0002:0007e670       ?GetTabSheet@cTabDialog@@QAEPAVcWindow@@E@Z 005b6670 f   cTabDialog.obj
 0002:0007e6c0       ?SetDisable@cTabDialog@@UAEXH@Z 005b66c0 f   cTabDialog.obj
 0002:0007e750       ?GetWindowForID@cTabDialog@@UAEPAVcWindow@@J@Z 005b6750 f   cTabDialog.obj
 0002:0007e7c0       ?SetTabStyle@cTabDialog@@QAEXE@Z 005b67c0 f   cTabDialog.obj
 0002:0007e870       ?SetVisibleTabCount@cTabDialog@@QAEXE@Z 005b6870 f   cTabDialog.obj
 0002:0007e930       ?ShowTab@cTabDialog@@QAEXEH@Z 005b6930 f   cTabDialog.obj
 0002:0007eab0       ??_EcTabDialog@@UAEPAXI@Z  005b6ab0 f i cTabDialog.obj
 0002:0007eab0       ??_GcTabDialog@@UAEPAXI@Z  005b6ab0 f i cTabDialog.obj
 0002:0007eae0       ?Render@cTabDialog@@UAEXXZ 005b6ae0 f   cTabDialog.obj
 0002:0007eb00       ??0cText@@QAE@XZ           005b6b00 f   cText.obj
 0002:0007eb50       ?SetText@cText@@UAEXPAD@Z  005b6b50 f i cText.obj
 0002:0007eb60       ?ActionEvent@cText@@UAEKPAVCMouse@@@Z 005b6b60 f   cText.obj
 0002:0007ebf0       ?SetRenderArea@cText@@QAEXXZ 005b6bf0 f   cText.obj
 0002:0007ec70       ?Release@cText@@QAEXXZ     005b6c70 f   cText.obj
 0002:0007ecd0       ?Render@cText@@UAEXXZ      005b6cd0 f   cText.obj
 0002:0007edb0       ??1cText@@UAE@XZ           005b6db0 f   cText.obj
 0002:0007edd0       ??_GcText@@UAEPAXI@Z       005b6dd0 f i cText.obj
 0002:0007edd0       ??_EcText@@UAEPAXI@Z       005b6dd0 f i cText.obj
 0002:0007ee00       ?IsChanged@cIMEex@@QAEHH@Z 005b6e00 f i cTextArea.obj
 0002:0007ee20       ?SetEnterAllow@cIMEex@@QAEXH@Z 005b6e20 f i cTextArea.obj
 0002:0007ee30       ??0cTextArea@@QAE@XZ       005b6e30 f   cTextArea.obj
 0002:0007ef50       ??1cTextArea@@UAE@XZ       005b6f50 f   cTextArea.obj
 0002:0007f020       ?InitTextArea@cTextArea@@QAEXPAUtagRECT@@H@Z 005b7020 f   cTextArea.obj
 0002:0007f110       ?Render@cTextArea@@UAEXXZ  005b7110 f   cTextArea.obj
 0002:0007f6c0       ?Add@cTextArea@@UAEXPAVcWindow@@@Z 005b76c0 f   cTextArea.obj
 0002:0007f760       ?SetActive@cTextArea@@UAEXH@Z 005b7760 f   cTextArea.obj
 0002:0007f790       ?SetFocus@cTextArea@@QAEXH@Z 005b7790 f   cTextArea.obj
 0002:0007f7a0       ?SetFocusEdit@cTextArea@@UAEXH@Z 005b77a0 f   cTextArea.obj
 0002:0007f880       ?OnUpwardItem@cTextArea@@QAEXXZ 005b7880 f   cTextArea.obj
 0002:0007f8f0       ?OnDownwardItem@cTextArea@@QAEXXZ 005b78f0 f   cTextArea.obj
 0002:0007f960       ?GetScriptText@cTextArea@@QAEXPAD@Z 005b7960 f   cTextArea.obj
 0002:0007f970       ?SetScriptText@cTextArea@@QAEXPBD@Z 005b7970 f   cTextArea.obj
 0002:0007f990       ?SetCaretMoveFirst@cTextArea@@QAEXXZ 005b7990 f   cTextArea.obj
 0002:0007f9b0       ?SetLimitLine@cTextArea@@QAEHH@Z 005b79b0 f   cTextArea.obj
 0002:0007f9d0       ?SetEnterAllow@cTextArea@@QAEXH@Z 005b79d0 f   cTextArea.obj
 0002:0007f9f0       ?GetCaretPos@cTextArea@@QAEXPAJ0@Z 005b79f0 f   cTextArea.obj
 0002:0007fa80       ??_EcTextArea@@UAEPAXI@Z   005b7a80 f i cTextArea.obj
 0002:0007fa80       ??_GcTextArea@@UAEPAXI@Z   005b7a80 f i cTextArea.obj
 0002:0007fab0       ?InitTextArea@cTextArea@@QAEXPAUtagRECT@@HPAVcImage@@G1G1G@Z 005b7ab0 f   cTextArea.obj
 0002:0007fce0       ?ActionEvent@cTextArea@@UAEKPAVCMouse@@@Z 005b7ce0 f   cTextArea.obj
 0002:0007fed0       ?SetMouseInWindow@cWindowManager@@QAEXH@Z 005b7ed0 f i cWindow.obj
 0002:0007fee0       ?RButtonDown@CMouse@@QAEHXZ 005b7ee0 f i cWindow.obj
 0002:0007fef0       ?RButtonDoubleClick@CMouse@@QAEHXZ 005b7ef0 f i cWindow.obj
 0002:0007ff00       ?defaultWindowFunc@@YAXJPAXK@Z 005b7f00 f   cWindow.obj
 0002:0007ff10       ??0cWindow@@QAE@XZ         005b7f10 f   cWindow.obj
 0002:000800c0       ??1cWindow@@UAE@XZ         005b80c0 f   cWindow.obj
 0002:00080150       ?SaveDispPoint@cWindow@@QAEXUVECTOR2@@00@Z 005b8150 f   cWindow.obj
 0002:000801b0       ?PtInWindow@cWindow@@QAEHJJ@Z 005b81b0 f   cWindow.obj
 0002:00080270       ?ActionEvent@cWindow@@UAEKPAVCMouse@@@Z 005b8270 f   cWindow.obj
 0002:00080410       ?ExcuteCBFunc@cWindow@@QAEXK@Z 005b8410 f   cWindow.obj
 0002:00080440       ?ToolTipRender@cWindow@@QAEXXZ 005b8440 f   cWindow.obj
 0002:00080490       ?SetToolTip@cWindow@@QAEXPADKPAVcImage@@K@Z 005b8490 f   cWindow.obj
 0002:000804e0       ?AddToolTipLine@cWindow@@QAEXPBDK@Z 005b84e0 f   cWindow.obj
 0002:000804f0       ?SetDeltaPos@cWindow@@QAEXHUVECTOR2@@@Z 005b84f0 f   cWindow.obj
 0002:00080510       ?SetAutoLineToolTip@cWindow@@QAEXPBDKPAVcImage@@K@Z 005b8510 f   cWindow.obj
 0002:00080640       ?GetVariablePostion@cWindow@@IAEXAAUtagSIZE@@AAUtagPOINT@@0@Z 005b8640 f   cWindow.obj
 0002:00080810       ??_GcWindow@@UAEPAXI@Z     005b8810 f i cWindow.obj
 0002:00080810       ??_EcWindow@@UAEPAXI@Z     005b8810 f i cWindow.obj
 0002:00080840       ?Init@cWindow@@UAEXJJGGPAVcImage@@J@Z 005b8840 f   cWindow.obj
 0002:00080b00       ?Render@cWindow@@UAEXXZ    005b8b00 f   cWindow.obj
 0002:00080bb0       ?SetDragEnd@cWindowManager@@QAEXXZ 005b8bb0 f i cWindowManager.obj
 0002:00080bd0       ?DragWindowNull@cWindowManager@@QAEXXZ 005b8bd0 f i cWindowManager.obj
 0002:00080be0       ?IsAlwaysTop@cWindow@@QAEHXZ 005b8be0 f i cWindowManager.obj
 0002:00080bf0       ?SetAlwaysTop@cWindow@@QAEXH@Z 005b8bf0 f i cWindowManager.obj
 0002:00080c00       ?SetDestroy@cWindow@@QAEXXZ 005b8c00 f i cWindowManager.obj
 0002:00080c10       ?SetCharacterDialog@CGameIn@@QAEXPAVCCharacterDialog@@@Z 005b8c10 f i cWindowManager.obj
 0002:00080c20       ?SetSkillTreeDlg@CGameIn@@QAEXPAVcSkillTreeDlg@@@Z 005b8c20 f i cWindowManager.obj
 0002:00080c30       ?SetInventoryDialog@CGameIn@@QAEXPAVCInventoryExDialog@@@Z 005b8c30 f i cWindowManager.obj
 0002:00080c40       ?SetExchangeDialog@CGameIn@@QAEXPAVCExchangeDialog@@@Z 005b8c40 f i cWindowManager.obj
 0002:00080c50       ?GetMixDialog@CGameIn@@QAEPAVCMixDialog@@XZ 005b8c50 f i cWindowManager.obj
 0002:00080c60       ?SetMixDialog@CGameIn@@QAEXPAVCMixDialog@@@Z 005b8c60 f i cWindowManager.obj
 0002:00080c70       ?GetReinforceDialog@CGameIn@@QAEPAVCReinforceDlg@@XZ 005b8c70 f i cWindowManager.obj
 0002:00080c80       ?SetReinforceDialog@CGameIn@@QAEXPAVCReinforceDlg@@@Z 005b8c80 f i cWindowManager.obj
 0002:00080c90       ?SetDealDialog@CGameIn@@QAEXPAVCDealDialog@@@Z 005b8c90 f i cWindowManager.obj
 0002:00080ca0       ?SetStallKindSelectDialog@CGameIn@@QAEXPAVCStallKindSelectDlg@@@Z 005b8ca0 f i cWindowManager.obj
 0002:00080cb0       ?SetStreetBuyStallDialog@CGameIn@@QAEXPAVCStreetBuyStall@@@Z 005b8cb0 f i cWindowManager.obj
 0002:00080cc0       ?SetBuyRegDialog@CGameIn@@QAEXPAVCBuyRegDialog@@@Z 005b8cc0 f i cWindowManager.obj
 0002:00080cd0       ?SetStreetStallDialog@CGameIn@@QAEXPAVCStreetStall@@@Z 005b8cd0 f i cWindowManager.obj
 0002:00080ce0       ?SetNpcScriptDialog@CGameIn@@QAEXPAVcNpcScriptDialog@@@Z 005b8ce0 f i cWindowManager.obj
 0002:00080cf0       ?SetQuickDlg@CGameIn@@QAEXPAVcQuickDlg@@@Z 005b8cf0 f i cWindowManager.obj
 0002:00080d00       ?SetOptionDialog@CGameIn@@QAEXPAVCOptionDialog@@@Z 005b8d00 f i cWindowManager.obj
 0002:00080d10       ?SetExitDialog@CGameIn@@QAEXPAVCExitDialog@@@Z 005b8d10 f i cWindowManager.obj
 0002:00080d20       ?GetMonstermeterDlg@CGameIn@@QAEPAVCSHMonstermeterDlg@@XZ 005b8d20 f i cWindowManager.obj
 0002:00080d30       ?SetMonstermeterDlg@CGameIn@@QAEXPAVCSHMonstermeterDlg@@@Z 005b8d30 f i cWindowManager.obj
 0002:00080d40       ?SetFarmBuyDlg@CGameIn@@QAEXPAVCSHFarmBuyDlg@@@Z 005b8d40 f i cWindowManager.obj
 0002:00080d50       ?SetFarmUpgradeDlg@CGameIn@@QAEXPAVCSHFarmUpgradeDlg@@@Z 005b8d50 f i cWindowManager.obj
 0002:00080d60       ?SetFarmManageDlg@CGameIn@@QAEXPAVCSHFarmManageDlg@@@Z 005b8d60 f i cWindowManager.obj
 0002:00080d70       ?SetDateZoneListDlg@CGameIn@@QAEXPAVCSHDateZoneListDlg@@@Z 005b8d70 f i cWindowManager.obj
 0002:00080d80       ?SetChallengeZoneListDlg@CGameIn@@QAEXPAVCSHChallengeZoneListDlg@@@Z 005b8d80 f i cWindowManager.obj
 0002:00080d90       ?SetChallengeZoneClearNo1Dlg@CGameIn@@QAEXPAVCSHChallengeZoneClearNo1Dlg@@@Z 005b8d90 f i cWindowManager.obj
 0002:00080da0       ?SetCharStateDialog@CGameIn@@QAEXPAVCCharStateDialog@@@Z 005b8da0 f i cWindowManager.obj
 0002:00080db0       ?SetMenuSlotDialog@CGameIn@@QAEXPAVCMenuSlotDialog@@@Z 005b8db0 f i cWindowManager.obj
 0002:00080dc0       ?SetDissolveDialog@CGameIn@@QAEXPAVCDissolveDialog@@@Z 005b8dc0 f i cWindowManager.obj
 0002:00080dd0       ?SetEventNotifyDialog@CGameIn@@QAEXPAVCEventNotifyDialog@@@Z 005b8dd0 f i cWindowManager.obj
 0002:00080de0       ?SetMallNoticeDialog@CGameIn@@QAEXPAVCMallNoticeDialog@@@Z 005b8de0 f i cWindowManager.obj
 0002:00080df0       ?SetGuageDlg@CGameIn@@QAEXPAVCGuageDialog@@@Z 005b8df0 f i cWindowManager.obj
 0002:00080e00       ?SetPartyCreateDialog@CGameIn@@QAEXPAVCPartyCreateDlg@@@Z 005b8e00 f i cWindowManager.obj
 0002:00080e10       ?SetPartyInviteDialog@CGameIn@@QAEXPAVCPartyInviteDlg@@@Z 005b8e10 f i cWindowManager.obj
 0002:00080e20       ?GetGuildCreateDlg@CGameIn@@QAEPAVCGuildCreateDialog@@XZ 005b8e20 f i cWindowManager.obj
 0002:00080e30       ?SetGuildCreateDlg@CGameIn@@QAEXPAVCGuildCreateDialog@@@Z 005b8e30 f i cWindowManager.obj
 0002:00080e40       ?GetGuildUnionCreateDlg@CGameIn@@QAEPAVCGuildUnionCreateDialog@@XZ 005b8e40 f i cWindowManager.obj
 0002:00080e50       ?SetGuildUnionCreateDlg@CGameIn@@QAEXPAVCGuildUnionCreateDialog@@@Z 005b8e50 f i cWindowManager.obj
 0002:00080e60       ?SetGuildDlg@CGameIn@@QAEXPAVCGuildDialog@@@Z 005b8e60 f i cWindowManager.obj
 0002:00080e70       ?GetGuildInviteDlg@CGameIn@@QAEPAVCGuildInviteDialog@@XZ 005b8e70 f i cWindowManager.obj
 0002:00080e80       ?SetGuildInviteDlg@CGameIn@@QAEXPAVCGuildInviteDialog@@@Z 005b8e80 f i cWindowManager.obj
 0002:00080e90       ?GetGuildMarkDlg@CGameIn@@QAEPAVCGuildMarkDialog@@XZ 005b8e90 f i cWindowManager.obj
 0002:00080ea0       ?SetGuildMarkDlg@CGameIn@@QAEXPAVCGuildMarkDialog@@@Z 005b8ea0 f i cWindowManager.obj
 0002:00080eb0       ?GetGuildLevelUpDlg@CGameIn@@QAEPAVCGuildLevelUpDialog@@XZ 005b8eb0 f i cWindowManager.obj
 0002:00080ec0       ?SetGuildLevelUpDlg@CGameIn@@QAEXPAVCGuildLevelUpDialog@@@Z 005b8ec0 f i cWindowManager.obj
 0002:00080ed0       ?SetGuildNickNameDlg@CGameIn@@QAEXPAVCGuildNickNameDialog@@@Z 005b8ed0 f i cWindowManager.obj
 0002:00080ee0       ?GetGuildRankDlg@CGameIn@@QAEPAVCGuildRankDialog@@XZ 005b8ee0 f i cWindowManager.obj
 0002:00080ef0       ?SetGuildRankDlg@CGameIn@@QAEXPAVCGuildRankDialog@@@Z 005b8ef0 f i cWindowManager.obj
 0002:00080f00       ?GetGuildWarehouseDlg@CGameIn@@QAEPAVCGuildWarehouseDialog@@XZ 005b8f00 f i cWindowManager.obj
 0002:00080f10       ?SetGuildWarehouseDlg@CGameIn@@QAEXPAVCGuildWarehouseDialog@@@Z 005b8f10 f i cWindowManager.obj
 0002:00080f20       ?SetMiniMapDialog@CGameIn@@QAEXPAVCMiniMapDlg@@@Z 005b8f20 f i cWindowManager.obj
 0002:00080f30       ?GetBigMapDialog@CGameIn@@QAEPAVCBigMapDlg@@XZ 005b8f30 f i cWindowManager.obj
 0002:00080f40       ?SetBigMapDialog@CGameIn@@QAEXPAVCBigMapDlg@@@Z 005b8f40 f i cWindowManager.obj
 0002:00080f50       ?SetStorageDialog@CGameIn@@QAEXPAVCStorageDialog@@@Z 005b8f50 f i cWindowManager.obj
 0002:00080f60       ?SetFriendDialog@CGameIn@@QAEXPAVCFriendDialog@@@Z 005b8f60 f i cWindowManager.obj
 0002:00080f70       ?SetNoteDialog@CGameIn@@QAEXPAVCNoteDialog@@@Z 005b8f70 f i cWindowManager.obj
 0002:00080f80       ?SetMiniNoteDialog@CGameIn@@QAEXPAVCMiniNoteDialog@@@Z 005b8f80 f i cWindowManager.obj
 0002:00080f90       ?SetMiniFriendDialog@CGameIn@@QAEXPAVCMiniFriendDialog@@@Z 005b8f90 f i cWindowManager.obj
 0002:00080fa0       ?SetReviveDialog@CGameIn@@QAEXPAVCReviveDialog@@@Z 005b8fa0 f i cWindowManager.obj
 0002:00080fb0       ?SetWantNpcDialog@CGameIn@@QAEXPAVCWantNpcDialog@@@Z 005b8fb0 f i cWindowManager.obj
 0002:00080fc0       ?SetWantRegistDialog@CGameIn@@QAEXPAVCWantRegistDialog@@@Z 005b8fc0 f i cWindowManager.obj
 0002:00080fd0       ?SetQuestTotalDialog@CGameIn@@QAEXPAVCQuestTotalDialog@@@Z 005b8fd0 f i cWindowManager.obj
 0002:00080fe0       ?SetQuestDialog@CGameIn@@QAEXPAVCQuestDialog@@@Z 005b8fe0 f i cWindowManager.obj
 0002:00080ff0       ?SetQuestQuickViewDialog@CGameIn@@QAEXPAVCQuestQuickViewDialog@@@Z 005b8ff0 f i cWindowManager.obj
 0002:00081000       ?SetBailDialog@CGameIn@@QAEXPAVCBailDialog@@@Z 005b9000 f i cWindowManager.obj
 0002:00081010       ?SetItemShopDialog@CGameIn@@QAEXPAVCItemShopDialog@@@Z 005b9010 f i cWindowManager.obj
 0002:00081020       ?SetMoveDialog@CGameIn@@QAEXPAVCMoveDialog@@@Z 005b9020 f i cWindowManager.obj
 0002:00081030       ?SetPointSaveDialog@CGameIn@@QAEXPAVCPointSaveDialog@@@Z 005b9030 f i cWindowManager.obj
 0002:00081040       ?SetGFWarDeclareDlg@CGameIn@@QAEXPAVCGFWarDeclareDlg@@@Z 005b9040 f i cWindowManager.obj
 0002:00081050       ?SetGFWarResultDlg@CGameIn@@QAEXPAVCGFWarResultDlg@@@Z 005b9050 f i cWindowManager.obj
 0002:00081060       ?SetGFWarInfoDlg@CGameIn@@QAEXPAVCGFWarInfoDlg@@@Z 005b9060 f i cWindowManager.obj
 0002:00081070       ?SetGuildWarInfoDlg@CGameIn@@QAEXPAVCGuildWarInfoDlg@@@Z 005b9070 f i cWindowManager.obj
 0002:00081080       ?GetGuildPlusTimeDlg@CGameIn@@QAEPAVCGuildPlusTimeDlg@@XZ 005b9080 f i cWindowManager.obj
 0002:00081090       ?SetGuildPlusTimeDlg@CGameIn@@QAEXPAVCGuildPlusTimeDlg@@@Z 005b9090 f i cWindowManager.obj
 0002:000810a0       ?SetSkPointNotifydlg@CGameIn@@QAEXPAVCSkillPointNotify@@@Z 005b90a0 f i cWindowManager.obj
 0002:000810b0       ?GetPartyWarDlg@CGameIn@@QAEPAVCPartyWarDialog@@XZ 005b90b0 f i cWindowManager.obj
 0002:000810c0       ?SetPartyWarDlg@CGameIn@@QAEXPAVCPartyWarDialog@@@Z 005b90c0 f i cWindowManager.obj
 0002:000810d0       ?SetShoutDlg@CGameIn@@QAEXPAVCShoutDialog@@@Z 005b90d0 f i cWindowManager.obj
 0002:000810e0       ?SetFishingDlg@CGameIn@@QAEXPAVCFishingDialog@@@Z 005b90e0 f i cWindowManager.obj
 0002:000810f0       ?GetFishingGaugeDlg@CGameIn@@QAEPAVCFishingGaugeDialog@@XZ 005b90f0 f i cWindowManager.obj
 0002:00081100       ?SetFishingGaugeDlg@CGameIn@@QAEXPAVCFishingGaugeDialog@@@Z 005b9100 f i cWindowManager.obj
 0002:00081110       ?SetFishingPointDlg@CGameIn@@QAEXPAVCFishingPointDialog@@@Z 005b9110 f i cWindowManager.obj
 0002:00081120       ?GetWeatherDlg@CGameIn@@QAEPAVCWeatherDialog@@XZ 005b9120 f i cWindowManager.obj
 0002:00081130       ?SetWeatherDlg@CGameIn@@QAEXPAVCWeatherDialog@@@Z 005b9130 f i cWindowManager.obj
 0002:00081140       ?SetChaseDlg@CGameIn@@QAEXPAVCChaseDialog@@@Z 005b9140 f i cWindowManager.obj
 0002:00081150       ?SetChaseinputDlg@CGameIn@@QAEXPAVCChaseinputDialog@@@Z 005b9150 f i cWindowManager.obj
 0002:00081160       ?SetNameChangeDlg@CGameIn@@QAEXPAVCNameChangeDialog@@@Z 005b9160 f i cWindowManager.obj
 0002:00081170       ?SetNameChangeNotifyDlg@CGameIn@@QAEXPAVCNameChangeNotifyDlg@@@Z 005b9170 f i cWindowManager.obj
 0002:00081180       ?SetScreenShotDlg@CGameIn@@QAEXPAVCScreenShotDlg@@@Z 005b9180 f i cWindowManager.obj
 0002:00081190       ?SetChattingDlg@CGameIn@@QAEXPAVCChattingDlg@@@Z 005b9190 f i cWindowManager.obj
 0002:000811a0       ?SetMainSystemDlg@CGameIn@@QAEXPAVCMainSystemDlg@@@Z 005b91a0 f i cWindowManager.obj
 0002:000811b0       ?SetNpcImageDlg@CGameIn@@QAEXPAVcNpcImageDlg@@@Z 005b91b0 f i cWindowManager.obj
 0002:000811c0       ?SetGTRegistDlg@CGameIn@@QAEXPAVCGTRegistDialog@@@Z 005b91c0 f i cWindowManager.obj
 0002:000811d0       ?SetGTRegistcancelDlg@CGameIn@@QAEXPAVCGTRegistcancelDialog@@@Z 005b91d0 f i cWindowManager.obj
 0002:000811e0       ?SetGTStandingDlg@CGameIn@@QAEXPAVCGTStandingDialog@@@Z 005b91e0 f i cWindowManager.obj
 0002:000811f0       ?SetGTBattleListDlg@CGameIn@@QAEXPAVCGTBattleListDialog@@@Z 005b91f0 f i cWindowManager.obj
 0002:00081200       ?SetGTScoreInfoDlg@CGameIn@@QAEXPAVCGTScoreInfoDialog@@@Z 005b9200 f i cWindowManager.obj
 0002:00081210       ?SetSWTimeRegDlg@CGameIn@@QAEXPAVCSWTimeRegDlg@@@Z 005b9210 f i cWindowManager.obj
 0002:00081220       ?SetSWProtectRegDlg@CGameIn@@QAEXPAVCSWProtectRegDlg@@@Z 005b9220 f i cWindowManager.obj
 0002:00081230       ?SetSWInfoDlg@CGameIn@@QAEXPAVCSWInfoDlg@@@Z 005b9230 f i cWindowManager.obj
 0002:00081240       ?SetSWProfitDlg@CGameIn@@QAEXPAVCSWProfitDlg@@@Z 005b9240 f i cWindowManager.obj
 0002:00081250       ?SetSWEngraveDlg@CGameIn@@QAEXPAVCSWEngraveDialog@@@Z 005b9250 f i cWindowManager.obj
 0002:00081260       ?SetSWTimeDlg@CGameIn@@QAEXPAVCSWTimeDialog@@@Z 005b9260 f i cWindowManager.obj
 0002:00081270       ?SetSWStartTimeDlg@CGameIn@@QAEXPAVCSWStartTimeDialog@@@Z 005b9270 f i cWindowManager.obj
 0002:00081280       ?SetSealDlg@CGameIn@@QAEXPAVCSealDialog@@@Z 005b9280 f i cWindowManager.obj
 0002:00081290       ?SetChangeJobDlg@CGameIn@@QAEXPAVCChangeJobDialog@@@Z 005b9290 f i cWindowManager.obj
 0002:000812a0       ?SetReinforceGuideDlg@CGameIn@@QAEXPAVCReinforceGuideDialog@@@Z 005b92a0 f i cWindowManager.obj
 0002:000812b0       ?SetTipBrowserDlg@CGameIn@@QAEXPAVCTipBrowserDlg@@@Z 005b92b0 f i cWindowManager.obj
 0002:000812c0       ?SetKeySettingTipDlg@CGameIn@@QAEXPAVCKeySettingTipDlg@@@Z 005b92c0 f i cWindowManager.obj
 0002:000812d0       ?SetGuildNoteDlg@CGameIn@@QAEXPAVCGuildNoteDlg@@@Z 005b92d0 f i cWindowManager.obj
 0002:000812e0       ?SetUnionNoteDlg@CGameIn@@QAEXPAVCUnionNoteDlg@@@Z 005b92e0 f i cWindowManager.obj
 0002:000812f0       ?SetGuildNoticeDlg@CGameIn@@QAEXPAVCGuildNoticeDlg@@@Z 005b92f0 f i cWindowManager.obj
 0002:00081300       ?SetGuildJoinDialog@CGameIn@@QAEXPAVCGuildJoinDialog@@@Z 005b9300 f i cWindowManager.obj
 0002:00081310       ?SetDateMatchingDlg@CGameIn@@QAEXPAVCDateMatchingDlg@@@Z 005b9310 f i cWindowManager.obj
 0002:00081320       ?SetIdentificationDlg@CGameIn@@QAEXPAVCIdentification@@@Z 005b9320 f i cWindowManager.obj
 0002:00081330       ?SetFavorIconDlg@CGameIn@@QAEXPAVCFavorIcon@@@Z 005b9330 f i cWindowManager.obj
 0002:00081340       ?GetFamilyCreateDlg@CGameIn@@QAEPAVCFamilyCreateDialog@@XZ 005b9340 f i cWindowManager.obj
 0002:00081350       ?SetFamilyCreateDlg@CGameIn@@QAEXPAVCFamilyCreateDialog@@@Z 005b9350 f i cWindowManager.obj
 0002:00081360       ?SetFamilyDlg@CGameIn@@QAEXPAVCFamilyDialog@@@Z 005b9360 f i cWindowManager.obj
 0002:00081370       ?GetFamilyInviteDlg@CGameIn@@QAEPAVCFamilyInviteDialog@@XZ 005b9370 f i cWindowManager.obj
 0002:00081380       ?SetFamilyInviteDlg@CGameIn@@QAEXPAVCFamilyInviteDialog@@@Z 005b9380 f i cWindowManager.obj
 0002:00081390       ?SetFamilyMarkDlg@CGameIn@@QAEXPAVCFamilyMarkDialog@@@Z 005b9390 f i cWindowManager.obj
 0002:000813a0       ?SetFamilyNickNameDlg@CGameIn@@QAEXPAVCFamilyNickNameDialog@@@Z 005b93a0 f i cWindowManager.obj
 0002:000813b0       ?SetPetInfoDlg@CGameIn@@QAEXPAVCPetInfoDialog@@@Z 005b93b0 f i cWindowManager.obj
 0002:000813c0       ?SetPetUIDlg@CGameIn@@QAEXPAVcDialog@@@Z 005b93c0 f i cWindowManager.obj
 0002:000813d0       ?SetPetResurrectionDlg@CGameIn@@QAEXPAVCPetResurrectionDialog@@@Z 005b93d0 f i cWindowManager.obj
 0002:000813e0       ?SetAnimalDialog@CGameIn@@QAEXPAVCAnimalDialog@@@Z 005b93e0 f i cWindowManager.obj
 0002:000813f0       ?SetSkillTrainingDlg@CGameIn@@QAEXPAVcSkillTrainingDlg@@@Z 005b93f0 f i cWindowManager.obj
 0002:00081400       ?SetTutorialDlg@CGameIn@@QAEXPAVcTutorialDlg@@@Z 005b9400 f i cWindowManager.obj
 0002:00081410       ?GetTutorialDlg@CGameIn@@QAEPAVcTutorialDlg@@XZ 005b9410 f i cWindowManager.obj
 0002:00081420       ?SetHelpDlg@CGameIn@@QAEXPAVcHelperDlg@@@Z 005b9420 f i cWindowManager.obj
 0002:00081430       ?GetHelpDlg@CGameIn@@QAEPAVcHelperDlg@@XZ 005b9430 f i cWindowManager.obj
 0002:00081440       ?SetTutorialBtnDlg@CGameIn@@QAEXPAVcTutorialBtnDlg@@@Z 005b9440 f i cWindowManager.obj
 0002:00081450       ?GetTutorialBtnDlg@CGameIn@@QAEPAVcTutorialBtnDlg@@XZ 005b9450 f i cWindowManager.obj
 0002:00081460       ?SetItemMallBtnDlg@CGameIn@@QAEXPAVcItemMallBtnDlg@@@Z 005b9460 f i cWindowManager.obj
 0002:00081470       ?GetItemMallBtnDlg@CGameIn@@QAEPAVcItemMallBtnDlg@@XZ 005b9470 f i cWindowManager.obj
 0002:00081480       ?SetItemPopupDlg@CGameIn@@QAEXPAVcItemPopupDlg@@@Z 005b9480 f i cWindowManager.obj
 0002:00081490       ?GetItemPopupDlg@CGameIn@@QAEPAVcItemPopupDlg@@XZ 005b9490 f i cWindowManager.obj
 0002:000814a0       ?SetMapMoveDlg@CGameIn@@QAEXPAVcMapMoveDialog@@@Z 005b94a0 f i cWindowManager.obj
 0002:000814b0       ?SetChangeNameDlg@CGameIn@@QAEXPAVcChangeNameDialog@@@Z 005b94b0 f i cWindowManager.obj
 0002:000814c0       ?GetChangeNameDlg@CGameIn@@QAEPAVcChangeNameDialog@@XZ 005b94c0 f i cWindowManager.obj
 0002:000814d0       ?SetNumberPadDlg@CGameIn@@QAEXPAVcNumberPadDialog@@@Z 005b94d0 f i cWindowManager.obj
 0002:000814e0       ?GetNumberPadDlg@CGameIn@@QAEPAVcNumberPadDialog@@XZ 005b94e0 f i cWindowManager.obj
 0002:000814f0       ?SetAutoNoteDlg@CGameIn@@QAEXPAVCAutoNoteDlg@@@Z 005b94f0 f i cWindowManager.obj
 0002:00081500       ?SetAutoAnswerDlg@CGameIn@@QAEXPAVCAutoAnswerDlg@@@Z 005b9500 f i cWindowManager.obj
 0002:00081510       ?SetStoreSearchDlg@CGameIn@@QAEXPAVCStoreSearchDlg@@@Z 005b9510 f i cWindowManager.obj
 0002:00081520       ?SetItemShopDlg@CGameIn@@QAEXPAVCItemShopDlg@@@Z 005b9520 f i cWindowManager.obj
 0002:00081530       ?GetItemShopDlg@CGameIn@@QAEPAVCItemShopDlg@@XZ 005b9530 f i cWindowManager.obj
 0002:00081540       ?SetChatRoomMainDlg@CGameIn@@QAEXPAVCChatRoomMainDlg@@@Z 005b9540 f i cWindowManager.obj
 0002:00081550       ?SetChatRoomCreateDlg@CGameIn@@QAEXPAVCChatRoomCreateDlg@@@Z 005b9550 f i cWindowManager.obj
 0002:00081560       ?SetChatRoomDlg@CGameIn@@QAEXPAVCChatRoomDlg@@@Z 005b9560 f i cWindowManager.obj
 0002:00081570       ?SetChatRoomGuestListDlg@CGameIn@@QAEXPAVCChatRoomGuestListDlg@@@Z 005b9570 f i cWindowManager.obj
 0002:00081580       ?SetChatRoomOptionDlg@CGameIn@@QAEXPAVCChatRoomOptionDlg@@@Z 005b9580 f i cWindowManager.obj
 0002:00081590       ?SetChatRoomJoinDlg@CGameIn@@QAEXPAVCChatRoomJoinDlg@@@Z 005b9590 f i cWindowManager.obj
 0002:000815a0       ?GetTabNum@cTabDialog@@QAEEXZ 005b95a0 f i cWindowManager.obj
 0002:000815b0       ?SetQuestDialog@CQuestManager@@QAEXPAVCQuestDialog@@@Z 005b95b0 f i cWindowManager.obj
 0002:000815c0       ?SetQuickViewDialog@CQuestManager@@QAEXPAVCQuestQuickViewDialog@@@Z 005b95c0 f i cWindowManager.obj
 0002:000815d0       ?Set_TutorialDlg@cTutorialManager@@QAEXPAVcTutorialDlg@@@Z 005b95d0 f i cWindowManager.obj
 0002:000815e0       ?Set_HelperDlg@cTutorialManager@@QAEXPAVcHelperDlg@@@Z 005b95e0 f i cWindowManager.obj
 0002:000815f0       ?Set_TutorialBtnDlg@cTutorialManager@@QAEXPAVcTutorialBtnDlg@@@Z 005b95f0 f i cWindowManager.obj
 0002:00081600       ??0cWindowManager@@QAE@XZ  005b9600 f   cWindowManager.obj
 0002:00081670       ??1cWindowManager@@UAE@XZ  005b9670 f   cWindowManager.obj
 0002:00081690       ?Init@cWindowManager@@QAEXXZ 005b9690 f   cWindowManager.obj
 0002:00081bf0       ?CreatMousePoint@cWindowManager@@QAEXXZ 005b9bf0 f   cWindowManager.obj
 0002:00081c00       ?CreateRecvExchangeDlg@cWindowManager@@QAEXXZ 005b9c00 f   cWindowManager.obj
 0002:00081c10       ?AfterInit@cWindowManager@@QAEXXZ 005b9c10 f   cWindowManager.obj
 0002:00081d50       ?KeyboardInput@cWindowManager@@QAEXPAVCKeyboard@@@Z 005b9d50 f   cWindowManager.obj
 0002:00081de0       ?SetNextEditFocus@cWindowManager@@QAEXXZ 005b9de0 f   cWindowManager.obj
 0002:00081e90       ?Preprocess@cWindowManager@@QAEXXZ 005b9e90 f   cWindowManager.obj
 0002:00082000       ?AddListDestroyWindow@cWindowManager@@QAEXPAVcWindow@@@Z 005ba000 f   cWindowManager.obj
 0002:00082070       ?OnWindowEvent@cWindowManager@@SAXJPAXK@Z 005ba070 f   cWindowManager.obj
 0002:00082080       ?Process@cWindowManager@@QAEXXZ 005ba080 f   cWindowManager.obj
 0002:00082100       ?Render@cWindowManager@@QAEXXZ 005ba100 f   cWindowManager.obj
 0002:000822c0       ?CloseWindowForID@cWindowManager@@QAEXJ@Z 005ba2c0 f   cWindowManager.obj
 0002:00082330       ?DeleteIconDlgListAll@cWindowManager@@QAEXXZ 005ba330 f   cWindowManager.obj
 0002:00082340       ?DeleteEditBoxListAll@cWindowManager@@QAEXXZ 005ba340 f   cWindowManager.obj
 0002:00082350       ?DeleteChatTooltipListAll@cWindowManager@@QAEXXZ 005ba350 f   cWindowManager.obj
 0002:00082360       ?DeleteWindowForID@cWindowManager@@QAEXJ@Z 005ba360 f   cWindowManager.obj
 0002:00082400       ?DeleteWindow@cWindowManager@@QAEXPAVcWindow@@@Z 005ba400 f   cWindowManager.obj
 0002:000824a0       ?RemoveChatTooltipWindow@cWindowManager@@QAEXJ@Z 005ba4a0 f   cWindowManager.obj
 0002:00082520       ?RemoveChatTooltipWindow@cWindowManager@@QAEXPAVcWindow@@@Z 005ba520 f   cWindowManager.obj
 0002:00082540       ?GetWindowForID@cWindowManager@@QAEPAVcDialog@@J@Z 005ba540 f   cWindowManager.obj
 0002:000825a0       ?GetWindowForIDEx@cWindowManager@@QAEPAVcWindow@@J@Z 005ba5a0 f   cWindowManager.obj
 0002:00082640       ?GetWindowForXY@cWindowManager@@QAEPAVcDialog@@JJ@Z 005ba640 f   cWindowManager.obj
 0002:000826c0       ?GetWindowForXYExceptIcon@cWindowManager@@QAEPAVcDialog@@JJ@Z 005ba6c0 f   cWindowManager.obj
 0002:00082740       ?GetWindowForXYExceptID@cWindowManager@@QAEPAVcDialog@@JJJ@Z 005ba740 f   cWindowManager.obj
 0002:000827d0       ?GetIconDialogForXY@cWindowManager@@QAEPAVcIconDialog@@JJ@Z 005ba7d0 f   cWindowManager.obj
 0002:00082850       ?SetOptionAlpha@cWindowManager@@QAEXK@Z 005ba850 f   cWindowManager.obj
 0002:000828b0       ?PositioningDlg@cWindowManager@@QAEXAAJ0@Z 005ba8b0 f   cWindowManager.obj
 0002:00082970       ?SetWindowTop@cWindowManager@@QAEXPAVcWindow@@@Z 005ba970 f   cWindowManager.obj
 0002:00082a40       ?SetFocusedEdit@cWindowManager@@QAEXPAVcWindow@@H@Z 005baa40 f   cWindowManager.obj
 0002:00082b40       ?CloseAllAutoCloseWindows@cWindowManager@@QAEHXZ 005bab40 f   cWindowManager.obj
 0002:00082bf0       ?GetDlgInfoFromFile@cWindowManager@@QAEPAVcWindow@@PAD0@Z 005babf0 f   cWindowManager.obj
 0002:00082c00       ?GetFirstMsgBox@cWindowManager@@QAEPAVcMsgBox@@XZ 005bac00 f   cWindowManager.obj
 0002:00082c50       ?CloseAllMsgBox@cWindowManager@@QAEXXZ 005bac50 f   cWindowManager.obj
 0002:00082ca0       ?CloseAllMsgBoxNoFunc@cWindowManager@@QAEXXZ 005baca0 f   cWindowManager.obj
 0002:00082d00       ?ShowBaseWindow@cWindowManager@@QAEXXZ 005bad00 f   cWindowManager.obj
 0002:00082de0       ?CreateGuildInvitationKindSelectionDlg@cWindowManager@@QAEXXZ 005bade0 f   cWindowManager.obj
 0002:00082e40       ?SaveAllActivedWindow@cWindowManager@@QAEXPAVcWindow@@@Z 005bae40 f   cWindowManager.obj
 0002:00082e90       ?ShowAllActivedWindow@cWindowManager@@QAEXXZ 005bae90 f   cWindowManager.obj
 0002:00082f20       ?CreateDateMatchingDlg@cWindowManager@@QAEXXZ 005baf20 f   cWindowManager.obj
 0002:00082f70       ?CreateIdentificationDlg@cWindowManager@@QAEXXZ 005baf70 f   cWindowManager.obj
 0002:00082fc0       ?CreateFavorIconDlg@cWindowManager@@QAEXXZ 005bafc0 f   cWindowManager.obj
 0002:00083020       ?CreateSkillTrainingDlg@cWindowManager@@QAEXXZ 005bb020 f   cWindowManager.obj
 0002:00083060       ?CreateFamilyCreateDlg@cWindowManager@@QAEXXZ 005bb060 f   cWindowManager.obj
 0002:000830c0       ?CreateFamilyDlg@cWindowManager@@QAEXXZ 005bb0c0 f   cWindowManager.obj
 0002:00083120       ?CreateFamilyInviteDlg@cWindowManager@@QAEXXZ 005bb120 f   cWindowManager.obj
 0002:00083180       ?CreateFamilyMarkDlg@cWindowManager@@QAEXXZ 005bb180 f   cWindowManager.obj
 0002:000831e0       ?CreateFamilyNickNameDlg@cWindowManager@@QAEXXZ 005bb1e0 f   cWindowManager.obj
 0002:00083240       ?CreateTutorialDlg@cWindowManager@@QAEXXZ 005bb240 f   cWindowManager.obj
 0002:000832b0       ?CreateHelpDlg@cWindowManager@@QAEXXZ 005bb2b0 f   cWindowManager.obj
 0002:00083320       ?CreateTutorialBtnDlg@cWindowManager@@QAEXXZ 005bb320 f   cWindowManager.obj
 0002:00083390       ?CreateItemMallBtnDlg@cWindowManager@@QAEXXZ 005bb390 f   cWindowManager.obj
 0002:000833f0       ?CreateItemPopupDlg@cWindowManager@@QAEXXZ 005bb3f0 f   cWindowManager.obj
 0002:00083450       ?CreateMapMoveDlg@cWindowManager@@QAEXXZ 005bb450 f   cWindowManager.obj
 0002:000834b0       ?CreateChangeNameDlg@cWindowManager@@QAEXXZ 005bb4b0 f   cWindowManager.obj
 0002:00083550       ?CreateNumberPadDlg@cWindowManager@@QAEXXZ 005bb550 f   cWindowManager.obj
 0002:000835f0       ?CreateAutoNoteDlg@cWindowManager@@QAEXXZ 005bb5f0 f   cWindowManager.obj
 0002:00083630       ?CreateAutoAnswerDlg@cWindowManager@@QAEXXZ 005bb630 f   cWindowManager.obj
 0002:00083670       ?CreateStoreSearchDlg@cWindowManager@@QAEXXZ 005bb670 f   cWindowManager.obj
 0002:000836b0       ?CreateItemShopBrowserDlg@cWindowManager@@QAEXXZ 005bb6b0 f   cWindowManager.obj
 0002:000836f0       ?CreateShoutDlg@cWindowManager@@QAEXXZ 005bb6f0 f   cWindowManager.obj
 0002:00083770       ?CreateBodyChangeDlg@cWindowManager@@QAEXXZ 005bb770 f   cWindowManager.obj
 0002:000837b0       ?CreateChatRoomMainDlg@cWindowManager@@QAEXXZ 005bb7b0 f   cWindowManager.obj
 0002:00083830       ?CreateChatRoomCreateDlg@cWindowManager@@QAEXXZ 005bb830 f   cWindowManager.obj
 0002:000838b0       ?CreateChatRoomDlg@cWindowManager@@QAEXXZ 005bb8b0 f   cWindowManager.obj
 0002:00083930       ?CreateChatRoomGuestListDlg@cWindowManager@@QAEXXZ 005bb930 f   cWindowManager.obj
 0002:000839b0       ?CreateChatRoomOptionDlg@cWindowManager@@QAEXXZ 005bb9b0 f   cWindowManager.obj
 0002:00083a30       ?CreateChatRoomJoinDlg@cWindowManager@@QAEXXZ 005bba30 f   cWindowManager.obj
 0002:00083ab0       ?CreateFishingDlg@cWindowManager@@QAEXXZ 005bbab0 f   cWindowManager.obj
 0002:00083b00       ?CreateFishingGaugeDlg@cWindowManager@@QAEXXZ 005bbb00 f   cWindowManager.obj
 0002:00083b50       ?CreateFishingPointDlg@cWindowManager@@QAEXXZ 005bbb50 f   cWindowManager.obj
 0002:00083ba0       ?CreateWeatherDlg@cWindowManager@@QAEXXZ 005bbba0 f   cWindowManager.obj
 0002:00083bf0       ?CreateFarmAnimalDlg@cWindowManager@@QAEXXZ 005bbbf0 f   cWindowManager.obj
 0002:00083c40       ?CreatePetDialog@cWindowManager@@QAEXXZ 005bbc40 f   cWindowManager.obj
 0002:00083d00       ??_EcWindowManager@@UAEPAXI@Z 005bbd00 f i cWindowManager.obj
 0002:00083d00       ??_GcWindowManager@@UAEPAXI@Z 005bbd00 f i cWindowManager.obj
 0002:00083d30       ?CreatePartyWarDlg@cWindowManager@@QAEXXZ 005bbd30 f   cWindowManager.obj
 0002:00083d70       ?CreateGuildFieldWarDlg@cWindowManager@@QAEXXZ 005bbd70 f   cWindowManager.obj
 0002:00083eb0       ?CreateDissolveDlg@cWindowManager@@QAEXXZ 005bbeb0 f   cWindowManager.obj
 0002:00083ef0       ?CreateEnchantDlg@cWindowManager@@QAEXXZ 005bbef0 f   cWindowManager.obj
 0002:00083f30       ?CreateProgressDlog@cWindowManager@@QAEXXZ 005bbf30 f   cWindowManager.obj
 0002:00083f70       ?CreateReinforceDlg@cWindowManager@@QAEXXZ 005bbf70 f   cWindowManager.obj
 0002:00083fb0       ?CreateApplyOptionDlg@cWindowManager@@QAEXXZ 005bbfb0 f   cWindowManager.obj
 0002:00083ff0       ?CreateMixDlg@cWindowManager@@QAEXXZ 005bbff0 f   cWindowManager.obj
 0002:00084030       ?CreateHeroGuage@cWindowManager@@QAEXXZ 005bc030 f   cWindowManager.obj
 0002:00084070       ?CreateQuickDlg@cWindowManager@@QAEXXZ 005bc070 f   cWindowManager.obj
 0002:000840d0       ?CreateMenuSlotDlg@cWindowManager@@QAEXXZ 005bc0d0 f   cWindowManager.obj
 0002:00084130       ?CreatePartyDlg@cWindowManager@@QAEXXZ 005bc130 f   cWindowManager.obj
 0002:000843e0       ?CreatePartyCreateDlg@cWindowManager@@QAEXXZ 005bc3e0 f   cWindowManager.obj
 0002:00084440       ?CreatePartyInviteDlg@cWindowManager@@QAEXXZ 005bc440 f   cWindowManager.obj
 0002:000844a0       ?CreateGuildCreateDlg@cWindowManager@@QAEXXZ 005bc4a0 f   cWindowManager.obj
 0002:00084540       ?CreateGuildDlg@cWindowManager@@QAEXXZ 005bc540 f   cWindowManager.obj
 0002:000845a0       ?CreateGuildInviteDlg@cWindowManager@@QAEXXZ 005bc5a0 f   cWindowManager.obj
 0002:000845f0       ?CreateGuildMarkDlg@cWindowManager@@QAEXXZ 005bc5f0 f   cWindowManager.obj
 0002:00084640       ?CreateGuildLevelupDlg@cWindowManager@@QAEXXZ 005bc640 f   cWindowManager.obj
 0002:00084690       ?CreateGuildNickNameDlg@cWindowManager@@QAEXXZ 005bc690 f   cWindowManager.obj
 0002:000846f0       ?CreateGuildRankDlg@cWindowManager@@QAEXXZ 005bc6f0 f   cWindowManager.obj
 0002:00084750       ?CreateGuildWarehouseDlg@cWindowManager@@QAEXXZ 005bc750 f   cWindowManager.obj
 0002:000847b0       ?CreateStorageDlg@cWindowManager@@QAEXXZ 005bc7b0 f   cWindowManager.obj
 0002:00084810       ?CreateWantNpcDlg@cWindowManager@@QAEXXZ 005bc810 f   cWindowManager.obj
 0002:00084870       ?CreateWantRegistDlg@cWindowManager@@QAEXXZ 005bc870 f   cWindowManager.obj
 0002:000848d0       ?CreateMiniMapDlg@cWindowManager@@QAEXXZ 005bc8d0 f   cWindowManager.obj
 0002:000849c0       ?CreateChattingDlg@cWindowManager@@QAEXXZ 005bc9c0 f   cWindowManager.obj
 0002:00084a00       ?CreateMainSystemDlg@cWindowManager@@QAEXXZ 005bca00 f   cWindowManager.obj
 0002:00084a40       ?CreateOptionDlg@cWindowManager@@QAEXXZ 005bca40 f   cWindowManager.obj
 0002:00084a80       ?CreateExitDlg@cWindowManager@@QAEXXZ 005bca80 f   cWindowManager.obj
 0002:00084ac0       ?CreateMonstermeterDlg@cWindowManager@@QAEXXZ 005bcac0 f   cWindowManager.obj
 0002:00084b00       ?CreateFarmBuyDlg@cWindowManager@@QAEXXZ 005bcb00 f   cWindowManager.obj
 0002:00084b40       ?CreateFarmUpgradeDlg@cWindowManager@@QAEXXZ 005bcb40 f   cWindowManager.obj
 0002:00084b80       ?CreateFarmManageDlg@cWindowManager@@QAEXXZ 005bcb80 f   cWindowManager.obj
 0002:00084bc0       ?CreateDateZoneListDlg@cWindowManager@@QAEXXZ 005bcbc0 f   cWindowManager.obj
 0002:00084c00       ?CreateChallengeZoneListDlg@cWindowManager@@QAEXXZ 005bcc00 f   cWindowManager.obj
 0002:00084c40       ?CreateChallengeZoneClearNo1Dlg@cWindowManager@@QAEXXZ 005bcc40 f   cWindowManager.obj
 0002:00084c80       ?CreateCharStateDlg@cWindowManager@@QAEXXZ 005bcc80 f   cWindowManager.obj
 0002:00084cc0       ?CreateNoteDlg@cWindowManager@@QAEXXZ 005bccc0 f   cWindowManager.obj
 0002:00084d20       ?CreateFriendDlg@cWindowManager@@QAEXXZ 005bcd20 f   cWindowManager.obj
 0002:00084d80       ?CreateMiniFriendDlg@cWindowManager@@QAEXXZ 005bcd80 f   cWindowManager.obj
 0002:00084de0       ?CreateMiniNoteDlg@cWindowManager@@QAEXXZ 005bcde0 f   cWindowManager.obj
 0002:00084e40       ?CreateReviveDlg@cWindowManager@@QAEXXZ 005bce40 f   cWindowManager.obj
 0002:00084ea0       ?CreateCharDlg@cWindowManager@@QAEXXZ 005bcea0 f   cWindowManager.obj
 0002:00084ee0       ?CreateSkillTreeDlg@cWindowManager@@QAEXXZ 005bcee0 f   cWindowManager.obj
 0002:00084f20       ?CreateInventoryDlg@cWindowManager@@QAEXXZ 005bcf20 f   cWindowManager.obj
 0002:00084f60       ?CreateExchangeDlg@cWindowManager@@QAEXXZ 005bcf60 f   cWindowManager.obj
 0002:00084fa0       ?CreateStallKindSelectDlg@cWindowManager@@QAEXXZ 005bcfa0 f   cWindowManager.obj
 0002:00084fe0       ?CreateStreetBuyStallDlg@cWindowManager@@QAEXXZ 005bcfe0 f   cWindowManager.obj
 0002:00085020       ?CreateBuyRegDlg@cWindowManager@@QAEXXZ 005bd020 f   cWindowManager.obj
 0002:00085060       ?CreateStreetStallDlg@cWindowManager@@QAEXXZ 005bd060 f   cWindowManager.obj
 0002:000850a0       ?CreateNpcScriptDlg@cWindowManager@@QAEXXZ 005bd0a0 f   cWindowManager.obj
 0002:000850e0       ?CreateDealDlg@cWindowManager@@QAEXXZ 005bd0e0 f   cWindowManager.obj
 0002:000851f0       ?CreateQuestTotalDlg@cWindowManager@@QAEXXZ 005bd1f0 f   cWindowManager.obj
 0002:00085250       ?CreateQuestquickDlg@cWindowManager@@QAEXXZ 005bd250 f   cWindowManager.obj
 0002:000852c0       ?CreateBailDlg@cWindowManager@@QAEXXZ 005bd2c0 f   cWindowManager.obj
 0002:00085300       ?CreateEventNotifyDlg@cWindowManager@@QAEXXZ 005bd300 f   cWindowManager.obj
 0002:00085340       ?CreateMallNotcieDlg@cWindowManager@@QAEXXZ 005bd340 f   cWindowManager.obj
 0002:00085380       ?CreateItemShopDlg@cWindowManager@@QAEXXZ 005bd380 f   cWindowManager.obj
 0002:000853d0       ?CreateMoveDlg@cWindowManager@@QAEXXZ 005bd3d0 f   cWindowManager.obj
 0002:00085420       ?CreatePointSaveDlg@cWindowManager@@QAEXXZ 005bd420 f   cWindowManager.obj
 0002:00085470       ?CreateSkPointNotifyDlg@cWindowManager@@QAEXXZ 005bd470 f   cWindowManager.obj
 0002:000854c0       ?CreateChaseDlg@cWindowManager@@QAEXXZ 005bd4c0 f   cWindowManager.obj
 0002:00085500       ?CreateChaseinputDlg@cWindowManager@@QAEXXZ 005bd500 f   cWindowManager.obj
 0002:00085540       ?CreateNameChangeDlg@cWindowManager@@QAEXXZ 005bd540 f   cWindowManager.obj
 0002:00085580       ?CreateNameChangeNotifyDlg@cWindowManager@@QAEXXZ 005bd580 f   cWindowManager.obj
 0002:000855c0       ?CreateGTRegistDlg@cWindowManager@@QAEXXZ 005bd5c0 f   cWindowManager.obj
 0002:00085600       ?CreateGTRegistcancelDlg@cWindowManager@@QAEXXZ 005bd600 f   cWindowManager.obj
 0002:00085640       ?CreateGTStandingDlg@cWindowManager@@QAEXXZ 005bd640 f   cWindowManager.obj
 0002:00085680       ?CreateGTBattleListDlg@cWindowManager@@QAEXXZ 005bd680 f   cWindowManager.obj
 0002:000856c0       ?CreateGTScoreInfoDlg@cWindowManager@@QAEXXZ 005bd6c0 f   cWindowManager.obj
 0002:00085700       ?CreateSeigeWarDlg@cWindowManager@@QAEXXZ 005bd700 f   cWindowManager.obj
 0002:00085890       ?CreateItemSealDlg@cWindowManager@@QAEXXZ 005bd890 f   cWindowManager.obj
 0002:000858d0       ?CreateChangeJobDlg@cWindowManager@@QAEXXZ 005bd8d0 f   cWindowManager.obj
 0002:00085910       ?CreateReinforceGuideDlg@cWindowManager@@QAEXXZ 005bd910 f   cWindowManager.obj
 0002:00085950       ?CreateTipBrowserDlgDlg@cWindowManager@@QAEXXZ 005bd950 f   cWindowManager.obj
 0002:00085990       ?CreateKeySettingTipDlg@cWindowManager@@QAEXXZ 005bd990 f   cWindowManager.obj
 0002:000859d0       ?CreateGuildNoteDlg@cWindowManager@@QAEXXZ 005bd9d0 f   cWindowManager.obj
 0002:00085a20       ?CreateUnionNoteDlg@cWindowManager@@QAEXXZ 005bda20 f   cWindowManager.obj
 0002:00085a70       ?CreateGuildNoticeDlg@cWindowManager@@QAEXXZ 005bda70 f   cWindowManager.obj
 0002:00085ad0       ?CreateGuildWarehouseRankDlg@cWindowManager@@QAEXXZ 005bdad0 f   cWindowManager.obj
 0002:00085b30       ?ScreenShotDlg@cWindowManager@@QAEXXZ 005bdb30 f   cWindowManager.obj
 0002:00085b70       ?CreateNpcImageDlg@cWindowManager@@QAEXXZ 005bdb70 f   cWindowManager.obj
 0002:00085bb0       ?BackDragWindow@cWindowManager@@QAEXXZ 005bdbb0 f   cWindowManager.obj
 0002:00085c00       ?DestroyWindowProcess@cWindowManager@@QAEXXZ 005bdc00 f   cWindowManager.obj
 0002:00085c50       ?MouseInput@cWindowManager@@QAEXPAVCMouse@@@Z 005bdc50 f   cWindowManager.obj
 0002:00085e40       ?DestroyWindowAll@cWindowManager@@QAEXXZ 005bde40 f   cWindowManager.obj
 0002:00085f10       ?MsgBox@cWindowManager@@QAAPAVcMsgBox@@JHPADZZ 005bdf10 f   cWindowManager.obj
 0002:000860b0       ?DivideBox@cWindowManager@@QAEPAVcDivideBox@@JJJP6AXJPAXK00@Z100PAD@Z 005be0b0 f   cWindowManager.obj
 0002:00086160       ?CloseAllWindow@cWindowManager@@QAEHXZ 005be160 f   cWindowManager.obj
 0002:00086210       ?ToggleShowInterface@cWindowManager@@QAEXXZ 005be210 f   cWindowManager.obj
 0002:00086230       ?Release@cWindowManager@@QAEXXZ 005be230 f   cWindowManager.obj
 0002:00086330       ?CreateGameIn@cWindowManager@@QAEXXZ 005be330 f   cWindowManager.obj
 0002:00087720       ??0CBarIcon@@QAE@XZ        005bf720 f   BarIcon.obj
 0002:000877d0       ??1CBarIcon@@UAE@XZ        005bf7d0 f   BarIcon.obj
 0002:00087870       ?InitInfo@CBarIcon@@QAEXPAVBARICON_INFO@@@Z 005bf870 f   BarIcon.obj
 0002:00087950       ?ActionEvent@CBarIcon@@UAEKPAVCMouse@@@Z 005bf950 f   BarIcon.obj
 0002:00087a90       ?Render@CBarIcon@@UAEXXZ   005bfa90 f   BarIcon.obj
 0002:00087c10       ??_ECBarIcon@@UAEPAXI@Z    005bfc10 f i BarIcon.obj
 0002:00087c10       ??_GCBarIcon@@UAEPAXI@Z    005bfc10 f i BarIcon.obj
 0002:00087c40       ?SetStaticValue@cStatic@@QAEXJ@Z 005bfc40 f i CharacterDialog.obj
 0002:00087c60       ?IsHasExtendColor@cStatic@@QAEHXZ 005bfc60 f i CharacterDialog.obj
 0002:00087c70       ?GetCritical@CObject@@QAEKXZ 005bfc70 f i CharacterDialog.obj
 0002:00087c80       ?GetAttackRate@CObject@@QAEKXZ 005bfc80 f i CharacterDialog.obj
 0002:00087c90       ?GetDefenseRate@CObject@@QAEKXZ 005bfc90 f i CharacterDialog.obj
 0002:00087ca0       ?GetMagAttackRate@CObject@@QAEKXZ 005bfca0 f i CharacterDialog.obj
 0002:00087cb0       ?GetMagDefenseRate@CObject@@QAEKXZ 005bfcb0 f i CharacterDialog.obj
 0002:00087cc0       ?GetAccuracyRate@CObject@@QAEKXZ 005bfcc0 f i CharacterDialog.obj
 0002:00087cd0       ?GetEvasionRate@CObject@@QAEKXZ 005bfcd0 f i CharacterDialog.obj
 0002:00087ce0       ?GetSkillStatsOption@CPlayer@@QAEPAUSKILLSTATSOPTION@@XZ 005bfce0 f i CharacterDialog.obj
 0002:00087cf0       ?Get@CSHGroup@@QAEPAUstINFO@1@XZ 005bfcf0 f i CharacterDialog.obj
 0002:00087d00       ?GetHeroTotalInfo@CHero@@QAEPAUHERO_TOTALINFO@@XZ 005bfd00 f i CharacterDialog.obj
 0002:00087d10       ?GetExpPoint@CHero@@QAE_KXZ 005bfd10 f i CharacterDialog.obj
 0002:00087d20       ?GetMaxExpPoint@CHero@@QAE_KXZ 005bfd20 f i CharacterDialog.obj
 0002:00087d30       ?SetHeroLevelupPoint@CHero@@QAEXG@Z 005bfd30 f i CharacterDialog.obj
 0002:00087d50       ?GetHeroLevelUpPoint@CHero@@QAEKXZ 005bfd50 f i CharacterDialog.obj
 0002:00087d60       ?IsCheatEnable@CCheatMsgParser@@QAEHXZ 005bfd60 f i CharacterDialog.obj
 0002:00087d70       ??1CCharacterDialog@@UAE@XZ 005bfd70 f   CharacterDialog.obj
 0002:00087d80       ?Linking@CCharacterDialog@@QAEXXZ 005bfd80 f   CharacterDialog.obj
 0002:00087f30       ?Init@CCharacterDialog@@UAEXJJGGPAVcImage@@J@Z 005bff30 f   CharacterDialog.obj
 0002:00087f40       ?SetExpPointPercent@CCharacterDialog@@QAEXM@Z 005bff40 f   CharacterDialog.obj
 0002:00088030       ?SetLevel@CCharacterDialog@@QAEXG@Z 005c0030 f   CharacterDialog.obj
 0002:00088060       ?SetLife@CCharacterDialog@@QAEXK@Z 005c0060 f   CharacterDialog.obj
 0002:00088070       ?SetMana@CCharacterDialog@@QAEXK@Z 005c0070 f   CharacterDialog.obj
 0002:00088080       ?SetStrength@CCharacterDialog@@QAEXXZ 005c0080 f   CharacterDialog.obj
 0002:000881d0       ?SetDexterity@CCharacterDialog@@QAEXXZ 005c01d0 f   CharacterDialog.obj
 0002:00088320       ?SetVitality@CCharacterDialog@@QAEXXZ 005c0320 f   CharacterDialog.obj
 0002:00088470       ?SetWisdom@CCharacterDialog@@QAEXXZ 005c0470 f   CharacterDialog.obj
 0002:000885c0       ?SetIntelligence@CCharacterDialog@@QAEXXZ 005c05c0 f   CharacterDialog.obj
 0002:00088710       ?SetFame@CCharacterDialog@@QAEXH@Z 005c0710 f   CharacterDialog.obj
 0002:00088740       ?SetBadFame@CCharacterDialog@@QAEXH@Z 005c0740 f   CharacterDialog.obj
 0002:00088770       ?SetAttackRate@CCharacterDialog@@QAEXXZ 005c0770 f   CharacterDialog.obj
 0002:000887f0       ?SetDefenseRate@CCharacterDialog@@QAEXXZ 005c07f0 f   CharacterDialog.obj
 0002:00088870       ?SetCritical@CCharacterDialog@@QAEXXZ 005c0870 f   CharacterDialog.obj
 0002:000888f0       ?PrintAttackRate@CCharacterDialog@@QAEXXZ 005c08f0 f   CharacterDialog.obj
 0002:00088970       ?PrintDefenseRate@CCharacterDialog@@QAEXXZ 005c0970 f   CharacterDialog.obj
 0002:000889f0       ?PrintMagAttackRate@CCharacterDialog@@QAEXXZ 005c09f0 f   CharacterDialog.obj
 0002:00088a70       ?PrintMagDefenseRate@CCharacterDialog@@QAEXXZ 005c0a70 f   CharacterDialog.obj
 0002:00088af0       ?PrintAccuracyRate@CCharacterDialog@@QAEXXZ 005c0af0 f   CharacterDialog.obj
 0002:00088b70       ?PrintEvasionRate@CCharacterDialog@@QAEXXZ 005c0b70 f   CharacterDialog.obj
 0002:00088bf0       ?PrintCriticalRate@CCharacterDialog@@QAEXXZ 005c0bf0 f   CharacterDialog.obj
 0002:00088c70       ?SetAttackRange@CCharacterDialog@@QAEXXZ 005c0c70 f   CharacterDialog.obj
 0002:00088c90       ?SetPointLeveling@CCharacterDialog@@QAEXHG@Z 005c0c90 f   CharacterDialog.obj
 0002:00088d50       ?SetPointLevelingHide@CCharacterDialog@@QAEXXZ 005c0d50 f   CharacterDialog.obj
 0002:00088db0       ?SetMinusPoint@CCharacterDialog@@QAEXHG@Z 005c0db0 f   CharacterDialog.obj
 0002:00088e90       ?OnMinusPoint@CCharacterDialog@@QAEXE@Z 005c0e90 f   CharacterDialog.obj
 0002:00088ee0       ?RefreshGuildInfo@CCharacterDialog@@QAEXXZ 005c0ee0 f   CharacterDialog.obj
 0002:00088f50       ?RefreshFamilyInfo@CCharacterDialog@@QAEXXZ 005c0f50 f   CharacterDialog.obj
 0002:00088f90       ?RefreshInfo@CCharacterDialog@@QAEXXZ 005c0f90 f   CharacterDialog.obj
 0002:00089000       ?ActionEvent@CCharacterDialog@@UAEKPAVCMouse@@@Z 005c1000 f   CharacterDialog.obj
 0002:00089010       ?CheckTreeInfo@CCharacterDialog@@QAEXXZ 005c1010 f   CharacterDialog.obj
 0002:000894d0       ?ShowTreeDlg@CCharacterDialog@@QAEXXZ 005c14d0 f   CharacterDialog.obj
 0002:000895e0       ?CheckHeroImage@CCharacterDialog@@QAEXXZ 005c15e0 f   CharacterDialog.obj
 0002:000896d0       ??0?$ATTRIBUTE_VAL@PAVcStatic@@@@QAE@XZ 005c16d0 f i CharacterDialog.obj
 0002:000896e0       ??0?$ATTRIBUTE_VAL@PAVcGuagen@@@@QAE@XZ 005c16e0 f i CharacterDialog.obj
 0002:000896f0       ??_ECCharacterDialog@@UAEPAXI@Z 005c16f0 f i CharacterDialog.obj
 0002:000896f0       ??_GCCharacterDialog@@UAEPAXI@Z 005c16f0 f i CharacterDialog.obj
 0002:00089720       ??0ATTRDEFENCE@@QAE@XZ     005c1720 f i CharacterDialog.obj
 0002:00089730       ?UpdateData@CCharacterDialog@@QAEXXZ 005c1730 f   CharacterDialog.obj
 0002:00089a00       ?OnAddPoint@CCharacterDialog@@QAEXE@Z 005c1a00 f   CharacterDialog.obj
 0002:00089aa0       ?SetActive@CCharacterDialog@@UAEXH@Z 005c1aa0 f   CharacterDialog.obj
 0002:00089ae0       ?OnActionEvent@CCharacterDialog@@UAEXJPAXK@Z 005c1ae0 f   CharacterDialog.obj
 0002:00089b40       ??0CCharacterDialog@@QAE@XZ 005c1b40 f   CharacterDialog.obj
 0002:00089d60       ??0CCharStateDialog@@QAE@XZ 005c1d60 f   CharStateDialog.obj
 0002:00089da0       ??1CCharStateDialog@@UAE@XZ 005c1da0 f   CharStateDialog.obj
 0002:00089db0       ?Linking@CCharStateDialog@@QAEXXZ 005c1db0 f   CharStateDialog.obj
 0002:00089e80       ?Refresh@CCharStateDialog@@QAEXXZ 005c1e80 f   CharStateDialog.obj
 0002:0008a010       ?OnActionEvent@CCharStateDialog@@UAEXJPAXK@Z 005c2010 f   CharStateDialog.obj
 0002:0008a040       ?SetPKMode@CCharStateDialog@@QAEXH@Z 005c2040 f   CharStateDialog.obj
 0002:0008a050       ?SetMoveMode@CCharStateDialog@@QAEXH@Z 005c2050 f   CharStateDialog.obj
 0002:0008a060       ?SetKyungGongMode@CCharStateDialog@@QAEXH@Z 005c2060 f   CharStateDialog.obj
 0002:0008a070       ?SetPeaceWarMode@CCharStateDialog@@QAEXH@Z 005c2070 f   CharStateDialog.obj
 0002:0008a090       ?SetUngiMode@CCharStateDialog@@QAEXH@Z 005c2090 f   CharStateDialog.obj
 0002:0008a0a0       ??_ECCharStateDialog@@UAEPAXI@Z 005c20a0 f i CharStateDialog.obj
 0002:0008a0a0       ??_GCCharStateDialog@@UAEPAXI@Z 005c20a0 f i CharStateDialog.obj
 0002:0008a0d0       ??0CChinaAdviceDlg@@QAE@XZ 005c20d0 f   ChinaAdviceDlg.obj
 0002:0008a0f0       ??1CChinaAdviceDlg@@UAE@XZ 005c20f0 f   ChinaAdviceDlg.obj
 0002:0008a100       ?Linking@CChinaAdviceDlg@@QAEXXZ 005c2100 f   ChinaAdviceDlg.obj
 0002:0008a130       ?OnActionEvent@CChinaAdviceDlg@@UAEXJPAXK@Z 005c2130 f   ChinaAdviceDlg.obj
 0002:0008a140       ??_ECChinaAdviceDlg@@UAEPAXI@Z 005c2140 f i ChinaAdviceDlg.obj
 0002:0008a140       ??_GCChinaAdviceDlg@@UAEPAXI@Z 005c2140 f i ChinaAdviceDlg.obj
 0002:0008a170       ??0cImageSelf@@QAE@XZ      005c2170 f   cImageSelf.obj
 0002:0008a190       ?Release@cImageSelf@@QAEXXZ 005c2190 f   cImageSelf.obj
 0002:0008a1c0       ?LoadSprite@cImageSelf@@QAEHPAD@Z 005c21c0 f   cImageSelf.obj
 0002:0008a270       ?LoadSprite@cImageSelf@@QAEHPADJJ@Z 005c2270 f   cImageSelf.obj
 0002:0008a330       ?SetImageSrcRect@cImageSelf@@QAEXPBUtagRECT@@@Z 005c2330 f   cImageSelf.obj
 0002:0008a3b0       ?RenderSprite@cImageSelf@@QAEXPAUVECTOR2@@0M0K@Z 005c23b0 f   cImageSelf.obj
 0002:0008a410       ?GetImageOriginalSize@cImageSelf@@QAEHPAUVECTOR2@@@Z 005c2410 f   cImageSelf.obj
 0002:0008a480       ??1cImageSelf@@UAE@XZ      005c2480 f   cImageSelf.obj
 0002:0008a4c0       ??_GcImageSelf@@UAEPAXI@Z  005c24c0 f i cImageSelf.obj
 0002:0008a510       ??0CDebugDlg@@QAE@XZ       005c2510 f   DebugDlg.obj
 0002:0008a560       ??1CDebugDlg@@UAE@XZ       005c2560 f   DebugDlg.obj
 0002:0008a580       ?DebugMsgParser@CDebugDlg@@QAAXEPADZZ 005c2580 f   DebugDlg.obj
 0002:0008a7c0       ??_ECDebugDlg@@WBLE@AEPAXI@Z 005c27c0 f i DebugDlg.obj
 0002:0008a7d0       ??_ECDebugDlg@@UAEPAXI@Z   005c27d0 f i DebugDlg.obj
 0002:0008a7d0       ??_GCDebugDlg@@UAEPAXI@Z   005c27d0 f i DebugDlg.obj
 0002:0008a800       ??0CExitDialog@@QAE@XZ     005c2800 f   ExitDialog.obj
 0002:0008a820       ?SetActive@CExitDialog@@UAEXH@Z 005c2820 f   ExitDialog.obj
 0002:0008a830       ??1CExitDialog@@UAE@XZ     005c2830 f   ExitDialog.obj
 0002:0008a840       ??_GCExitDialog@@UAEPAXI@Z 005c2840 f i ExitDialog.obj
 0002:0008a840       ??_ECExitDialog@@UAEPAXI@Z 005c2840 f i ExitDialog.obj
 0002:0008a870       ??0CImageNumber@@QAE@XZ    005c2870 f   ImageNumber.obj
 0002:0008a8e0       ??1CImageNumber@@UAE@XZ    005c28e0 f   ImageNumber.obj
 0002:0008a900       ?Init@CImageNumber@@QAEXHH@Z 005c2900 f   ImageNumber.obj
 0002:0008a990       ?InitDamageNumImage@CImageNumber@@QAEXPAVcImageSelf@@H@Z 005c2990 f   ImageNumber.obj
 0002:0008a9b0       ?SetLimitCipher@CImageNumber@@QAEXK@Z 005c29b0 f   ImageNumber.obj
 0002:0008a9e0       ?SetPosition@CImageNumber@@QAEXHH@Z 005c29e0 f   ImageNumber.obj
 0002:0008aa00       ?Render@CImageNumber@@QAEXXZ 005c2a00 f   ImageNumber.obj
 0002:0008ab20       ?RenderWithDamageNumImage@CImageNumber@@QAEXXZ 005c2b20 f   ImageNumber.obj
 0002:0008ac40       ?SetFadeOut@CImageNumber@@QAEXK@Z 005c2c40 f   ImageNumber.obj
 0002:0008ac80       ??$_Pow_int@H@@YAHHH@Z     005c2c80 f i ImageNumber.obj
 0002:0008acd0       ??_GCImageNumber@@UAEPAXI@Z 005c2cd0 f i ImageNumber.obj
 0002:0008acd0       ??_ECImageNumber@@UAEPAXI@Z 005c2cd0 f i ImageNumber.obj
 0002:0008ad00       ?pow@@YANHH@Z              005c2d00 f i ImageNumber.obj
 0002:0008ad30       ?SetNumber@CImageNumber@@QAEXK@Z 005c2d30 f   ImageNumber.obj
 0002:0008ad80       ??0CItemShopDlg@@QAE@XZ    005c2d80 f   ItemShopDlg.obj
 0002:0008adb0       ??_ECItemShopDlg@@UAEPAXI@Z 005c2db0 f i ItemShopDlg.obj
 0002:0008adb0       ??_GCItemShopDlg@@UAEPAXI@Z 005c2db0 f i ItemShopDlg.obj
 0002:0008ade0       ??1CItemShopDlg@@UAE@XZ    005c2de0 f   ItemShopDlg.obj
 0002:0008adf0       ?Linking@CItemShopDlg@@QAEXXZ 005c2df0 f   ItemShopDlg.obj
 0002:0008ae20       ?SetActive@CItemShopDlg@@UAEXH@Z 005c2e20 f   ItemShopDlg.obj
 0002:0008ae30       ?Navigate@CItemShopDlg@@QAEXPAD@Z 005c2e30 f   ItemShopDlg.obj
 0002:0008ae40       ??0CLoadingDlg@@QAE@XZ     005c2e40 f   LoadingDlg.obj
 0002:0008ae60       ??1CLoadingDlg@@UAE@XZ     005c2e60 f   LoadingDlg.obj
 0002:0008ae70       ??_GCLoadingDlg@@UAEPAXI@Z 005c2e70 f i LoadingDlg.obj
 0002:0008ae70       ??_ECLoadingDlg@@UAEPAXI@Z 005c2e70 f i LoadingDlg.obj
 0002:0008aea0       ??0CMainDialog@@QAE@XZ     005c2ea0 f   MainDialog.obj
 0002:0008aef0       ??1CMainDialog@@UAE@XZ     005c2ef0 f   MainDialog.obj
 0002:0008af00       ?Add@CMainDialog@@UAEXPAVcWindow@@@Z 005c2f00 f   MainDialog.obj
 0002:0008afb0       ??_ECMainDialog@@UAEPAXI@Z 005c2fb0 f i MainDialog.obj
 0002:0008afb0       ??_GCMainDialog@@UAEPAXI@Z 005c2fb0 f i MainDialog.obj
 0002:0008afe0       ??0CMainSystemDlg@@QAE@XZ  005c2fe0 f   MainSystemDlg.obj
 0002:0008b0c0       ??_GCMainSystemDlg@@UAEPAXI@Z 005c30c0 f i MainSystemDlg.obj
 0002:0008b0c0       ??_ECMainSystemDlg@@UAEPAXI@Z 005c30c0 f i MainSystemDlg.obj
 0002:0008b0f0       ??1CMainSystemDlg@@UAE@XZ  005c30f0 f   MainSystemDlg.obj
 0002:0008b100       ?Linking@CMainSystemDlg@@QAEXXZ 005c3100 f   MainSystemDlg.obj
 0002:0008b230       ?ActionEvent@CMainSystemDlg@@UAEKPAVCMouse@@@Z 005c3230 f   MainSystemDlg.obj
 0002:0008b240       ?OnActionEvent@CMainSystemDlg@@UAEXJPAXK@Z 005c3240 f   MainSystemDlg.obj
 0002:0008be70       ?IsOnChatMode@CDateMatchingChatDlg@@QAEHXZ 005c3e70 f i MainSystemDlg.obj
 0002:0008be80       ?GetChatingDlg@CDateMatchingDlg@@QAEPAVCDateMatchingChatDlg@@XZ 005c3e80 f i MainSystemDlg.obj
 0002:0008be90       ?SetSystemSet@CMainSystemDlg@@QAEXXZ 005c3e90 f   MainSystemDlg.obj
 0002:0008bf50       ?SetGameSystem@CMainSystemDlg@@QAEXXZ 005c3f50 f   MainSystemDlg.obj
 0002:0008c010       ??0CMallNoticeDialog@@QAE@XZ 005c4010 f   MallNoticeDialog.obj
 0002:0008c030       ??1CMallNoticeDialog@@UAE@XZ 005c4030 f   MallNoticeDialog.obj
 0002:0008c040       ?Add@CMallNoticeDialog@@UAEXPAVcWindow@@@Z 005c4040 f   MallNoticeDialog.obj
 0002:0008c0b0       ?OnActionEvent@CMallNoticeDialog@@UAEXJPAXK@Z 005c40b0 f   MallNoticeDialog.obj
 0002:0008c0c0       ??_ECMallNoticeDialog@@UAEPAXI@Z 005c40c0 f i MallNoticeDialog.obj
 0002:0008c0c0       ??_GCMallNoticeDialog@@UAEPAXI@Z 005c40c0 f i MallNoticeDialog.obj
 0002:0008c0f0       ??0CObjectGuagen@@QAE@XZ   005c40f0 f   ObjectGuagen.obj
 0002:0008c1a0       ??1CObjectGuagen@@UAE@XZ   005c41a0 f   ObjectGuagen.obj
 0002:0008c210       ?SetValue@CObjectGuagen@@QAEXMK@Z 005c4210 f   ObjectGuagen.obj
 0002:0008c2d0       ?ActionEvent@CObjectGuagen@@UAEKPAVCMouse@@@Z 005c42d0 f   ObjectGuagen.obj
 0002:0008c2f0       ?Render@CObjectGuagen@@UAEXXZ 005c42f0 f   ObjectGuagen.obj
 0002:0008c4d0       ?Add@CObjectGuagen@@UAEXPAVcWindow@@@Z 005c44d0 f   ObjectGuagen.obj
 0002:0008c4f0       ??_GCObjectGuagen@@UAEPAXI@Z 005c44f0 f i ObjectGuagen.obj
 0002:0008c4f0       ??_ECObjectGuagen@@UAEPAXI@Z 005c44f0 f i ObjectGuagen.obj
 0002:0008c520       ??0CApplyOptionDialog@@QAE@XZ 005c4520 f   ApplyOptionDialog.obj
 0002:0008c680       ??_GCApplyOptionDialog@@UAEPAXI@Z 005c4680 f i ApplyOptionDialog.obj
 0002:0008c680       ??_ECApplyOptionDialog@@UAEPAXI@Z 005c4680 f i ApplyOptionDialog.obj
 0002:0008c6b0       ??1CApplyOptionDialog@@UAE@XZ 005c46b0 f   ApplyOptionDialog.obj
 0002:0008c740       ?Linking@CApplyOptionDialog@@QAEXXZ 005c4740 f   ApplyOptionDialog.obj
 0002:0008c770       ?SetSourceItem@CApplyOptionDialog@@QAEXAAVCItem@@@Z 005c4770 f   ApplyOptionDialog.obj
 0002:0008c780       ?FakeMoveIcon@CApplyOptionDialog@@UAEHJJPAVcIcon@@@Z 005c4780 f   ApplyOptionDialog.obj
 0002:0008ca50       ?GetIconForIdx@cIconDialog@@QAEPAVcIcon@@G@Z 005c4a50 f i ApplyOptionDialog.obj
 0002:0008caa0       ?GetItemBaseInfo@CItem@@QBEABUITEMBASE@@XZ 005c4aa0 f i ApplyOptionDialog.obj
 0002:0008cab0       ?OnActionEvent@CApplyOptionDialog@@UAEXJPAXK@Z 005c4ab0 f   ApplyOptionDialog.obj
 0002:0008cca0       ?SetActive@CApplyOptionDialog@@UAEXH@Z 005c4ca0 f   ApplyOptionDialog.obj
 0002:0008d190       ?Succeed@CApplyOptionDialog@@QAEXXZ 005c5190 f   ApplyOptionDialog.obj
 0002:0008d320       ?Fail@CApplyOptionDialog@@QAEXXZ 005c5320 f   ApplyOptionDialog.obj
 0002:0008d390       ?Restore@CApplyOptionDialog@@QAEXXZ 005c5390 f   ApplyOptionDialog.obj
 0002:0008d3b0       ?Send@CApplyOptionDialog@@QAEXXZ 005c53b0 f   ApplyOptionDialog.obj
 0002:0008d3d0       ?end@?$_Hash@V?$_Hset_traits@_JV?$hash_compare@_JU?$less@_J@std@@@stdext@@V?$allocator@_J@std@@$0A@@stdext@@@stdext@@QBE?AVconst_iterator@?$list@_JV?$allocator@_J@std@@@std@@XZ 005c53d0 f i ApplyOptionDialog.obj
 0002:0008d3f0       ?find@?$_Hash@V?$_Hset_traits@_JV?$hash_compare@_JU?$less@_J@std@@@stdext@@V?$allocator@_J@std@@$0A@@stdext@@@stdext@@QBE?AVconst_iterator@?$list@_JV?$allocator@_J@std@@@std@@AB_J@Z 005c53f0 f i ApplyOptionDialog.obj
 0002:0008d410       ??8const_iterator@?$list@_JV?$allocator@_J@std@@@std@@QBE_NABV012@@Z 005c5410 f i ApplyOptionDialog.obj
 0002:0008d430       ?lower_bound@?$_Hash@V?$_Hset_traits@_JV?$hash_compare@_JU?$less@_J@std@@@stdext@@V?$allocator@_J@std@@$0A@@stdext@@@stdext@@QBE?AVconst_iterator@?$list@_JV?$allocator@_J@std@@@std@@AB_J@Z 005c5430 f i ApplyOptionDialog.obj
 0002:0008d550       ?end@?$list@_JV?$allocator@_J@std@@@std@@QBE?AVconst_iterator@12@XZ 005c5550 f i ApplyOptionDialog.obj
 0002:0008d570       ?_Hashval@?$_Hash@V?$_Hset_traits@_JV?$hash_compare@_JU?$less@_J@std@@@stdext@@V?$allocator@_J@std@@$0A@@stdext@@@stdext@@IBEIAB_J@Z 005c5570 f i ApplyOptionDialog.obj
 0002:0008d5b0       ?_Kfn@?$_Hset_traits@_JV?$hash_compare@_JU?$less@_J@std@@@stdext@@V?$allocator@_J@std@@$0A@@stdext@@SAAB_JAB_J@Z 005c55b0 f i ApplyOptionDialog.obj
 0002:0008d5c0       ??R?$hash_compare@_JU?$less@_J@std@@@stdext@@QBE_NAB_J0@Z 005c55c0 f i ApplyOptionDialog.obj
 0002:0008d5d0       ??A?$vector@Viterator@?$list@_JV?$allocator@_J@std@@@std@@V?$allocator@Viterator@?$list@_JV?$allocator@_J@std@@@std@@@3@@std@@QBEABViterator@?$list@_JV?$allocator@_J@std@@@1@I@Z 005c55d0 f i ApplyOptionDialog.obj
 0002:0008d600       ??0const_iterator@?$list@_JV?$allocator@_J@std@@@std@@QAE@XZ 005c5600 f i ApplyOptionDialog.obj
 0002:0008d610       ??0const_iterator@?$list@_JV?$allocator@_J@std@@@std@@QAE@PAU_Node@?$_List_nod@_JV?$allocator@_J@std@@@2@@Z 005c5610 f i ApplyOptionDialog.obj
 0002:0008d620       ??Dconst_iterator@?$list@_JV?$allocator@_J@std@@@std@@QBEAB_JXZ 005c5620 f i ApplyOptionDialog.obj
 0002:0008d630       ??Econst_iterator@?$list@_JV?$allocator@_J@std@@@std@@QAEAAV012@XZ 005c5630 f i ApplyOptionDialog.obj
 0002:0008d650       ??9const_iterator@?$list@_JV?$allocator@_J@std@@@std@@QBE_NABV012@@Z 005c5650 f i ApplyOptionDialog.obj
 0002:0008d670       ??R?$hash_compare@_JU?$less@_J@std@@@stdext@@QBEIAB_J@Z 005c5670 f i ApplyOptionDialog.obj
 0002:0008d690       ??R?$less@_J@std@@QBE_NAB_J0@Z 005c5690 f i ApplyOptionDialog.obj
 0002:0008d6c0       ?_Nextnode@?$list@_JV?$allocator@_J@std@@@std@@KAAAPAU_Node@?$_List_nod@_JV?$allocator@_J@std@@@2@PAU342@@Z 005c56c0 f i ApplyOptionDialog.obj
 0002:0008d6d0       ?_Myval@?$list@_JV?$allocator@_J@std@@@std@@KAAA_JPAU_Node@?$_List_nod@_JV?$allocator@_J@std@@@2@@Z 005c56d0 f i ApplyOptionDialog.obj
 0002:0008d6e0       ?begin@?$vector@Viterator@?$list@_JV?$allocator@_J@std@@@std@@V?$allocator@Viterator@?$list@_JV?$allocator@_J@std@@@std@@@3@@std@@QBE?AVconst_iterator@12@XZ 005c56e0 f i ApplyOptionDialog.obj
 0002:0008d700       ??Dconst_iterator@?$vector@Viterator@?$list@_JV?$allocator@_J@std@@@std@@V?$allocator@Viterator@?$list@_JV?$allocator@_J@std@@@std@@@3@@std@@QBEABViterator@?$list@_JV?$allocator@_J@std@@@2@XZ 005c5700 f i ApplyOptionDialog.obj
 0002:0008d710       ??Hconst_iterator@?$vector@Viterator@?$list@_JV?$allocator@_J@std@@@std@@V?$allocator@Viterator@?$list@_JV?$allocator@_J@std@@@std@@@3@@std@@QBE?AV012@H@Z 005c5710 f i ApplyOptionDialog.obj
 0002:0008d740       ??0const_iterator@?$vector@Viterator@?$list@_JV?$allocator@_J@std@@@std@@V?$allocator@Viterator@?$list@_JV?$allocator@_J@std@@@std@@@3@@std@@QAE@PAViterator@?$list@_JV?$allocator@_J@std@@@2@@Z 005c5740 f i ApplyOptionDialog.obj
 0002:0008d750       ??Yconst_iterator@?$vector@Viterator@?$list@_JV?$allocator@_J@std@@@std@@V?$allocator@Viterator@?$list@_JV?$allocator@_J@std@@@std@@@3@@std@@QAEAAV012@H@Z 005c5750 f i ApplyOptionDialog.obj
 0002:0008d770       ??$hash_value@_J@stdext@@YAIAB_J@Z 005c5770 f i ApplyOptionDialog.obj
 0002:0008d780       ??0CBodyChangeDialog@@QAE@XZ 005c5780 f   BodyChangeDialog.obj
 0002:0008dbf0       ??0CMenu@CBodyChangeDialog@@QAE@XZ 005c5bf0 f i BodyChangeDialog.obj
 0002:0008dc60       ??1?$map@EV?$basic_string@DU?$char_traits@D@std@@V?$allocator@D@2@@std@@U?$less@E@2@V?$allocator@U?$pair@$$CBEV?$basic_string@DU?$char_traits@D@std@@V?$allocator@D@2@@std@@@std@@@2@@std@@QAE@XZ 005c5c60 f i BodyChangeDialog.obj
 0002:0008dc70       ??_GCBodyChangeDialog@@UAEPAXI@Z 005c5c70 f i BodyChangeDialog.obj
 0002:0008dc70       ??_ECBodyChangeDialog@@UAEPAXI@Z 005c5c70 f i BodyChangeDialog.obj
 0002:0008dca0       ??1CMenu@CBodyChangeDialog@@QAE@XZ 005c5ca0 f i BodyChangeDialog.obj
 0002:0008dcb0       ??0MenuText@CBodyChangeDialog@@QAE@XZ 005c5cb0 f i BodyChangeDialog.obj
 0002:0008dcd0       ??1MenuText@CBodyChangeDialog@@QAE@XZ 005c5cd0 f i BodyChangeDialog.obj
 0002:0008dce0       ??1CBodyChangeDialog@@UAE@XZ 005c5ce0 f   BodyChangeDialog.obj
 0002:0008dd80       ?Linking@CBodyChangeDialog@@QAEXXZ 005c5d80 f   BodyChangeDialog.obj
 0002:0008dd90       ?OnActionEvent@CBodyChangeDialog@@UAEXJPAXK@Z 005c5d90 f   BodyChangeDialog.obj
 0002:0008e210       ?Increase@CMenu@CBodyChangeDialog@@QAEXXZ 005c6210 f i BodyChangeDialog.obj
 0002:0008e260       ?Decrease@CMenu@CBodyChangeDialog@@QAEXXZ 005c6260 f i BodyChangeDialog.obj
 0002:0008e2b0       ?GetText@CMenu@CBodyChangeDialog@@QBEPBDXZ 005c62b0 f i BodyChangeDialog.obj
 0002:0008e300       ?GetValue@CMenu@CBodyChangeDialog@@QBEEXZ 005c6300 f i BodyChangeDialog.obj
 0002:0008e340       ??0MSG_CHARACTER_CHANGE@@QAE@XZ 005c6340 f i BodyChangeDialog.obj
 0002:0008e360       ?SetActive@CBodyChangeDialog@@UAEXHAAVCItem@@@Z 005c6360 f   BodyChangeDialog.obj
 0002:0008ea30       ?GetCameraDesc@CMHCamera@@QAEPAUMHCAMERADESC@@XZ 005c6a30 f i BodyChangeDialog.obj
 0002:0008ea50       ?Add@CMenu@CBodyChangeDialog@@QAEXEPBD@Z 005c6a50 f i BodyChangeDialog.obj
 0002:0008eaf0       ?GetSize@CMenu@CBodyChangeDialog@@QBEKXZ 005c6af0 f i BodyChangeDialog.obj
 0002:0008eb00       ?SetDefault@CMenu@CBodyChangeDialog@@QAEXE@Z 005c6b00 f i BodyChangeDialog.obj
 0002:0008ebb0       ??1?$pair@$$CBEV?$basic_string@DU?$char_traits@D@std@@V?$allocator@D@2@@std@@@std@@QAE@XZ 005c6bb0 f i BodyChangeDialog.obj
 0002:0008ebc0       ?sqrt@@YAMM@Z              005c6bc0 f i BodyChangeDialog.obj
 0002:0008ebe0       _sqrtf                     005c6be0 f i BodyChangeDialog.obj
 0002:0008ebf0       ?GetRace@CPlayer@@QAEEXZ   005c6bf0 f i BodyChangeDialog.obj
 0002:0008ec00       ?SetNextAction@CHero@@QAEXPAVCAction@@@Z 005c6c00 f i BodyChangeDialog.obj
 0002:0008ec10       ?DisableAutoAttack@CHero@@QAEXXZ 005c6c10 f i BodyChangeDialog.obj
 0002:0008ec30       ?SetActive@CBodyChangeDialog@@UAEXH@Z 005c6c30 f   BodyChangeDialog.obj
 0002:0008ee10       ?Render@CBodyChangeDialog@@UAEXXZ 005c6e10 f   BodyChangeDialog.obj
 0002:0008ee90       ?GetText@CBodyChangeDialog@@ABEPBDW4RaceType@@W4PART_TYPE@@KK@Z 005c6e90 f   BodyChangeDialog.obj
 0002:0008ef60       ??0?$map@EV?$basic_string@DU?$char_traits@D@std@@V?$allocator@D@2@@std@@U?$less@E@2@V?$allocator@U?$pair@$$CBEV?$basic_string@DU?$char_traits@D@std@@V?$allocator@D@2@@std@@@std@@@2@@std@@QAE@XZ 005c6f60 f i BodyChangeDialog.obj
 0002:0008ef90       ??1?$_Tree@V?$_Tmap_traits@EV?$basic_string@DU?$char_traits@D@std@@V?$allocator@D@2@@std@@U?$less@E@2@V?$allocator@U?$pair@$$CBEV?$basic_string@DU?$char_traits@D@std@@V?$allocator@D@2@@std@@@std@@@2@$0A@@std@@@std@@QAE@XZ 005c6f90 f i BodyChangeDialog.obj
 0002:0008efa0       ?begin@?$_Tree@V?$_Tmap_traits@EV?$basic_string@DU?$char_traits@D@std@@V?$allocator@D@2@@std@@U?$less@E@2@V?$allocator@U?$pair@$$CBEV?$basic_string@DU?$char_traits@D@std@@V?$allocator@D@2@@std@@@std@@@2@$0A@@std@@@std@@QAE?AViterator@12@XZ 005c6fa0 f i BodyChangeDialog.obj
 0002:0008efc0       ?end@?$_Tree@V?$_Tmap_traits@EV?$basic_string@DU?$char_traits@D@std@@V?$allocator@D@2@@std@@U?$less@E@2@V?$allocator@U?$pair@$$CBEV?$basic_string@DU?$char_traits@D@std@@V?$allocator@D@2@@std@@@std@@@2@$0A@@std@@@std@@QAE?AViterator@12@XZ 005c6fc0 f i BodyChangeDialog.obj
 0002:0008efe0       ?end@?$_Tree@V?$_Tmap_traits@EV?$basic_string@DU?$char_traits@D@std@@V?$allocator@D@2@@std@@U?$less@E@2@V?$allocator@U?$pair@$$CBEV?$basic_string@DU?$char_traits@D@std@@V?$allocator@D@2@@std@@@std@@@2@$0A@@std@@@std@@QBE?AVconst_iterator@12@XZ 005c6fe0 f i BodyChangeDialog.obj
 0002:0008f000       ?size@?$_Tree@V?$_Tmap_traits@EV?$basic_string@DU?$char_traits@D@std@@V?$allocator@D@2@@std@@U?$less@E@2@V?$allocator@U?$pair@$$CBEV?$basic_string@DU?$char_traits@D@std@@V?$allocator@D@2@@std@@@std@@@2@$0A@@std@@@std@@QBEIXZ 005c7000 f i BodyChangeDialog.obj
 0002:0008f010       ?insert@?$_Tree@V?$_Tmap_traits@EV?$basic_string@DU?$char_traits@D@std@@V?$allocator@D@2@@std@@U?$less@E@2@V?$allocator@U?$pair@$$CBEV?$basic_string@DU?$char_traits@D@std@@V?$allocator@D@2@@std@@@std@@@2@$0A@@std@@@std@@QAE?AU?$pair@Viterator@?$_Tree@V?$_Tmap_traits@EV?$basic_string@DU?$char_traits@D@std@@V?$allocator@D@2@@std@@U?$less@E@2@V?$allocator@U?$pair@$$CBEV?$basic_string@DU?$char_traits@D@std@@V?$allocator@D@2@@std@@@std@@@2@$0A@@std@@@std@@_N@2@ABU?$pair@$$CBEV?$basic_string@DU?$char_traits@D@std@@V?$allocator@D@2@@std@@@2@@Z 005c7010 f i BodyChangeDialog.obj
 0002:0008f190       ??Cconst_iterator@?$_Tree@V?$_Tmap_traits@EV?$basic_string@DU?$char_traits@D@std@@V?$allocator@D@2@@std@@U?$less@E@2@V?$allocator@U?$pair@$$CBEV?$basic_string@DU?$char_traits@D@std@@V?$allocator@D@2@@std@@@std@@@2@$0A@@std@@@std@@QBEPBU?$pair@$$CBEV?$basic_string@DU?$char_traits@D@std@@V?$allocator@D@2@@std@@@2@XZ 005c7190 f i BodyChangeDialog.obj
 0002:0008f1a0       ??Econst_iterator@?$_Tree@V?$_Tmap_traits@EV?$basic_string@DU?$char_traits@D@std@@V?$allocator@D@2@@std@@U?$less@E@2@V?$allocator@U?$pair@$$CBEV?$basic_string@DU?$char_traits@D@std@@V?$allocator@D@2@@std@@@std@@@2@$0A@@std@@@std@@QAEAAV012@XZ 005c71a0 f i BodyChangeDialog.obj
 0002:0008f1b0       ??Fconst_iterator@?$_Tree@V?$_Tmap_traits@EV?$basic_string@DU?$char_traits@D@std@@V?$allocator@D@2@@std@@U?$less@E@2@V?$allocator@U?$pair@$$CBEV?$basic_string@DU?$char_traits@D@std@@V?$allocator@D@2@@std@@@std@@@2@$0A@@std@@@std@@QAEAAV012@XZ 005c71b0 f i BodyChangeDialog.obj
 0002:0008f1c0       ??8const_iterator@?$_Tree@V?$_Tmap_traits@EV?$basic_string@DU?$char_traits@D@std@@V?$allocator@D@2@@std@@U?$less@E@2@V?$allocator@U?$pair@$$CBEV?$basic_string@DU?$char_traits@D@std@@V?$allocator@D@2@@std@@@std@@@2@$0A@@std@@@std@@QBE_NABV012@@Z 005c71c0 f i BodyChangeDialog.obj
 0002:0008f1e0       ??9const_iterator@?$_Tree@V?$_Tmap_traits@EV?$basic_string@DU?$char_traits@D@std@@V?$allocator@D@2@@std@@U?$less@E@2@V?$allocator@U?$pair@$$CBEV?$basic_string@DU?$char_traits@D@std@@V?$allocator@D@2@@std@@@std@@@2@$0A@@std@@@std@@QBE_NABV012@@Z 005c71e0 f i BodyChangeDialog.obj
 0002:0008f200       ??0?$list@UMenuText@CBodyChangeDialog@@V?$allocator@UMenuText@CBodyChangeDialog@@@std@@@std@@QAE@XZ 005c7200 f i BodyChangeDialog.obj
 0002:0008f230       ??1?$list@UMenuText@CBodyChangeDialog@@V?$allocator@UMenuText@CBodyChangeDialog@@@std@@@std@@QAE@XZ 005c7230 f i BodyChangeDialog.obj
 0002:0008f240       ?begin@?$list@UMenuText@CBodyChangeDialog@@V?$allocator@UMenuText@CBodyChangeDialog@@@std@@@std@@QBE?AVconst_iterator@12@XZ 005c7240 f i BodyChangeDialog.obj
 0002:0008f270       ?end@?$list@UMenuText@CBodyChangeDialog@@V?$allocator@UMenuText@CBodyChangeDialog@@@std@@@std@@QBE?AVconst_iterator@12@XZ 005c7270 f i BodyChangeDialog.obj
 0002:0008f290       ?push_back@?$list@UMenuText@CBodyChangeDialog@@V?$allocator@UMenuText@CBodyChangeDialog@@@std@@@std@@QAEXABUMenuText@CBodyChangeDialog@@@Z 005c7290 f i BodyChangeDialog.obj
 0002:0008f2c0       ?end@?$_Hash@V?$_Hmap_traits@KV?$list@UBodyChangeScript@CItemManager@@V?$allocator@UBodyChangeScript@CItemManager@@@std@@@std@@V?$hash_compare@KU?$less@K@std@@@stdext@@V?$allocator@U?$pair@$$CBKV?$list@UBodyChangeScript@CItemManager@@V?$allocator@UBodyChangeScript@CItemManager@@@std@@@std@@@std@@@2@$0A@@stdext@@@stdext@@QBE?AVconst_iterator@?$list@U?$pair@$$CBKV?$list@UBodyChangeScript@CItemManager@@V?$allocator@UBodyChangeScript@CItemManager@@@std@@@std@@@std@@V?$allocator@U?$pair@$$CBKV?$list@UBodyChangeScript@CItemManager@@V?$allocator@UBodyChangeScript@CItemManager@@@std@@@std@@@std@@@2@@std@@XZ 005c72c0 f i BodyChangeDialog.obj
 0002:0008f2e0       ?find@?$_Hash@V?$_Hmap_traits@KV?$list@UBodyChangeScript@CItemManager@@V?$allocator@UBodyChangeScript@CItemManager@@@std@@@std@@V?$hash_compare@KU?$less@K@std@@@stdext@@V?$allocator@U?$pair@$$CBKV?$list@UBodyChangeScript@CItemManager@@V?$allocator@UBodyChangeScript@CItemManager@@@std@@@std@@@std@@@2@$0A@@stdext@@@stdext@@QBE?AVconst_iterator@?$list@U?$pair@$$CBKV?$list@UBodyChangeScript@CItemManager@@V?$allocator@UBodyChangeScript@CItemManager@@@std@@@std@@@std@@V?$allocator@U?$pair@$$CBKV?$list@UBodyChangeScript@CItemManager@@V?$allocator@UBodyChangeScript@CItemManager@@@std@@@std@@@std@@@2@@std@@ABK@Z 005c72e0 f i BodyChangeDialog.obj
 0002:0008f300       ??Cconst_iterator@?$list@U?$pair@$$CBKV?$list@UBodyChangeScript@CItemManager@@V?$allocator@UBodyChangeScript@CItemManager@@@std@@@std@@@std@@V?$allocator@U?$pair@$$CBKV?$list@UBodyChangeScript@CItemManager@@V?$allocator@UBodyChangeScript@CItemManager@@@std@@@std@@@std@@@2@@std@@QBEPBU?$pair@$$CBKV?$list@UBodyChangeScript@CItemManager@@V?$allocator@UBodyChangeScript@CItemManager@@@std@@@std@@@2@XZ 005c7300 f i BodyChangeDialog.obj
 0002:0008f310       ??8const_iterator@?$list@U?$pair@$$CBKV?$list@UBodyChangeScript@CItemManager@@V?$allocator@UBodyChangeScript@CItemManager@@@std@@@std@@@std@@V?$allocator@U?$pair@$$CBKV?$list@UBodyChangeScript@CItemManager@@V?$allocator@UBodyChangeScript@CItemManager@@@std@@@std@@@std@@@2@@std@@QBE_NABV012@@Z 005c7310 f i BodyChangeDialog.obj
 0002:0008f330       ?begin@?$list@UBodyChangeScript@CItemManager@@V?$allocator@UBodyChangeScript@CItemManager@@@std@@@std@@QBE?AVconst_iterator@12@XZ 005c7330 f i BodyChangeDialog.obj
 0002:0008f360       ?end@?$list@UBodyChangeScript@CItemManager@@V?$allocator@UBodyChangeScript@CItemManager@@@std@@@std@@QBE?AVconst_iterator@12@XZ 005c7360 f i BodyChangeDialog.obj
 0002:0008f380       ??Dconst_iterator@?$list@UBodyChangeScript@CItemManager@@V?$allocator@UBodyChangeScript@CItemManager@@@std@@@std@@QBEABUBodyChangeScript@CItemManager@@XZ 005c7380 f i BodyChangeDialog.obj
 0002:0008f390       ??Econst_iterator@?$list@UBodyChangeScript@CItemManager@@V?$allocator@UBodyChangeScript@CItemManager@@@std@@@std@@QAEAAV012@XZ 005c7390 f i BodyChangeDialog.obj
 0002:0008f3b0       ??9const_iterator@?$list@UBodyChangeScript@CItemManager@@V?$allocator@UBodyChangeScript@CItemManager@@@std@@@std@@QBE_NABV012@@Z 005c73b0 f i BodyChangeDialog.obj
 0002:0008f3d0       ??Dconst_iterator@?$list@UMenuText@CBodyChangeDialog@@V?$allocator@UMenuText@CBodyChangeDialog@@@std@@@std@@QBEABUMenuText@CBodyChangeDialog@@XZ 005c73d0 f i BodyChangeDialog.obj
 0002:0008f3e0       ??Econst_iterator@?$list@UMenuText@CBodyChangeDialog@@V?$allocator@UMenuText@CBodyChangeDialog@@@std@@@std@@QAEAAV012@XZ 005c73e0 f i BodyChangeDialog.obj
 0002:0008f400       ??9const_iterator@?$list@UMenuText@CBodyChangeDialog@@V?$allocator@UMenuText@CBodyChangeDialog@@@std@@@std@@QBE_NABV012@@Z 005c7400 f i BodyChangeDialog.obj
 0002:0008f420       ?_Isnil@?$_Tree@V?$_Tmap_traits@EV?$basic_string@DU?$char_traits@D@std@@V?$allocator@D@2@@std@@U?$less@E@2@V?$allocator@U?$pair@$$CBEV?$basic_string@DU?$char_traits@D@std@@V?$allocator@D@2@@std@@@std@@@2@$0A@@std@@@std@@KAAADPAU_Node@?$_Tree_nod@V?$_Tmap_traits@EV?$basic_string@DU?$char_traits@D@std@@V?$allocator@D@2@@std@@U?$less@E@2@V?$allocator@U?$pair@$$CBEV?$basic_string@DU?$char_traits@D@std@@V?$allocator@D@2@@std@@@std@@@2@$0A@@std@@@2@@Z 005c7420 f i BodyChangeDialog.obj
 0002:0008f430       ?_Key@?$_Tree@V?$_Tmap_traits@EV?$basic_string@DU?$char_traits@D@std@@V?$allocator@D@2@@std@@U?$less@E@2@V?$allocator@U?$pair@$$CBEV?$basic_string@DU?$char_traits@D@std@@V?$allocator@D@2@@std@@@std@@@2@$0A@@std@@@std@@KAABEPAU_Node@?$_Tree_nod@V?$_Tmap_traits@EV?$basic_string@DU?$char_traits@D@std@@V?$allocator@D@2@@std@@U?$less@E@2@V?$allocator@U?$pair@$$CBEV?$basic_string@DU?$char_traits@D@std@@V?$allocator@D@2@@std@@@std@@@2@$0A@@std@@@2@@Z 005c7430 f i BodyChangeDialog.obj
 0002:0008f450       ?_Left@?$_Tree@V?$_Tmap_traits@EV?$basic_string@DU?$char_traits@D@std@@V?$allocator@D@2@@std@@U?$less@E@2@V?$allocator@U?$pair@$$CBEV?$basic_string@DU?$char_traits@D@std@@V?$allocator@D@2@@std@@@std@@@2@$0A@@std@@@std@@KAAAPAU_Node@?$_Tree_nod@V?$_Tmap_traits@EV?$basic_string@DU?$char_traits@D@std@@V?$allocator@D@2@@std@@U?$less@E@2@V?$allocator@U?$pair@$$CBEV?$basic_string@DU?$char_traits@D@std@@V?$allocator@D@2@@std@@@std@@@2@$0A@@std@@@2@PAU342@@Z 005c7450 f i BodyChangeDialog.obj
 0002:0008f460       ?_Right@?$_Tree@V?$_Tmap_traits@EV?$basic_string@DU?$char_traits@D@std@@V?$allocator@D@2@@std@@U?$less@E@2@V?$allocator@U?$pair@$$CBEV?$basic_string@DU?$char_traits@D@std@@V?$allocator@D@2@@std@@@std@@@2@$0A@@std@@@std@@KAAAPAU_Node@?$_Tree_nod@V?$_Tmap_traits@EV?$basic_string@DU?$char_traits@D@std@@V?$allocator@D@2@@std@@U?$less@E@2@V?$allocator@U?$pair@$$CBEV?$basic_string@DU?$char_traits@D@std@@V?$allocator@D@2@@std@@@std@@@2@$0A@@std@@@2@PAU342@@Z 005c7460 f i BodyChangeDialog.obj
 0002:0008f470       ??0?$_Tree@V?$_Tmap_traits@EV?$basic_string@DU?$char_traits@D@std@@V?$allocator@D@2@@std@@U?$less@E@2@V?$allocator@U?$pair@$$CBEV?$basic_string@DU?$char_traits@D@std@@V?$allocator@D@2@@std@@@std@@@2@$0A@@std@@@std@@QAE@ABU?$less@E@1@ABV?$allocator@U?$pair@$$CBEV?$basic_string@DU?$char_traits@D@std@@V?$allocator@D@2@@std@@@std@@@1@@Z 005c7470 f i BodyChangeDialog.obj
 0002:0008f4b0       ?_Insert@?$_Tree@V?$_Tmap_traits@EV?$basic_string@DU?$char_traits@D@std@@V?$allocator@D@2@@std@@U?$less@E@2@V?$allocator@U?$pair@$$CBEV?$basic_string@DU?$char_traits@D@std@@V?$allocator@D@2@@std@@@std@@@2@$0A@@std@@@std@@IAE?AViterator@12@_NPAU_Node@?$_Tree_nod@V?$_Tmap_traits@EV?$basic_string@DU?$char_traits@D@std@@V?$allocator@D@2@@std@@U?$less@E@2@V?$allocator@U?$pair@$$CBEV?$basic_string@DU?$char_traits@D@std@@V?$allocator@D@2@@std@@@std@@@2@$0A@@std@@@2@ABU?$pair@$$CBEV?$basic_string@DU?$char_traits@D@std@@V?$allocator@D@2@@std@@@2@@Z 005c74b0 f i BodyChangeDialog.obj
 0002:0008f880       ?_Lmost@?$_Tree@V?$_Tmap_traits@EV?$basic_string@DU?$char_traits@D@std@@V?$allocator@D@2@@std@@U?$less@E@2@V?$allocator@U?$pair@$$CBEV?$basic_string@DU?$char_traits@D@std@@V?$allocator@D@2@@std@@@std@@@2@$0A@@std@@@std@@IAEAAPAU_Node@?$_Tree_nod@V?$_Tmap_traits@EV?$basic_string@DU?$char_traits@D@std@@V?$allocator@D@2@@std@@U?$less@E@2@V?$allocator@U?$pair@$$CBEV?$basic_string@DU?$char_traits@D@std@@V?$allocator@D@2@@std@@@std@@@2@$0A@@std@@@2@XZ 005c7880 f i BodyChangeDialog.obj
 0002:0008f890       ?_Root@?$_Tree@V?$_Tmap_traits@EV?$basic_string@DU?$char_traits@D@std@@V?$allocator@D@2@@std@@U?$less@E@2@V?$allocator@U?$pair@$$CBEV?$basic_string@DU?$char_traits@D@std@@V?$allocator@D@2@@std@@@std@@@2@$0A@@std@@@std@@IAEAAPAU_Node@?$_Tree_nod@V?$_Tmap_traits@EV?$basic_string@DU?$char_traits@D@std@@V?$allocator@D@2@@std@@U?$less@E@2@V?$allocator@U?$pair@$$CBEV?$basic_string@DU?$char_traits@D@std@@V?$allocator@D@2@@std@@@std@@@2@$0A@@std@@@2@XZ 005c7890 f i BodyChangeDialog.obj
 0002:0008f8a0       ?_Tidy@?$_Tree@V?$_Tmap_traits@EV?$basic_string@DU?$char_traits@D@std@@V?$allocator@D@2@@std@@U?$less@E@2@V?$allocator@U?$pair@$$CBEV?$basic_string@DU?$char_traits@D@std@@V?$allocator@D@2@@std@@@std@@@2@$0A@@std@@@std@@IAEXXZ 005c78a0 f i BodyChangeDialog.obj
 0002:0008f950       ?_Kfn@?$_Tmap_traits@EV?$basic_string@DU?$char_traits@D@std@@V?$allocator@D@2@@std@@U?$less@E@2@V?$allocator@U?$pair@$$CBEV?$basic_string@DU?$char_traits@D@std@@V?$allocator@D@2@@std@@@std@@@2@$0A@@std@@SAABEABU?$pair@$$CBEV?$basic_string@DU?$char_traits@D@std@@V?$allocator@D@2@@std@@@2@@Z 005c7950 f i BodyChangeDialog.obj
 0002:0008f960       ??0?$allocator@U?$pair@$$CBEV?$basic_string@DU?$char_traits@D@std@@V?$allocator@D@2@@std@@@std@@@std@@QAE@XZ 005c7960 f i BodyChangeDialog.obj
 0002:0008f970       ??R?$less@E@std@@QBE_NABE0@Z 005c7970 f i BodyChangeDialog.obj
 0002:0008f990       ??0const_iterator@?$_Tree@V?$_Tmap_traits@EV?$basic_string@DU?$char_traits@D@std@@V?$allocator@D@2@@std@@U?$less@E@2@V?$allocator@U?$pair@$$CBEV?$basic_string@DU?$char_traits@D@std@@V?$allocator@D@2@@std@@@std@@@2@$0A@@std@@@std@@QAE@PAU_Node@?$_Tree_nod@V?$_Tmap_traits@EV?$basic_string@DU?$char_traits@D@std@@V?$allocator@D@2@@std@@U?$less@E@2@V?$allocator@U?$pair@$$CBEV?$basic_string@DU?$char_traits@D@std@@V?$allocator@D@2@@std@@@std@@@2@$0A@@std@@@2@@Z 005c7990 f i BodyChangeDialog.obj
 0002:0008f9a0       ??Dconst_iterator@?$_Tree@V?$_Tmap_traits@EV?$basic_string@DU?$char_traits@D@std@@V?$allocator@D@2@@std@@U?$less@E@2@V?$allocator@U?$pair@$$CBEV?$basic_string@DU?$char_traits@D@std@@V?$allocator@D@2@@std@@@std@@@2@$0A@@std@@@std@@QBEABU?$pair@$$CBEV?$basic_string@DU?$char_traits@D@std@@V?$allocator@D@2@@std@@@2@XZ 005c79a0 f i BodyChangeDialog.obj
 0002:0008f9b0       ?_Dec@const_iterator@?$_Tree@V?$_Tmap_traits@EV?$basic_string@DU?$char_traits@D@std@@V?$allocator@D@2@@std@@U?$less@E@2@V?$allocator@U?$pair@$$CBEV?$basic_string@DU?$char_traits@D@std@@V?$allocator@D@2@@std@@@std@@@2@$0A@@std@@@std@@QAEXXZ 005c79b0 f i BodyChangeDialog.obj
 0002:0008fa80       ?_Inc@const_iterator@?$_Tree@V?$_Tmap_traits@EV?$basic_string@DU?$char_traits@D@std@@V?$allocator@D@2@@std@@U?$less@E@2@V?$allocator@U?$pair@$$CBEV?$basic_string@DU?$char_traits@D@std@@V?$allocator@D@2@@std@@@std@@@2@$0A@@std@@@std@@QAEXXZ 005c7a80 f i BodyChangeDialog.obj
 0002:0008fb30       ?_Mynode@const_iterator@?$_Tree@V?$_Tmap_traits@EV?$basic_string@DU?$char_traits@D@std@@V?$allocator@D@2@@std@@U?$less@E@2@V?$allocator@U?$pair@$$CBEV?$basic_string@DU?$char_traits@D@std@@V?$allocator@D@2@@std@@@std@@@2@$0A@@std@@@std@@QBEPAU_Node@?$_Tree_nod@V?$_Tmap_traits@EV?$basic_string@DU?$char_traits@D@std@@V?$allocator@D@2@@std@@U?$less@E@2@V?$allocator@U?$pair@$$CBEV?$basic_string@DU?$char_traits@D@std@@V?$allocator@D@2@@std@@@std@@@2@$0A@@std@@@3@XZ 005c7b30 f i BodyChangeDialog.obj
 0002:0008fb40       ?_Nextnode@?$list@UMenuText@CBodyChangeDialog@@V?$allocator@UMenuText@CBodyChangeDialog@@@std@@@std@@KAAAPAU_Node@?$_List_nod@UMenuText@CBodyChangeDialog@@V?$allocator@UMenuText@CBodyChangeDialog@@@std@@@2@PAU342@@Z 005c7b40 f i BodyChangeDialog.obj
 0002:0008fb50       ?_Myval@?$list@UMenuText@CBodyChangeDialog@@V?$allocator@UMenuText@CBodyChangeDialog@@@std@@@std@@KAAAUMenuText@CBodyChangeDialog@@PAU_Node@?$_List_nod@UMenuText@CBodyChangeDialog@@V?$allocator@UMenuText@CBodyChangeDialog@@@std@@@2@@Z 005c7b50 f i BodyChangeDialog.obj
 0002:0008fb60       ?end@?$list@UMenuText@CBodyChangeDialog@@V?$allocator@UMenuText@CBodyChangeDialog@@@std@@@std@@QAE?AViterator@12@XZ 005c7b60 f i BodyChangeDialog.obj
 0002:0008fb80       ?_Insert@?$list@UMenuText@CBodyChangeDialog@@V?$allocator@UMenuText@CBodyChangeDialog@@@std@@@std@@QAEXViterator@12@ABUMenuText@CBodyChangeDialog@@@Z 005c7b80 f i BodyChangeDialog.obj
 0002:0008fbf0       ?_Buynode@?$list@UMenuText@CBodyChangeDialog@@V?$allocator@UMenuText@CBodyChangeDialog@@@std@@@std@@IAEPAU_Node@?$_List_nod@UMenuText@CBodyChangeDialog@@V?$allocator@UMenuText@CBodyChangeDialog@@@std@@@2@XZ 005c7bf0 f i BodyChangeDialog.obj
 0002:0008fce0       ?_Tidy@?$list@UMenuText@CBodyChangeDialog@@V?$allocator@UMenuText@CBodyChangeDialog@@@std@@@std@@IAEXXZ 005c7ce0 f i BodyChangeDialog.obj
 0002:0008fd40       ??0?$_List_val@UMenuText@CBodyChangeDialog@@V?$allocator@UMenuText@CBodyChangeDialog@@@std@@@std@@IAE@V?$allocator@UMenuText@CBodyChangeDialog@@@1@@Z 005c7d40 f i BodyChangeDialog.obj
 0002:0008fd80       ??0?$allocator@UMenuText@CBodyChangeDialog@@@std@@QAE@XZ 005c7d80 f i BodyChangeDialog.obj
 0002:0008fd90       ??0iterator@?$_Tree@V?$_Tmap_traits@EV?$basic_string@DU?$char_traits@D@std@@V?$allocator@D@2@@std@@U?$less@E@2@V?$allocator@U?$pair@$$CBEV?$basic_string@DU?$char_traits@D@std@@V?$allocator@D@2@@std@@@std@@@2@$0A@@std@@@std@@QAE@PAU_Node@?$_Tree_nod@V?$_Tmap_traits@EV?$basic_string@DU?$char_traits@D@std@@V?$allocator@D@2@@std@@U?$less@E@2@V?$allocator@U?$pair@$$CBEV?$basic_string@DU?$char_traits@D@std@@V?$allocator@D@2@@std@@@std@@@2@$0A@@std@@@2@@Z 005c7d90 f i BodyChangeDialog.obj
 0002:0008fdb0       ??Fiterator@?$_Tree@V?$_Tmap_traits@EV?$basic_string@DU?$char_traits@D@std@@V?$allocator@D@2@@std@@U?$less@E@2@V?$allocator@U?$pair@$$CBEV?$basic_string@DU?$char_traits@D@std@@V?$allocator@D@2@@std@@@std@@@2@$0A@@std@@@std@@QAEAAV012@XZ 005c7db0 f i BodyChangeDialog.obj
 0002:0008fdc0       ??0?$pair@Viterator@?$_Tree@V?$_Tmap_traits@EV?$basic_string@DU?$char_traits@D@std@@V?$allocator@D@2@@std@@U?$less@E@2@V?$allocator@U?$pair@$$CBEV?$basic_string@DU?$char_traits@D@std@@V?$allocator@D@2@@std@@@std@@@2@$0A@@std@@@std@@_N@std@@QAE@ABViterator@?$_Tree@V?$_Tmap_traits@EV?$basic_string@DU?$char_traits@D@std@@V?$allocator@D@2@@std@@U?$less@E@2@V?$allocator@U?$pair@$$CBEV?$basic_string@DU?$char_traits@D@std@@V?$allocator@D@2@@std@@@std@@@2@$0A@@std@@@1@AB_N@Z 005c7dc0 f i BodyChangeDialog.obj
 0002:0008fde0       ?lower_bound@?$_Hash@V?$_Hmap_traits@KV?$list@UBodyChangeScript@CItemManager@@V?$allocator@UBodyChangeScript@CItemManager@@@std@@@std@@V?$hash_compare@KU?$less@K@std@@@stdext@@V?$allocator@U?$pair@$$CBKV?$list@UBodyChangeScript@CItemManager@@V?$allocator@UBodyChangeScript@CItemManager@@@std@@@std@@@std@@@2@$0A@@stdext@@@stdext@@QBE?AVconst_iterator@?$list@U?$pair@$$CBKV?$list@UBodyChangeScript@CItemManager@@V?$allocator@UBodyChangeScript@CItemManager@@@std@@@std@@@std@@V?$allocator@U?$pair@$$CBKV?$list@UBodyChangeScript@CItemManager@@V?$allocator@UBodyChangeScript@CItemManager@@@std@@@std@@@std@@@2@@std@@ABK@Z 005c7de0 f i BodyChangeDialog.obj
 0002:0008ff00       ?end@?$list@U?$pair@$$CBKV?$list@UBodyChangeScript@CItemManager@@V?$allocator@UBodyChangeScript@CItemManager@@@std@@@std@@@std@@V?$allocator@U?$pair@$$CBKV?$list@UBodyChangeScript@CItemManager@@V?$allocator@UBodyChangeScript@CItemManager@@@std@@@std@@@std@@@2@@std@@QBE?AVconst_iterator@12@XZ 005c7f00 f i BodyChangeDialog.obj
 0002:0008ff20       ??Dconst_iterator@?$list@U?$pair@$$CBKV?$list@UBodyChangeScript@CItemManager@@V?$allocator@UBodyChangeScript@CItemManager@@@std@@@std@@@std@@V?$allocator@U?$pair@$$CBKV?$list@UBodyChangeScript@CItemManager@@V?$allocator@UBodyChangeScript@CItemManager@@@std@@@std@@@std@@@2@@std@@QBEABU?$pair@$$CBKV?$list@UBodyChangeScript@CItemManager@@V?$allocator@UBodyChangeScript@CItemManager@@@std@@@std@@@2@XZ 005c7f20 f i BodyChangeDialog.obj
 0002:0008ff30       ?_Nextnode@?$list@UBodyChangeScript@CItemManager@@V?$allocator@UBodyChangeScript@CItemManager@@@std@@@std@@KAAAPAU_Node@?$_List_nod@UBodyChangeScript@CItemManager@@V?$allocator@UBodyChangeScript@CItemManager@@@std@@@2@PAU342@@Z 005c7f30 f i BodyChangeDialog.obj
 0002:0008ff40       ?_Myval@?$list@UBodyChangeScript@CItemManager@@V?$allocator@UBodyChangeScript@CItemManager@@@std@@@std@@KAAAUBodyChangeScript@CItemManager@@PAU_Node@?$_List_nod@UBodyChangeScript@CItemManager@@V?$allocator@UBodyChangeScript@CItemManager@@@std@@@2@@Z 005c7f40 f i BodyChangeDialog.obj
 0002:0008ff50       ??0const_iterator@?$list@UBodyChangeScript@CItemManager@@V?$allocator@UBodyChangeScript@CItemManager@@@std@@@std@@QAE@PAU_Node@?$_List_nod@UBodyChangeScript@CItemManager@@V?$allocator@UBodyChangeScript@CItemManager@@@std@@@2@@Z 005c7f50 f i BodyChangeDialog.obj
 0002:0008ff60       ??8const_iterator@?$list@UBodyChangeScript@CItemManager@@V?$allocator@UBodyChangeScript@CItemManager@@@std@@@std@@QBE_NABV012@@Z 005c7f60 f i BodyChangeDialog.obj
 0002:0008ff80       ??0const_iterator@?$list@UMenuText@CBodyChangeDialog@@V?$allocator@UMenuText@CBodyChangeDialog@@@std@@@std@@QAE@PAU_Node@?$_List_nod@UMenuText@CBodyChangeDialog@@V?$allocator@UMenuText@CBodyChangeDialog@@@std@@@2@@Z 005c7f80 f i BodyChangeDialog.obj
 0002:0008ff90       ??8const_iterator@?$list@UMenuText@CBodyChangeDialog@@V?$allocator@UMenuText@CBodyChangeDialog@@@std@@@std@@QBE_NABV012@@Z 005c7f90 f i BodyChangeDialog.obj
 0002:0008ffb0       ?_Color@?$_Tree@V?$_Tmap_traits@EV?$basic_string@DU?$char_traits@D@std@@V?$allocator@D@2@@std@@U?$less@E@2@V?$allocator@U?$pair@$$CBEV?$basic_string@DU?$char_traits@D@std@@V?$allocator@D@2@@std@@@std@@@2@$0A@@std@@@std@@KAAADPAU_Node@?$_Tree_nod@V?$_Tmap_traits@EV?$basic_string@DU?$char_traits@D@std@@V?$allocator@D@2@@std@@U?$less@E@2@V?$allocator@U?$pair@$$CBEV?$basic_string@DU?$char_traits@D@std@@V?$allocator@D@2@@std@@@std@@@2@$0A@@std@@@2@@Z 005c7fb0 f i BodyChangeDialog.obj
 0002:0008ffc0       ?_Parent@?$_Tree@V?$_Tmap_traits@EV?$basic_string@DU?$char_traits@D@std@@V?$allocator@D@2@@std@@U?$less@E@2@V?$allocator@U?$pair@$$CBEV?$basic_string@DU?$char_traits@D@std@@V?$allocator@D@2@@std@@@std@@@2@$0A@@std@@@std@@KAAAPAU_Node@?$_Tree_nod@V?$_Tmap_traits@EV?$basic_string@DU?$char_traits@D@std@@V?$allocator@D@2@@std@@U?$less@E@2@V?$allocator@U?$pair@$$CBEV?$basic_string@DU?$char_traits@D@std@@V?$allocator@D@2@@std@@@std@@@2@$0A@@std@@@2@PAU342@@Z 005c7fc0 f i BodyChangeDialog.obj
 0002:0008ffd0       ?_Myval@?$_Tree@V?$_Tmap_traits@EV?$basic_string@DU?$char_traits@D@std@@V?$allocator@D@2@@std@@U?$less@E@2@V?$allocator@U?$pair@$$CBEV?$basic_string@DU?$char_traits@D@std@@V?$allocator@D@2@@std@@@std@@@2@$0A@@std@@@std@@KAAAU?$pair@$$CBEV?$basic_string@DU?$char_traits@D@std@@V?$allocator@D@2@@std@@@2@PAU_Node@?$_Tree_nod@V?$_Tmap_traits@EV?$basic_string@DU?$char_traits@D@std@@V?$allocator@D@2@@std@@U?$less@E@2@V?$allocator@U?$pair@$$CBEV?$basic_string@DU?$char_traits@D@std@@V?$allocator@D@2@@std@@@std@@@2@$0A@@std@@@2@@Z 005c7fd0 f i BodyChangeDialog.obj
 0002:0008ffe0       ?max_size@?$_Tree@V?$_Tmap_traits@EV?$basic_string@DU?$char_traits@D@std@@V?$allocator@D@2@@std@@U?$less@E@2@V?$allocator@U?$pair@$$CBEV?$basic_string@DU?$char_traits@D@std@@V?$allocator@D@2@@std@@@std@@@2@$0A@@std@@@std@@QBEIXZ 005c7fe0 f i BodyChangeDialog.obj
 0002:0008fff0       ?erase@?$_Tree@V?$_Tmap_traits@EV?$basic_string@DU?$char_traits@D@std@@V?$allocator@D@2@@std@@U?$less@E@2@V?$allocator@U?$pair@$$CBEV?$basic_string@DU?$char_traits@D@std@@V?$allocator@D@2@@std@@@std@@@2@$0A@@std@@@std@@QAE?AViterator@12@V312@0@Z 005c7ff0 f i BodyChangeDialog.obj
 0002:000900d0       ?_Init@?$_Tree@V?$_Tmap_traits@EV?$basic_string@DU?$char_traits@D@std@@V?$allocator@D@2@@std@@U?$less@E@2@V?$allocator@U?$pair@$$CBEV?$basic_string@DU?$char_traits@D@std@@V?$allocator@D@2@@std@@@std@@@2@$0A@@std@@@std@@IAEXXZ 005c80d0 f i BodyChangeDialog.obj
 0002:00090130       ??0CHARACTERCHANGE_INFO@@QAE@XZ 005c8130 f i BodyChangeDialog.obj
 0002:00090150       ?_Lrotate@?$_Tree@V?$_Tmap_traits@EV?$basic_string@DU?$char_traits@D@std@@V?$allocator@D@2@@std@@U?$less@E@2@V?$allocator@U?$pair@$$CBEV?$basic_string@DU?$char_traits@D@std@@V?$allocator@D@2@@std@@@std@@@2@$0A@@std@@@std@@IAEXPAU_Node@?$_Tree_nod@V?$_Tmap_traits@EV?$basic_string@DU?$char_traits@D@std@@V?$allocator@D@2@@std@@U?$less@E@2@V?$allocator@U?$pair@$$CBEV?$basic_string@DU?$char_traits@D@std@@V?$allocator@D@2@@std@@@std@@@2@$0A@@std@@@2@@Z 005c8150 f i BodyChangeDialog.obj
 0002:00090220       ?_Max@?$_Tree@V?$_Tmap_traits@EV?$basic_string@DU?$char_traits@D@std@@V?$allocator@D@2@@std@@U?$less@E@2@V?$allocator@U?$pair@$$CBEV?$basic_string@DU?$char_traits@D@std@@V?$allocator@D@2@@std@@@std@@@2@$0A@@std@@@std@@KAPAU_Node@?$_Tree_nod@V?$_Tmap_traits@EV?$basic_string@DU?$char_traits@D@std@@V?$allocator@D@2@@std@@U?$less@E@2@V?$allocator@U?$pair@$$CBEV?$basic_string@DU?$char_traits@D@std@@V?$allocator@D@2@@std@@@std@@@2@$0A@@std@@@2@PAU342@@Z 005c8220 f i BodyChangeDialog.obj
 0002:00090270       ?_Min@?$_Tree@V?$_Tmap_traits@EV?$basic_string@DU?$char_traits@D@std@@V?$allocator@D@2@@std@@U?$less@E@2@V?$allocator@U?$pair@$$CBEV?$basic_string@DU?$char_traits@D@std@@V?$allocator@D@2@@std@@@std@@@2@$0A@@std@@@std@@KAPAU_Node@?$_Tree_nod@V?$_Tmap_traits@EV?$basic_string@DU?$char_traits@D@std@@V?$allocator@D@2@@std@@U?$less@E@2@V?$allocator@U?$pair@$$CBEV?$basic_string@DU?$char_traits@D@std@@V?$allocator@D@2@@std@@@std@@@2@$0A@@std@@@2@PAU342@@Z 005c8270 f i BodyChangeDialog.obj
 0002:000902c0       ?_Rmost@?$_Tree@V?$_Tmap_traits@EV?$basic_string@DU?$char_traits@D@std@@V?$allocator@D@2@@std@@U?$less@E@2@V?$allocator@U?$pair@$$CBEV?$basic_string@DU?$char_traits@D@std@@V?$allocator@D@2@@std@@@std@@@2@$0A@@std@@@std@@IAEAAPAU_Node@?$_Tree_nod@V?$_Tmap_traits@EV?$basic_string@DU?$char_traits@D@std@@V?$allocator@D@2@@std@@U?$less@E@2@V?$allocator@U?$pair@$$CBEV?$basic_string@DU?$char_traits@D@std@@V?$allocator@D@2@@std@@@std@@@2@$0A@@std@@@2@XZ 005c82c0 f i BodyChangeDialog.obj
 0002:000902d0       ?_Rrotate@?$_Tree@V?$_Tmap_traits@EV?$basic_string@DU?$char_traits@D@std@@V?$allocator@D@2@@std@@U?$less@E@2@V?$allocator@U?$pair@$$CBEV?$basic_string@DU?$char_traits@D@std@@V?$allocator@D@2@@std@@@std@@@2@$0A@@std@@@std@@IAEXPAU_Node@?$_Tree_nod@V?$_Tmap_traits@EV?$basic_string@DU?$char_traits@D@std@@V?$allocator@D@2@@std@@U?$less@E@2@V?$allocator@U?$pair@$$CBEV?$basic_string@DU?$char_traits@D@std@@V?$allocator@D@2@@std@@@std@@@2@$0A@@std@@@2@@Z 005c82d0 f i BodyChangeDialog.obj
 0002:000903a0       ?_Buynode@?$_Tree@V?$_Tmap_traits@EV?$basic_string@DU?$char_traits@D@std@@V?$allocator@D@2@@std@@U?$less@E@2@V?$allocator@U?$pair@$$CBEV?$basic_string@DU?$char_traits@D@std@@V?$allocator@D@2@@std@@@std@@@2@$0A@@std@@@std@@IAEPAU_Node@?$_Tree_nod@V?$_Tmap_traits@EV?$basic_string@DU?$char_traits@D@std@@V?$allocator@D@2@@std@@U?$less@E@2@V?$allocator@U?$pair@$$CBEV?$basic_string@DU?$char_traits@D@std@@V?$allocator@D@2@@std@@@std@@@2@$0A@@std@@@2@PAU342@00ABU?$pair@$$CBEV?$basic_string@DU?$char_traits@D@std@@V?$allocator@D@2@@std@@@2@D@Z 005c83a0 f i BodyChangeDialog.obj
 0002:00090460       ??0?$_Tree_val@V?$_Tmap_traits@EV?$basic_string@DU?$char_traits@D@std@@V?$allocator@D@2@@std@@U?$less@E@2@V?$allocator@U?$pair@$$CBEV?$basic_string@DU?$char_traits@D@std@@V?$allocator@D@2@@std@@@std@@@2@$0A@@std@@@std@@IAE@ABU?$less@E@1@V?$allocator@U?$pair@$$CBEV?$basic_string@DU?$char_traits@D@std@@V?$allocator@D@2@@std@@@std@@@1@@Z 005c8460 f i BodyChangeDialog.obj
 0002:000904a0       ??0?$allocator@U?$pair@$$CBEV?$basic_string@DU?$char_traits@D@std@@V?$allocator@D@2@@std@@@std@@@std@@QAE@ABV01@@Z 005c84a0 f i BodyChangeDialog.obj
 0002:000904b0       ?deallocate@?$allocator@U_Node@?$_Tree_nod@V?$_Tmap_traits@EV?$basic_string@DU?$char_traits@D@std@@V?$allocator@D@2@@std@@U?$less@E@2@V?$allocator@U?$pair@$$CBEV?$basic_string@DU?$char_traits@D@std@@V?$allocator@D@2@@std@@@std@@@2@$0A@@std@@@std@@@std@@QAEXPAU_Node@?$_Tree_nod@V?$_Tmap_traits@EV?$basic_string@DU?$char_traits@D@std@@V?$allocator@D@2@@std@@U?$less@E@2@V?$allocator@U?$pair@$$CBEV?$basic_string@DU?$char_traits@D@std@@V?$allocator@D@2@@std@@@std@@@2@$0A@@std@@@2@I@Z 005c84b0 f i BodyChangeDialog.obj
 0002:000904d0       ?destroy@?$allocator@PAU_Node@?$_Tree_nod@V?$_Tmap_traits@EV?$basic_string@DU?$char_traits@D@std@@V?$allocator@D@2@@std@@U?$less@E@2@V?$allocator@U?$pair@$$CBEV?$basic_string@DU?$char_traits@D@std@@V?$allocator@D@2@@std@@@std@@@2@$0A@@std@@@std@@@std@@QAEXPAPAU_Node@?$_Tree_nod@V?$_Tmap_traits@EV?$basic_string@DU?$char_traits@D@std@@V?$allocator@D@2@@std@@U?$less@E@2@V?$allocator@U?$pair@$$CBEV?$basic_string@DU?$char_traits@D@std@@V?$allocator@D@2@@std@@@std@@@2@$0A@@std@@@2@@Z 005c84d0 f i BodyChangeDialog.obj
 0002:000904f0       ?_Prevnode@?$list@UMenuText@CBodyChangeDialog@@V?$allocator@UMenuText@CBodyChangeDialog@@@std@@@std@@KAAAPAU_Node@?$_List_nod@UMenuText@CBodyChangeDialog@@V?$allocator@UMenuText@CBodyChangeDialog@@@std@@@2@PAU342@@Z 005c84f0 f i BodyChangeDialog.obj
 0002:00090500       ?clear@?$list@UMenuText@CBodyChangeDialog@@V?$allocator@UMenuText@CBodyChangeDialog@@@std@@@std@@QAEXXZ 005c8500 f i BodyChangeDialog.obj
 0002:00090570       ?_Buynode@?$list@UMenuText@CBodyChangeDialog@@V?$allocator@UMenuText@CBodyChangeDialog@@@std@@@std@@IAEPAU_Node@?$_List_nod@UMenuText@CBodyChangeDialog@@V?$allocator@UMenuText@CBodyChangeDialog@@@std@@@2@PAU342@0ABUMenuText@CBodyChangeDialog@@@Z 005c8570 f i BodyChangeDialog.obj
 0002:00090620       ?_Incsize@?$list@UMenuText@CBodyChangeDialog@@V?$allocator@UMenuText@CBodyChangeDialog@@@std@@@std@@IAEXI@Z 005c8620 f i BodyChangeDialog.obj
 0002:000906c0       ??0?$_List_ptr@UMenuText@CBodyChangeDialog@@V?$allocator@UMenuText@CBodyChangeDialog@@@std@@@std@@IAE@V?$allocator@UMenuText@CBodyChangeDialog@@@1@@Z 005c86c0 f i BodyChangeDialog.obj
 0002:00090700       ??0?$allocator@UMenuText@CBodyChangeDialog@@@std@@QAE@ABV01@@Z 005c8700 f i BodyChangeDialog.obj
 0002:00090710       ?deallocate@?$allocator@U_Node@?$_List_nod@UMenuText@CBodyChangeDialog@@V?$allocator@UMenuText@CBodyChangeDialog@@@std@@@std@@@std@@QAEXPAU_Node@?$_List_nod@UMenuText@CBodyChangeDialog@@V?$allocator@UMenuText@CBodyChangeDialog@@@std@@@2@I@Z 005c8710 f i BodyChangeDialog.obj
 0002:00090730       ?allocate@?$allocator@U_Node@?$_List_nod@UMenuText@CBodyChangeDialog@@V?$allocator@UMenuText@CBodyChangeDialog@@@std@@@std@@@std@@QAEPAU_Node@?$_List_nod@UMenuText@CBodyChangeDialog@@V?$allocator@UMenuText@CBodyChangeDialog@@@std@@@2@I@Z 005c8730 f i BodyChangeDialog.obj
 0002:00090750       ?construct@?$allocator@PAU_Node@?$_List_nod@UMenuText@CBodyChangeDialog@@V?$allocator@UMenuText@CBodyChangeDialog@@@std@@@std@@@std@@QAEXPAPAU_Node@?$_List_nod@UMenuText@CBodyChangeDialog@@V?$allocator@UMenuText@CBodyChangeDialog@@@std@@@2@ABQAU342@@Z 005c8750 f i BodyChangeDialog.obj
 0002:00090770       ?destroy@?$allocator@PAU_Node@?$_List_nod@UMenuText@CBodyChangeDialog@@V?$allocator@UMenuText@CBodyChangeDialog@@@std@@@std@@@std@@QAEXPAPAU_Node@?$_List_nod@UMenuText@CBodyChangeDialog@@V?$allocator@UMenuText@CBodyChangeDialog@@@std@@@2@@Z 005c8770 f i BodyChangeDialog.obj
 0002:00090790       ??R?$hash_compare@KU?$less@K@std@@@stdext@@QBE_NABK0@Z 005c8790 f i BodyChangeDialog.obj
 0002:000907a0       ?_Hashval@?$_Hash@V?$_Hmap_traits@KV?$list@UBodyChangeScript@CItemManager@@V?$allocator@UBodyChangeScript@CItemManager@@@std@@@std@@V?$hash_compare@KU?$less@K@std@@@stdext@@V?$allocator@U?$pair@$$CBKV?$list@UBodyChangeScript@CItemManager@@V?$allocator@UBodyChangeScript@CItemManager@@@std@@@std@@@std@@@2@$0A@@stdext@@@stdext@@IBEIABK@Z 005c87a0 f i BodyChangeDialog.obj
 0002:000907e0       ?_Kfn@?$_Hmap_traits@KV?$list@UBodyChangeScript@CItemManager@@V?$allocator@UBodyChangeScript@CItemManager@@@std@@@std@@V?$hash_compare@KU?$less@K@std@@@stdext@@V?$allocator@U?$pair@$$CBKV?$list@UBodyChangeScript@CItemManager@@V?$allocator@UBodyChangeScript@CItemManager@@@std@@@std@@@std@@@2@$0A@@stdext@@SAABKABU?$pair@$$CBKV?$list@UBodyChangeScript@CItemManager@@V?$allocator@UBodyChangeScript@CItemManager@@@std@@@std@@@std@@@Z 005c87e0 f i BodyChangeDialog.obj
 0002:000907f0       ?_Myval@?$list@U?$pair@$$CBKV?$list@UBodyChangeScript@CItemManager@@V?$allocator@UBodyChangeScript@CItemManager@@@std@@@std@@@std@@V?$allocator@U?$pair@$$CBKV?$list@UBodyChangeScript@CItemManager@@V?$allocator@UBodyChangeScript@CItemManager@@@std@@@std@@@std@@@2@@std@@KAAAU?$pair@$$CBKV?$list@UBodyChangeScript@CItemManager@@V?$allocator@UBodyChangeScript@CItemManager@@@std@@@std@@@2@PAU_Node@?$_List_nod@U?$pair@$$CBKV?$list@UBodyChangeScript@CItemManager@@V?$allocator@UBodyChangeScript@CItemManager@@@std@@@std@@@std@@V?$allocator@U?$pair@$$CBKV?$list@UBodyChangeScript@CItemManager@@V?$allocator@UBodyChangeScript@CItemManager@@@std@@@std@@@std@@@2@@2@@Z 005c87f0 f i BodyChangeDialog.obj
 0002:00090800       ??A?$vector@Viterator@?$list@U?$pair@$$CBKV?$list@UBodyChangeScript@CItemManager@@V?$allocator@UBodyChangeScript@CItemManager@@@std@@@std@@@std@@V?$allocator@U?$pair@$$CBKV?$list@UBodyChangeScript@CItemManager@@V?$allocator@UBodyChangeScript@CItemManager@@@std@@@std@@@std@@@2@@std@@V?$allocator@Viterator@?$list@U?$pair@$$CBKV?$list@UBodyChangeScript@CItemManager@@V?$allocator@UBodyChangeScript@CItemManager@@@std@@@std@@@std@@V?$allocator@U?$pair@$$CBKV?$list@UBodyChangeScript@CItemManager@@V?$allocator@UBodyChangeScript@CItemManager@@@std@@@std@@@std@@@2@@std@@@3@@std@@QBEABViterator@?$list@U?$pair@$$CBKV?$list@UBodyChangeScript@CItemManager@@V?$allocator@UBodyChangeScript@CItemManager@@@std@@@std@@@std@@V?$allocator@U?$pair@$$CBKV?$list@UBodyChangeScript@CItemManager@@V?$allocator@UBodyChangeScript@CItemManager@@@std@@@std@@@std@@@2@@1@I@Z 005c8800 f i BodyChangeDialog.obj
 0002:00090830       ??0const_iterator@?$list@U?$pair@$$CBKV?$list@UBodyChangeScript@CItemManager@@V?$allocator@UBodyChangeScript@CItemManager@@@std@@@std@@@std@@V?$allocator@U?$pair@$$CBKV?$list@UBodyChangeScript@CItemManager@@V?$allocator@UBodyChangeScript@CItemManager@@@std@@@std@@@std@@@2@@std@@QAE@XZ 005c8830 f i BodyChangeDialog.obj
 0002:00090840       ??0const_iterator@?$list@U?$pair@$$CBKV?$list@UBodyChangeScript@CItemManager@@V?$allocator@UBodyChangeScript@CItemManager@@@std@@@std@@@std@@V?$allocator@U?$pair@$$CBKV?$list@UBodyChangeScript@CItemManager@@V?$allocator@UBodyChangeScript@CItemManager@@@std@@@std@@@std@@@2@@std@@QAE@PAU_Node@?$_List_nod@U?$pair@$$CBKV?$list@UBodyChangeScript@CItemManager@@V?$allocator@UBodyChangeScript@CItemManager@@@std@@@std@@@std@@V?$allocator@U?$pair@$$CBKV?$list@UBodyChangeScript@CItemManager@@V?$allocator@UBodyChangeScript@CItemManager@@@std@@@std@@@std@@@2@@2@@Z 005c8840 f i BodyChangeDialog.obj
 0002:00090850       ??Econst_iterator@?$list@U?$pair@$$CBKV?$list@UBodyChangeScript@CItemManager@@V?$allocator@UBodyChangeScript@CItemManager@@@std@@@std@@@std@@V?$allocator@U?$pair@$$CBKV?$list@UBodyChangeScript@CItemManager@@V?$allocator@UBodyChangeScript@CItemManager@@@std@@@std@@@std@@@2@@std@@QAEAAV012@XZ 005c8850 f i BodyChangeDialog.obj
 0002:00090870       ??9const_iterator@?$list@U?$pair@$$CBKV?$list@UBodyChangeScript@CItemManager@@V?$allocator@UBodyChangeScript@CItemManager@@@std@@@std@@@std@@V?$allocator@U?$pair@$$CBKV?$list@UBodyChangeScript@CItemManager@@V?$allocator@UBodyChangeScript@CItemManager@@@std@@@std@@@std@@@2@@std@@QBE_NABV012@@Z 005c8870 f i BodyChangeDialog.obj
 0002:00090890       ?_Mynode@const_iterator@?$list@UMenuText@CBodyChangeDialog@@V?$allocator@UMenuText@CBodyChangeDialog@@@std@@@std@@QBEPAU_Node@?$_List_nod@UMenuText@CBodyChangeDialog@@V?$allocator@UMenuText@CBodyChangeDialog@@@std@@@3@XZ 005c8890 f i BodyChangeDialog.obj
 0002:000908a0       ??0iterator@?$list@UMenuText@CBodyChangeDialog@@V?$allocator@UMenuText@CBodyChangeDialog@@@std@@@std@@QAE@PAU_Node@?$_List_nod@UMenuText@CBodyChangeDialog@@V?$allocator@UMenuText@CBodyChangeDialog@@@std@@@2@@Z 005c88a0 f i BodyChangeDialog.obj
 0002:000908c0       ?erase@?$_Tree@V?$_Tmap_traits@EV?$basic_string@DU?$char_traits@D@std@@V?$allocator@D@2@@std@@U?$less@E@2@V?$allocator@U?$pair@$$CBEV?$basic_string@DU?$char_traits@D@std@@V?$allocator@D@2@@std@@@std@@@2@$0A@@std@@@std@@QAE?AViterator@12@V312@@Z 005c88c0 f i BodyChangeDialog.obj
 0002:00090f90       ??0out_of_range@std@@QAE@ABV?$basic_string@DU?$char_traits@D@std@@V?$allocator@D@2@@1@@Z 005c8f90 f i BodyChangeDialog.obj
 0002:00090fb0       ??1out_of_range@std@@UAE@XZ 005c8fb0 f i BodyChangeDialog.obj
 0002:00090fc0       ??_Eout_of_range@std@@UAEPAXI@Z 005c8fc0 f i BodyChangeDialog.obj
 0002:00090fc0       ??_Gout_of_range@std@@UAEPAXI@Z 005c8fc0 f i BodyChangeDialog.obj
 0002:00090ff0       ?clear@?$_Tree@V?$_Tmap_traits@EV?$basic_string@DU?$char_traits@D@std@@V?$allocator@D@2@@std@@U?$less@E@2@V?$allocator@U?$pair@$$CBEV?$basic_string@DU?$char_traits@D@std@@V?$allocator@D@2@@std@@@std@@@2@$0A@@std@@@std@@QAEXXZ 005c8ff0 f i BodyChangeDialog.obj
 0002:00091040       ?_Buynode@?$_Tree@V?$_Tmap_traits@EV?$basic_string@DU?$char_traits@D@std@@V?$allocator@D@2@@std@@U?$less@E@2@V?$allocator@U?$pair@$$CBEV?$basic_string@DU?$char_traits@D@std@@V?$allocator@D@2@@std@@@std@@@2@$0A@@std@@@std@@IAEPAU_Node@?$_Tree_nod@V?$_Tmap_traits@EV?$basic_string@DU?$char_traits@D@std@@V?$allocator@D@2@@std@@U?$less@E@2@V?$allocator@U?$pair@$$CBEV?$basic_string@DU?$char_traits@D@std@@V?$allocator@D@2@@std@@@std@@@2@$0A@@std@@@2@XZ 005c9040 f i BodyChangeDialog.obj
 0002:000911a0       ??0?$_Tree_ptr@V?$_Tmap_traits@EV?$basic_string@DU?$char_traits@D@std@@V?$allocator@D@2@@std@@U?$less@E@2@V?$allocator@U?$pair@$$CBEV?$basic_string@DU?$char_traits@D@std@@V?$allocator@D@2@@std@@@std@@@2@$0A@@std@@@std@@IAE@ABU?$less@E@1@V?$allocator@U?$pair@$$CBEV?$basic_string@DU?$char_traits@D@std@@V?$allocator@D@2@@std@@@std@@@1@@Z 005c91a0 f i BodyChangeDialog.obj
 0002:000911e0       ?max_size@?$allocator@U?$pair@$$CBEV?$basic_string@DU?$char_traits@D@std@@V?$allocator@D@2@@std@@@std@@@std@@QBEIXZ 005c91e0 f i BodyChangeDialog.obj
 0002:000911f0       ?allocate@?$allocator@U_Node@?$_Tree_nod@V?$_Tmap_traits@EV?$basic_string@DU?$char_traits@D@std@@V?$allocator@D@2@@std@@U?$less@E@2@V?$allocator@U?$pair@$$CBEV?$basic_string@DU?$char_traits@D@std@@V?$allocator@D@2@@std@@@std@@@2@$0A@@std@@@std@@@std@@QAEPAU_Node@?$_Tree_nod@V?$_Tmap_traits@EV?$basic_string@DU?$char_traits@D@std@@V?$allocator@D@2@@std@@U?$less@E@2@V?$allocator@U?$pair@$$CBEV?$basic_string@DU?$char_traits@D@std@@V?$allocator@D@2@@std@@@std@@@2@$0A@@std@@@2@I@Z 005c91f0 f i BodyChangeDialog.obj
 0002:00091210       ?max_size@?$list@UMenuText@CBodyChangeDialog@@V?$allocator@UMenuText@CBodyChangeDialog@@@std@@@std@@QBEIXZ 005c9210 f i BodyChangeDialog.obj
 0002:00091220       ??0?$_List_nod@UMenuText@CBodyChangeDialog@@V?$allocator@UMenuText@CBodyChangeDialog@@@std@@@std@@IAE@V?$allocator@UMenuText@CBodyChangeDialog@@@1@@Z 005c9220 f i BodyChangeDialog.obj
 0002:00091240       ?destroy@?$allocator@U_Node@?$_List_nod@UMenuText@CBodyChangeDialog@@V?$allocator@UMenuText@CBodyChangeDialog@@@std@@@std@@@std@@QAEXPAU_Node@?$_List_nod@UMenuText@CBodyChangeDialog@@V?$allocator@UMenuText@CBodyChangeDialog@@@std@@@2@@Z 005c9240 f i BodyChangeDialog.obj
 0002:00091260       ??Eiterator@?$_Tree@V?$_Tmap_traits@EV?$basic_string@DU?$char_traits@D@std@@V?$allocator@D@2@@std@@U?$less@E@2@V?$allocator@U?$pair@$$CBEV?$basic_string@DU?$char_traits@D@std@@V?$allocator@D@2@@std@@@std@@@2@$0A@@std@@@std@@QAE?AV012@H@Z 005c9260 f i BodyChangeDialog.obj
 0002:00091280       ??R?$hash_compare@KU?$less@K@std@@@stdext@@QBEIABK@Z 005c9280 f i BodyChangeDialog.obj
 0002:000912a0       ??R?$less@K@std@@QBE_NABK0@Z 005c92a0 f i BodyChangeDialog.obj
 0002:000912c0       ?_Nextnode@?$list@U?$pair@$$CBKV?$list@UBodyChangeScript@CItemManager@@V?$allocator@UBodyChangeScript@CItemManager@@@std@@@std@@@std@@V?$allocator@U?$pair@$$CBKV?$list@UBodyChangeScript@CItemManager@@V?$allocator@UBodyChangeScript@CItemManager@@@std@@@std@@@std@@@2@@std@@KAAAPAU_Node@?$_List_nod@U?$pair@$$CBKV?$list@UBodyChangeScript@CItemManager@@V?$allocator@UBodyChangeScript@CItemManager@@@std@@@std@@@std@@V?$allocator@U?$pair@$$CBKV?$list@UBodyChangeScript@CItemManager@@V?$allocator@UBodyChangeScript@CItemManager@@@std@@@std@@@std@@@2@@2@PAU342@@Z 005c92c0 f i BodyChangeDialog.obj
 0002:000912d0       ?begin@?$vector@Viterator@?$list@U?$pair@$$CBKV?$list@UBodyChangeScript@CItemManager@@V?$allocator@UBodyChangeScript@CItemManager@@@std@@@std@@@std@@V?$allocator@U?$pair@$$CBKV?$list@UBodyChangeScript@CItemManager@@V?$allocator@UBodyChangeScript@CItemManager@@@std@@@std@@@std@@@2@@std@@V?$allocator@Viterator@?$list@U?$pair@$$CBKV?$list@UBodyChangeScript@CItemManager@@V?$allocator@UBodyChangeScript@CItemManager@@@std@@@std@@@std@@V?$allocator@U?$pair@$$CBKV?$list@UBodyChangeScript@CItemManager@@V?$allocator@UBodyChangeScript@CItemManager@@@std@@@std@@@std@@@2@@std@@@3@@std@@QBE?AVconst_iterator@12@XZ 005c92d0 f i BodyChangeDialog.obj
 0002:000912f0       ??0_Node@?$_Tree_nod@V?$_Tmap_traits@EV?$basic_string@DU?$char_traits@D@std@@V?$allocator@D@2@@std@@U?$less@E@2@V?$allocator@U?$pair@$$CBEV?$basic_string@DU?$char_traits@D@std@@V?$allocator@D@2@@std@@@std@@@2@$0A@@std@@@std@@QAE@PAU012@00ABU?$pair@$$CBEV?$basic_string@DU?$char_traits@D@std@@V?$allocator@D@2@@std@@@2@D@Z 005c92f0 f i BodyChangeDialog.obj
 0002:00091340       ??0_Node@?$_List_nod@UMenuText@CBodyChangeDialog@@V?$allocator@UMenuText@CBodyChangeDialog@@@std@@@std@@QAE@PAU012@0ABUMenuText@CBodyChangeDialog@@@Z 005c9340 f i BodyChangeDialog.obj
 0002:00091370       ??Dconst_iterator@?$vector@Viterator@?$list@U?$pair@$$CBKV?$list@UBodyChangeScript@CItemManager@@V?$allocator@UBodyChangeScript@CItemManager@@@std@@@std@@@std@@V?$allocator@U?$pair@$$CBKV?$list@UBodyChangeScript@CItemManager@@V?$allocator@UBodyChangeScript@CItemManager@@@std@@@std@@@std@@@2@@std@@V?$allocator@Viterator@?$list@U?$pair@$$CBKV?$list@UBodyChangeScript@CItemManager@@V?$allocator@UBodyChangeScript@CItemManager@@@std@@@std@@@std@@V?$allocator@U?$pair@$$CBKV?$list@UBodyChangeScript@CItemManager@@V?$allocator@UBodyChangeScript@CItemManager@@@std@@@std@@@std@@@2@@std@@@3@@std@@QBEABViterator@?$list@U?$pair@$$CBKV?$list@UBodyChangeScript@CItemManager@@V?$allocator@UBodyChangeScript@CItemManager@@@std@@@std@@@std@@V?$allocator@U?$pair@$$CBKV?$list@UBodyChangeScript@CItemManager@@V?$allocator@UBodyChangeScript@CItemManager@@@std@@@std@@@std@@@2@@2@XZ 005c9370 f i BodyChangeDialog.obj
 0002:00091380       ??Hconst_iterator@?$vector@Viterator@?$list@U?$pair@$$CBKV?$list@UBodyChangeScript@CItemManager@@V?$allocator@UBodyChangeScript@CItemManager@@@std@@@std@@@std@@V?$allocator@U?$pair@$$CBKV?$list@UBodyChangeScript@CItemManager@@V?$allocator@UBodyChangeScript@CItemManager@@@std@@@std@@@std@@@2@@std@@V?$allocator@Viterator@?$list@U?$pair@$$CBKV?$list@UBodyChangeScript@CItemManager@@V?$allocator@UBodyChangeScript@CItemManager@@@std@@@std@@@std@@V?$allocator@U?$pair@$$CBKV?$list@UBodyChangeScript@CItemManager@@V?$allocator@UBodyChangeScript@CItemManager@@@std@@@std@@@std@@@2@@std@@@3@@std@@QBE?AV012@H@Z 005c9380 f i BodyChangeDialog.obj
 0002:000913b0       ??0out_of_range@std@@QAE@ABV01@@Z 005c93b0 f i BodyChangeDialog.obj
 0002:000913d0       ??0?$pair@$$CBEV?$basic_string@DU?$char_traits@D@std@@V?$allocator@D@2@@std@@@std@@QAE@ABU01@@Z 005c93d0 f i BodyChangeDialog.obj
 0002:00091400       ??0MenuText@CBodyChangeDialog@@QAE@ABU01@@Z 005c9400 f i BodyChangeDialog.obj
 0002:00091440       ?_Erase@?$_Tree@V?$_Tmap_traits@EV?$basic_string@DU?$char_traits@D@std@@V?$allocator@D@2@@std@@U?$less@E@2@V?$allocator@U?$pair@$$CBEV?$basic_string@DU?$char_traits@D@std@@V?$allocator@D@2@@std@@@std@@@2@$0A@@std@@@std@@IAEXPAU_Node@?$_Tree_nod@V?$_Tmap_traits@EV?$basic_string@DU?$char_traits@D@std@@V?$allocator@D@2@@std@@U?$less@E@2@V?$allocator@U?$pair@$$CBEV?$basic_string@DU?$char_traits@D@std@@V?$allocator@D@2@@std@@@std@@@2@$0A@@std@@@2@@Z 005c9440 f i BodyChangeDialog.obj
 0002:000914d0       ??0?$_Tree_nod@V?$_Tmap_traits@EV?$basic_string@DU?$char_traits@D@std@@V?$allocator@D@2@@std@@U?$less@E@2@V?$allocator@U?$pair@$$CBEV?$basic_string@DU?$char_traits@D@std@@V?$allocator@D@2@@std@@@std@@@2@$0A@@std@@@std@@IAE@ABU?$less@E@1@V?$allocator@U?$pair@$$CBEV?$basic_string@DU?$char_traits@D@std@@V?$allocator@D@2@@std@@@std@@@1@@Z 005c94d0 f i BodyChangeDialog.obj
 0002:00091500       ?destroy@?$allocator@U_Node@?$_Tree_nod@V?$_Tmap_traits@EV?$basic_string@DU?$char_traits@D@std@@V?$allocator@D@2@@std@@U?$less@E@2@V?$allocator@U?$pair@$$CBEV?$basic_string@DU?$char_traits@D@std@@V?$allocator@D@2@@std@@@std@@@2@$0A@@std@@@std@@@std@@QAEXPAU_Node@?$_Tree_nod@V?$_Tmap_traits@EV?$basic_string@DU?$char_traits@D@std@@V?$allocator@D@2@@std@@U?$less@E@2@V?$allocator@U?$pair@$$CBEV?$basic_string@DU?$char_traits@D@std@@V?$allocator@D@2@@std@@@std@@@2@$0A@@std@@@2@@Z 005c9500 f i BodyChangeDialog.obj
 0002:00091520       ?construct@?$allocator@PAU_Node@?$_Tree_nod@V?$_Tmap_traits@EV?$basic_string@DU?$char_traits@D@std@@V?$allocator@D@2@@std@@U?$less@E@2@V?$allocator@U?$pair@$$CBEV?$basic_string@DU?$char_traits@D@std@@V?$allocator@D@2@@std@@@std@@@2@$0A@@std@@@std@@@std@@QAEXPAPAU_Node@?$_Tree_nod@V?$_Tmap_traits@EV?$basic_string@DU?$char_traits@D@std@@V?$allocator@D@2@@std@@U?$less@E@2@V?$allocator@U?$pair@$$CBEV?$basic_string@DU?$char_traits@D@std@@V?$allocator@D@2@@std@@@std@@@2@$0A@@std@@@2@ABQAU342@@Z 005c9520 f i BodyChangeDialog.obj
 0002:00091540       ?max_size@?$allocator@UMenuText@CBodyChangeDialog@@@std@@QBEIXZ 005c9540 f i BodyChangeDialog.obj
 0002:00091550       ??Eiterator@?$_Tree@V?$_Tmap_traits@EV?$basic_string@DU?$char_traits@D@std@@V?$allocator@D@2@@std@@U?$less@E@2@V?$allocator@U?$pair@$$CBEV?$basic_string@DU?$char_traits@D@std@@V?$allocator@D@2@@std@@@std@@@2@$0A@@std@@@std@@QAEAAV012@XZ 005c9550 f i BodyChangeDialog.obj
 0002:00091560       ??0const_iterator@?$vector@Viterator@?$list@U?$pair@$$CBKV?$list@UBodyChangeScript@CItemManager@@V?$allocator@UBodyChangeScript@CItemManager@@@std@@@std@@@std@@V?$allocator@U?$pair@$$CBKV?$list@UBodyChangeScript@CItemManager@@V?$allocator@UBodyChangeScript@CItemManager@@@std@@@std@@@std@@@2@@std@@V?$allocator@Viterator@?$list@U?$pair@$$CBKV?$list@UBodyChangeScript@CItemManager@@V?$allocator@UBodyChangeScript@CItemManager@@@std@@@std@@@std@@V?$allocator@U?$pair@$$CBKV?$list@UBodyChangeScript@CItemManager@@V?$allocator@UBodyChangeScript@CItemManager@@@std@@@std@@@std@@@2@@std@@@3@@std@@QAE@PAViterator@?$list@U?$pair@$$CBKV?$list@UBodyChangeScript@CItemManager@@V?$allocator@UBodyChangeScript@CItemManager@@@std@@@std@@@std@@V?$allocator@U?$pair@$$CBKV?$list@UBodyChangeScript@CItemManager@@V?$allocator@UBodyChangeScript@CItemManager@@@std@@@std@@@std@@@2@@2@@Z 005c9560 f i BodyChangeDialog.obj
 0002:00091570       ??Yconst_iterator@?$vector@Viterator@?$list@U?$pair@$$CBKV?$list@UBodyChangeScript@CItemManager@@V?$allocator@UBodyChangeScript@CItemManager@@@std@@@std@@@std@@V?$allocator@U?$pair@$$CBKV?$list@UBodyChangeScript@CItemManager@@V?$allocator@UBodyChangeScript@CItemManager@@@std@@@std@@@std@@@2@@std@@V?$allocator@Viterator@?$list@U?$pair@$$CBKV?$list@UBodyChangeScript@CItemManager@@V?$allocator@UBodyChangeScript@CItemManager@@@std@@@std@@@std@@V?$allocator@U?$pair@$$CBKV?$list@UBodyChangeScript@CItemManager@@V?$allocator@UBodyChangeScript@CItemManager@@@std@@@std@@@std@@@2@@std@@@3@@std@@QAEAAV012@H@Z 005c9570 f i BodyChangeDialog.obj
 0002:00091590       ??0?$_Tmap_traits@EV?$basic_string@DU?$char_traits@D@std@@V?$allocator@D@2@@std@@U?$less@E@2@V?$allocator@U?$pair@$$CBEV?$basic_string@DU?$char_traits@D@std@@V?$allocator@D@2@@std@@@std@@@2@$0A@@std@@QAE@U?$less@E@1@@Z 005c9590 f i BodyChangeDialog.obj
 0002:000915a0       ??$make_pair@EPBD@std@@YA?AU?$pair@EPBD@0@EPBD@Z 005c95a0 f i BodyChangeDialog.obj
 0002:000915c0       ??$?0EPBD@?$pair@$$CBEV?$basic_string@DU?$char_traits@D@std@@V?$allocator@D@2@@std@@@std@@QAE@ABU?$pair@EPBD@1@@Z 005c95c0 f i BodyChangeDialog.obj
 0002:000915f0       ??$?HDU?$char_traits@D@std@@V?$allocator@D@1@@std@@YA?AV?$basic_string@DU?$char_traits@D@std@@V?$allocator@D@2@@0@ABV10@PBD@Z 005c95f0 f i BodyChangeDialog.obj
 0002:00091690       ??$?HDU?$char_traits@D@std@@V?$allocator@D@1@@std@@YA?AV?$basic_string@DU?$char_traits@D@std@@V?$allocator@D@2@@0@ABV10@0@Z 005c9690 f i BodyChangeDialog.obj
 0002:00091730       ??$_Destroy@PAU_Node@?$_Tree_nod@V?$_Tmap_traits@EV?$basic_string@DU?$char_traits@D@std@@V?$allocator@D@2@@std@@U?$less@E@2@V?$allocator@U?$pair@$$CBEV?$basic_string@DU?$char_traits@D@std@@V?$allocator@D@2@@std@@@std@@@2@$0A@@std@@@std@@@std@@YAXPAPAU_Node@?$_Tree_nod@V?$_Tmap_traits@EV?$basic_string@DU?$char_traits@D@std@@V?$allocator@D@2@@std@@U?$less@E@2@V?$allocator@U?$pair@$$CBEV?$basic_string@DU?$char_traits@D@std@@V?$allocator@D@2@@std@@@std@@@2@$0A@@std@@@0@@Z 005c9730 f i BodyChangeDialog.obj
 0002:00091740       ??$?0UMenuText@CBodyChangeDialog@@@?$allocator@PAU_Node@?$_List_nod@UMenuText@CBodyChangeDialog@@V?$allocator@UMenuText@CBodyChangeDialog@@@std@@@std@@@std@@QAE@ABV?$allocator@UMenuText@CBodyChangeDialog@@@1@@Z 005c9740 f i BodyChangeDialog.obj
 0002:00091750       ??$_Allocate@U_Node@?$_List_nod@UMenuText@CBodyChangeDialog@@V?$allocator@UMenuText@CBodyChangeDialog@@@std@@@std@@@std@@YAPAU_Node@?$_List_nod@UMenuText@CBodyChangeDialog@@V?$allocator@UMenuText@CBodyChangeDialog@@@std@@@0@IPAU120@@Z 005c9750 f i BodyChangeDialog.obj
 0002:00091770       ??$_Construct@PAU_Node@?$_List_nod@UMenuText@CBodyChangeDialog@@V?$allocator@UMenuText@CBodyChangeDialog@@@std@@@std@@PAU123@@std@@YAXPAPAU_Node@?$_List_nod@UMenuText@CBodyChangeDialog@@V?$allocator@UMenuText@CBodyChangeDialog@@@std@@@0@ABQAU120@@Z 005c9770 f i BodyChangeDialog.obj
 0002:000917a0       ??$_Destroy@PAU_Node@?$_List_nod@UMenuText@CBodyChangeDialog@@V?$allocator@UMenuText@CBodyChangeDialog@@@std@@@std@@@std@@YAXPAPAU_Node@?$_List_nod@UMenuText@CBodyChangeDialog@@V?$allocator@UMenuText@CBodyChangeDialog@@@std@@@0@@Z 005c97a0 f i BodyChangeDialog.obj
 0002:000917b0       ??$swap@D@std@@YAXAAD0@Z   005c97b0 f i BodyChangeDialog.obj
 0002:000917d0       ??$?0U?$pair@$$CBEV?$basic_string@DU?$char_traits@D@std@@V?$allocator@D@2@@std@@@std@@@?$allocator@PAU_Node@?$_Tree_nod@V?$_Tmap_traits@EV?$basic_string@DU?$char_traits@D@std@@V?$allocator@D@2@@std@@U?$less@E@2@V?$allocator@U?$pair@$$CBEV?$basic_string@DU?$char_traits@D@std@@V?$allocator@D@2@@std@@@std@@@2@$0A@@std@@@std@@@std@@QAE@ABV?$allocator@U?$pair@$$CBEV?$basic_string@DU?$char_traits@D@std@@V?$allocator@D@2@@std@@@std@@@1@@Z 005c97d0 f i BodyChangeDialog.obj
 0002:000917e0       ??$_Allocate@U_Node@?$_Tree_nod@V?$_Tmap_traits@EV?$basic_string@DU?$char_traits@D@std@@V?$allocator@D@2@@std@@U?$less@E@2@V?$allocator@U?$pair@$$CBEV?$basic_string@DU?$char_traits@D@std@@V?$allocator@D@2@@std@@@std@@@2@$0A@@std@@@std@@@std@@YAPAU_Node@?$_Tree_nod@V?$_Tmap_traits@EV?$basic_string@DU?$char_traits@D@std@@V?$allocator@D@2@@std@@U?$less@E@2@V?$allocator@U?$pair@$$CBEV?$basic_string@DU?$char_traits@D@std@@V?$allocator@D@2@@std@@@std@@@2@$0A@@std@@@0@IPAU120@@Z 005c97e0 f i BodyChangeDialog.obj
 0002:00091800       ??$?0UMenuText@CBodyChangeDialog@@@?$allocator@U_Node@?$_List_nod@UMenuText@CBodyChangeDialog@@V?$allocator@UMenuText@CBodyChangeDialog@@@std@@@std@@@std@@QAE@ABV?$allocator@UMenuText@CBodyChangeDialog@@@1@@Z 005c9800 f i BodyChangeDialog.obj
 0002:00091810       ??$_Destroy@U_Node@?$_List_nod@UMenuText@CBodyChangeDialog@@V?$allocator@UMenuText@CBodyChangeDialog@@@std@@@std@@@std@@YAXPAU_Node@?$_List_nod@UMenuText@CBodyChangeDialog@@V?$allocator@UMenuText@CBodyChangeDialog@@@std@@@0@@Z 005c9810 f i BodyChangeDialog.obj
 0002:00091820       ??$hash_value@K@stdext@@YAIABK@Z 005c9820 f i BodyChangeDialog.obj
 0002:00091830       ??$?0U?$pair@$$CBEV?$basic_string@DU?$char_traits@D@std@@V?$allocator@D@2@@std@@@std@@@?$allocator@U_Node@?$_Tree_nod@V?$_Tmap_traits@EV?$basic_string@DU?$char_traits@D@std@@V?$allocator@D@2@@std@@U?$less@E@2@V?$allocator@U?$pair@$$CBEV?$basic_string@DU?$char_traits@D@std@@V?$allocator@D@2@@std@@@std@@@2@$0A@@std@@@std@@@std@@QAE@ABV?$allocator@U?$pair@$$CBEV?$basic_string@DU?$char_traits@D@std@@V?$allocator@D@2@@std@@@std@@@1@@Z 005c9830 f i BodyChangeDialog.obj
 0002:00091840       ??$_Destroy@U_Node@?$_Tree_nod@V?$_Tmap_traits@EV?$basic_string@DU?$char_traits@D@std@@V?$allocator@D@2@@std@@U?$less@E@2@V?$allocator@U?$pair@$$CBEV?$basic_string@DU?$char_traits@D@std@@V?$allocator@D@2@@std@@@std@@@2@$0A@@std@@@std@@@std@@YAXPAU_Node@?$_Tree_nod@V?$_Tmap_traits@EV?$basic_string@DU?$char_traits@D@std@@V?$allocator@D@2@@std@@U?$less@E@2@V?$allocator@U?$pair@$$CBEV?$basic_string@DU?$char_traits@D@std@@V?$allocator@D@2@@std@@@std@@@2@$0A@@std@@@0@@Z 005c9840 f i BodyChangeDialog.obj
 0002:00091850       ??$_Construct@PAU_Node@?$_Tree_nod@V?$_Tmap_traits@EV?$basic_string@DU?$char_traits@D@std@@V?$allocator@D@2@@std@@U?$less@E@2@V?$allocator@U?$pair@$$CBEV?$basic_string@DU?$char_traits@D@std@@V?$allocator@D@2@@std@@@std@@@2@$0A@@std@@@std@@PAU123@@std@@YAXPAPAU_Node@?$_Tree_nod@V?$_Tmap_traits@EV?$basic_string@DU?$char_traits@D@std@@V?$allocator@D@2@@std@@U?$less@E@2@V?$allocator@U?$pair@$$CBEV?$basic_string@DU?$char_traits@D@std@@V?$allocator@D@2@@std@@@std@@@2@$0A@@std@@@0@ABQAU120@@Z 005c9850 f i BodyChangeDialog.obj
 0002:00091880       ??_G_Node@?$_List_nod@UMenuText@CBodyChangeDialog@@V?$allocator@UMenuText@CBodyChangeDialog@@@std@@@std@@QAEPAXI@Z 005c9880 f i BodyChangeDialog.obj
 0002:000918b0       ??_G_Node@?$_Tree_nod@V?$_Tmap_traits@EV?$basic_string@DU?$char_traits@D@std@@V?$allocator@D@2@@std@@U?$less@E@2@V?$allocator@U?$pair@$$CBEV?$basic_string@DU?$char_traits@D@std@@V?$allocator@D@2@@std@@@std@@@2@$0A@@std@@@std@@QAEPAXI@Z 005c98b0 f i BodyChangeDialog.obj
 0002:000918e0       ??1_Node@?$_List_nod@UMenuText@CBodyChangeDialog@@V?$allocator@UMenuText@CBodyChangeDialog@@@std@@@std@@QAE@XZ 005c98e0 f i BodyChangeDialog.obj
 0002:000918f0       ??1_Node@?$_Tree_nod@V?$_Tmap_traits@EV?$basic_string@DU?$char_traits@D@std@@V?$allocator@D@2@@std@@U?$less@E@2@V?$allocator@U?$pair@$$CBEV?$basic_string@DU?$char_traits@D@std@@V?$allocator@D@2@@std@@@std@@@2@$0A@@std@@@std@@QAE@XZ 005c98f0 f i BodyChangeDialog.obj
 0002:00091900       ??Y?$basic_string@DU?$char_traits@D@std@@V?$allocator@D@2@@std@@QAEAAV01@ABV01@@Z 005c9900 f i BodyChangeDialog.obj
 0002:00091910       ??Y?$basic_string@DU?$char_traits@D@std@@V?$allocator@D@2@@std@@QAEAAV01@PBD@Z 005c9910 f i BodyChangeDialog.obj
 0002:00091920       ??0?$pair@EPBD@std@@QAE@ABEABQBD@Z 005c9920 f i BodyChangeDialog.obj
 0002:00091940       ?append@?$basic_string@DU?$char_traits@D@std@@V?$allocator@D@2@@std@@QAEAAV12@ABV12@@Z 005c9940 f i BodyChangeDialog.obj
 0002:00091960       ?append@?$basic_string@DU?$char_traits@D@std@@V?$allocator@D@2@@std@@QAEAAV12@PBD@Z 005c9960 f i BodyChangeDialog.obj
 0002:00091990       ?append@?$basic_string@DU?$char_traits@D@std@@V?$allocator@D@2@@std@@QAEAAV12@ABV12@II@Z 005c9990 f i BodyChangeDialog.obj
 0002:00091a50       ?append@?$basic_string@DU?$char_traits@D@std@@V?$allocator@D@2@@std@@QAEAAV12@PBDI@Z 005c9a50 f i BodyChangeDialog.obj
 0002:00091b00       ?SetImageRGB@cMultiLineText@@QAEXK@Z 005c9b00 f i DealDialog.obj
 0002:00091b10       ?SetToolTipImageRGB@cWindow@@QAEXK@Z 005c9b10 f i DealDialog.obj
 0002:00091b20       ?GetCurTabNum@cTabDialog@@QAEEXZ 005c9b20 f i DealDialog.obj
 0002:00091b30       ?SetData@cIcon@@QAEXK@Z    005c9b30 f i DealDialog.obj
 0002:00091b40       ?SetItemIdx@CDealItem@@QAEXK@Z 005c9b40 f i DealDialog.obj
 0002:00091b50       ?GetItemIdx@CDealItem@@QAEKXZ 005c9b50 f i DealDialog.obj
 0002:00091b60       ?GetMoney@CHero@@QAEKXZ    005c9b60 f i DealDialog.obj
 0002:00091b70       ?GetCurSelCellPos@cIconGridDialog@@QAEJXZ 005c9b70 f i DealDialog.obj
 0002:00091b80       ?GetPrevPos@CInventoryExDialog@@QAEPAUVECTOR2@@XZ 005c9b80 f i DealDialog.obj
 0002:00091b90       ?GetFishPoint@CFishingManager@@QAEKXZ 005c9b90 f i DealDialog.obj
 0002:00091ba0       ??0MSG_ITEM_SELL_SYN@@QAE@XZ 005c9ba0 f i DealDialog.obj
 0002:00091bb0       ??0MSG_ITEM_BUY_SYN@@QAE@XZ 005c9bb0 f i DealDialog.obj
 0002:00091bc0       ?Add@CDealDialog@@UAEXPAVcWindow@@@Z 005c9bc0 f   DealDialog.obj
 0002:00091c30       ?HideDealer@CDealDialog@@QAEXXZ 005c9c30 f   DealDialog.obj
 0002:00091d60       ?Linking@CDealDialog@@QAEXXZ 005c9d60 f   DealDialog.obj
 0002:00091db0       ?Render@CDealDialog@@UAEXXZ 005c9db0 f   DealDialog.obj
 0002:00091dd0       ?SetMoney@CDealDialog@@QAEXKE@Z 005c9dd0 f   DealDialog.obj
 0002:00091e50       ?OnFakeSellItem@CDealDialog@@SAXJPAXK00@Z 005c9e50 f   DealDialog.obj
 0002:00091fb0       ?OnCancelSellItem@CDealDialog@@SAXJPAXK00@Z 005c9fb0 f   DealDialog.obj
 0002:00091fd0       ?SendSellItemMsg@CDealDialog@@QAEXXZ 005c9fd0 f   DealDialog.obj
 0002:000920a0       ?OnSellPushed@CDealDialog@@QAEXXZ 005ca0a0 f   DealDialog.obj
 0002:00092100       ?OnFakeBuyItem@CDealDialog@@SAXJPAXK00@Z 005ca100 f   DealDialog.obj
 0002:00092230       ?OnCancelBuyItem@CDealDialog@@SAXJPAXK00@Z 005ca230 f   DealDialog.obj
 0002:00092250       ?SendBuyItemMsg@CDealDialog@@QAEXXZ 005ca250 f   DealDialog.obj
 0002:00092270       ?CancelBuyItem@CDealDialog@@QAEXXZ 005ca270 f   DealDialog.obj
 0002:00092290       ?FakeBuyItem@CDealDialog@@QAEXJJPAVCDealItem@@@Z 005ca290 f   DealDialog.obj
 0002:000925f0       ?SetActive@CDealDialog@@UAEXH@Z 005ca5f0 f   DealDialog.obj
 0002:00092670       ?ShowDealDialog@CDealDialog@@QAEXH@Z 005ca670 f   DealDialog.obj
 0002:00092750       ??0?$cLinkedList@UDealerItem@@@@QAE@XZ 005ca750 f i DealDialog.obj
 0002:00092770       ?AddTail@?$cLinkedList@UDealerItem@@@@QAEXPAUDealerItem@@@Z 005ca770 f i DealDialog.obj
 0002:000927d0       ?GetFirstPos@?$cLinkedList@UDealerItem@@@@QAEPAXXZ 005ca7d0 f i DealDialog.obj
 0002:000927e0       ?GetNextPos@?$cLinkedList@UDealerItem@@@@QAEPAUDealerItem@@AAPAX@Z 005ca7e0 f i DealDialog.obj
 0002:00092800       ?DeleteAll@?$cLinkedList@UDealerItem@@@@QAEXXZ 005ca800 f i DealDialog.obj
 0002:00092850       ?Initialize@?$CYHHashTable@UDealerData@@@@QAE_NK@Z 005ca850 f i DealDialog.obj
 0002:000928e0       ?GetData@?$CYHHashTable@UDealerData@@@@QAEPAUDealerData@@K@Z 005ca8e0 f i DealDialog.obj
 0002:00092920       ?GetData@?$CYHHashTable@UDealerData@@@@QAEPAUDealerData@@XZ 005ca920 f i DealDialog.obj
 0002:00092940       ?SetPositionHead@?$CYHHashTable@UDealerData@@@@QAEXXZ 005ca940 f i DealDialog.obj
 0002:00092950       ?RemoveAll@?$CYHHashTable@UDealerData@@@@QAEXXZ 005ca950 f i DealDialog.obj
 0002:000929d0       ??0?$CYHHashTable@UDealerData@@@@QAE@XZ 005ca9d0 f i DealDialog.obj
 0002:000929f0       ??1?$CYHHashTable@UDealerData@@@@QAE@XZ 005ca9f0 f i DealDialog.obj
 0002:00092a20       ?AddList@?$CYHHashTable@UDealerData@@@@QAEPAULIST@1@PAUBUCKET@1@@Z 005caa20 f i DealDialog.obj
 0002:00092a80       ??0BUCKET@?$CYHHashTable@UDealerData@@@@QAE@PAUDealerData@@K@Z 005caa80 f i DealDialog.obj
 0002:00092aa0       ??0CDealDialog@@QAE@XZ     005caaa0 f   DealDialog.obj
 0002:00092b60       ?ShowDealer@CDealDialog@@QAEXG@Z 005cab60 f   DealDialog.obj
 0002:00092fb0       ?OnSelectedItem@CDealDialog@@QAEXXZ 005cafb0 f   DealDialog.obj
 0002:000930d0       ?SellItem@CDealDialog@@QAEXPAVCItem@@@Z 005cb0d0 f   DealDialog.obj
 0002:00093380       ?FakeMoveIcon@CDealDialog@@UAEHJJPAVcIcon@@@Z 005cb380 f   DealDialog.obj
 0002:00093650       ?OnBuyPushed@CDealDialog@@QAEXXZ 005cb650 f   DealDialog.obj
 0002:000936e0       ?OnActionEvnet@CDealDialog@@QAEXJPAXK@Z 005cb6e0 f   DealDialog.obj
 0002:00093700       ??1?$cLinkedList@UDealerItem@@@@UAE@XZ 005cb700 f i DealDialog.obj
 0002:00093710       ?Add@?$CYHHashTable@UDealerData@@@@QAE_NPAUDealerData@@K@Z 005cb710 f i DealDialog.obj
 0002:000937f0       ??_E?$cLinkedList@UDealerItem@@@@UAEPAXI@Z 005cb7f0 f i DealDialog.obj
 0002:000937f0       ??_G?$cLinkedList@UDealerItem@@@@UAEPAXI@Z 005cb7f0 f i DealDialog.obj
 0002:00093820       ??0DealerData@@QAE@XZ      005cb820 f i DealDialog.obj
 0002:00093840       ??1DealerData@@QAE@XZ      005cb840 f i DealDialog.obj
 0002:00093850       ?LoadDealerItem@CDealDialog@@QAEXPAVCMHFile@@@Z 005cb850 f   DealDialog.obj
 0002:00093b80       ??_GDealerData@@QAEPAXI@Z  005cbb80 f i DealDialog.obj
 0002:00093bb0       ?Release@CDealDialog@@QAEXXZ 005cbbb0 f   DealDialog.obj
 0002:00093c60       ??1CDealDialog@@UAE@XZ     005cbc60 f   DealDialog.obj
 0002:00093cb0       ??_GCDealDialog@@UAEPAXI@Z 005cbcb0 f i DealDialog.obj
 0002:00093cb0       ??_ECDealDialog@@UAEPAXI@Z 005cbcb0 f i DealDialog.obj
 0002:00093ce0       ??0CDealItem@@QAE@XZ       005cbce0 f   DealItem.obj
 0002:00093d00       ??1CDealItem@@UAE@XZ       005cbd00 f   DealItem.obj
 0002:00093d10       ?GetSellPrice@CDealItem@@QAEKXZ 005cbd10 f   DealItem.obj
 0002:00093d40       ?GetBuyPrice@CDealItem@@QAEKXZ 005cbd40 f   DealItem.obj
 0002:00093d70       ?GetBuyFishPoint@CDealItem@@QAEKXZ 005cbd70 f   DealItem.obj
 0002:00093da0       ?GetItemName@CDealItem@@QAEPADXZ 005cbda0 f   DealItem.obj
 0002:00093dd0       ??_GCDealItem@@UAEPAXI@Z   005cbdd0 f i DealItem.obj
 0002:00093dd0       ??_ECDealItem@@UAEPAXI@Z   005cbdd0 f i DealItem.obj
 0002:00093e00       ??0CDissolveDialog@@QAE@XZ 005cbe00 f   DissolveDialog.obj
 0002:00093ff0       ??_ECDissolveDialog@@UAEPAXI@Z 005cbff0 f i DissolveDialog.obj
 0002:00093ff0       ??_GCDissolveDialog@@UAEPAXI@Z 005cbff0 f i DissolveDialog.obj
 0002:00094020       ??0MSG_ITEM_DISSOLVE_SYN@@QAE@XZ 005cc020 f i DissolveDialog.obj
 0002:00094030       ??1CDissolveDialog@@UAE@XZ 005cc030 f   DissolveDialog.obj
 0002:00094100       ?Linking@CDissolveDialog@@QAEXXZ 005cc100 f   DissolveDialog.obj
 0002:000943a0       ?GetCellNum@cIconGridDialog@@QAEGXZ 005cc3a0 f i DissolveDialog.obj
 0002:000943c0       ?OnActionEvent@CDissolveDialog@@UAEXJPAXK@Z 005cc3c0 f   DissolveDialog.obj
 0002:00094410       ?FakeMoveIcon@CDissolveDialog@@UAEHJJPAVcIcon@@@Z 005cc410 f   DissolveDialog.obj
 0002:000945b0       ?AddItem@CDissolveDialog@@AAEXPAVCItem@@@Z 005cc5b0 f   DissolveDialog.obj
 0002:000947d0       ?SetIconType@cIcon@@QAEXK@Z 005cc7d0 f i DissolveDialog.obj
 0002:000947e0       ?RemoveItem@CDissolveDialog@@AAEXXZ 005cc7e0 f   DissolveDialog.obj
 0002:000948b0       ?AddResult@CDissolveDialog@@AAEXK@Z 005cc8b0 f   DissolveDialog.obj
 0002:00094d50       ?SetBasicImage@cWindow@@QAEXPAVcImage@@@Z 005ccd50 f i DissolveDialog.obj
 0002:00094d80       ?SetCurSelCellPos@cIconGridDialog@@QAEXJ@Z 005ccd80 f i DissolveDialog.obj
 0002:00094d90       ?RemoveResult@CDissolveDialog@@AAEXXZ 005ccd90 f   DissolveDialog.obj
 0002:00094e50       ?Submit@CDissolveDialog@@AAEXH@Z 005cce50 f   DissolveDialog.obj
 0002:00095510       ?Get_HeroExtendedInvenCount@CHero@@QAEEXZ 005cd510 f i DissolveDialog.obj
 0002:00095520       ??1?$map@KUSlot@MSG_ITEM_DISSOLVE_SYN@@U?$less@K@std@@V?$allocator@U?$pair@$$CBKUSlot@MSG_ITEM_DISSOLVE_SYN@@@std@@@4@@std@@QAE@XZ 005cd520 f i DissolveDialog.obj
 0002:00095530       ?EndDissolution@CDissolveDialog@@QAEXH@Z 005cd530 f   DissolveDialog.obj
 0002:00095550       ?SetActiveRecursive@CDissolveDialog@@UAEXH@Z 005cd550 f   DissolveDialog.obj
 0002:00095690       ?Release@CDissolveDialog@@AAEXXZ 005cd690 f   DissolveDialog.obj
 0002:00095740       ?Add@CDissolveDialog@@UAEXPAVcWindow@@@Z 005cd740 f   DissolveDialog.obj
 0002:000957e0       ?SetDragOverIconType@cIconGridDialog@@QAEXH@Z 005cd7e0 f i DissolveDialog.obj
 0002:000957f0       ?Render@CDissolveDialog@@UAEXXZ 005cd7f0 f   DissolveDialog.obj
 0002:00095810       ?SetActive@CDissolveDialog@@UAEXH@Z 005cd810 f   DissolveDialog.obj
 0002:00095d40       ?Succeed@CDissolveDialog@@QAEXABUMSG_ITEM_DISSOLVE_ACK@@@Z 005cdd40 f   DissolveDialog.obj
 0002:00095fe0       ??1?$map@PBUITEM_INFO@@KU?$less@PBUITEM_INFO@@@std@@V?$allocator@U?$pair@QBUITEM_INFO@@K@std@@@3@@std@@QAE@XZ 005cdfe0 f i DissolveDialog.obj
 0002:00095ff0       ?Fail@CDissolveDialog@@QAEXXZ 005cdff0 f   DissolveDialog.obj
 0002:00096000       ?Restore@CDissolveDialog@@QAEXXZ 005ce000 f   DissolveDialog.obj
 0002:00096050       ?Send@CDissolveDialog@@QAEXXZ 005ce050 f   DissolveDialog.obj
 0002:000961e0       ??0MSG_ITEM_DISSOLVE_SYN2@@QAE@XZ 005ce1e0 f i DissolveDialog.obj
 0002:000961f0       ??0?$vector@PAVcIconGridDialog@@V?$allocator@PAVcIconGridDialog@@@std@@@std@@QAE@XZ 005ce1f0 f i DissolveDialog.obj
 0002:00096220       ??1?$vector@PAVcIconGridDialog@@V?$allocator@PAVcIconGridDialog@@@std@@@std@@QAE@XZ 005ce220 f i DissolveDialog.obj
 0002:00096230       ?reserve@?$vector@PAVcIconGridDialog@@V?$allocator@PAVcIconGridDialog@@@std@@@std@@QAEXI@Z 005ce230 f i DissolveDialog.obj
 0002:00096380       ?begin@?$vector@PAVcIconGridDialog@@V?$allocator@PAVcIconGridDialog@@@std@@@std@@QAE?AViterator@12@XZ 005ce380 f i DissolveDialog.obj
 0002:000963a0       ?end@?$vector@PAVcIconGridDialog@@V?$allocator@PAVcIconGridDialog@@@std@@@std@@QAE?AViterator@12@XZ 005ce3a0 f i DissolveDialog.obj
 0002:000963c0       ?size@?$vector@PAVcIconGridDialog@@V?$allocator@PAVcIconGridDialog@@@std@@@std@@QBEIXZ 005ce3c0 f i DissolveDialog.obj
 0002:000963e0       ??A?$vector@PAVcIconGridDialog@@V?$allocator@PAVcIconGridDialog@@@std@@@std@@QAEAAPAVcIconGridDialog@@I@Z 005ce3e0 f i DissolveDialog.obj
 0002:00096410       ?push_back@?$vector@PAVcIconGridDialog@@V?$allocator@PAVcIconGridDialog@@@std@@@std@@QAEXABQAVcIconGridDialog@@@Z 005ce410 f i DissolveDialog.obj
 0002:00096490       ?clear@?$vector@PAVcIconGridDialog@@V?$allocator@PAVcIconGridDialog@@@std@@@std@@QAEXXZ 005ce490 f i DissolveDialog.obj
 0002:000964a0       ??0?$vector@PAVCItemShow@@V?$allocator@PAVCItemShow@@@std@@@std@@QAE@XZ 005ce4a0 f i DissolveDialog.obj
 0002:000964d0       ??1?$vector@PAVCItemShow@@V?$allocator@PAVCItemShow@@@std@@@std@@QAE@XZ 005ce4d0 f i DissolveDialog.obj
 0002:000964e0       ?reserve@?$vector@PAVCItemShow@@V?$allocator@PAVCItemShow@@@std@@@std@@QAEXI@Z 005ce4e0 f i DissolveDialog.obj
 0002:00096630       ?begin@?$vector@PAVCItemShow@@V?$allocator@PAVCItemShow@@@std@@@std@@QAE?AViterator@12@XZ 005ce630 f i DissolveDialog.obj
 0002:00096650       ?end@?$vector@PAVCItemShow@@V?$allocator@PAVCItemShow@@@std@@@std@@QAE?AViterator@12@XZ 005ce650 f i DissolveDialog.obj
 0002:00096670       ?size@?$vector@PAVCItemShow@@V?$allocator@PAVCItemShow@@@std@@@std@@QBEIXZ 005ce670 f i DissolveDialog.obj
 0002:00096690       ?empty@?$vector@PAVCItemShow@@V?$allocator@PAVCItemShow@@@std@@@std@@QBE_NXZ 005ce690 f i DissolveDialog.obj
 0002:000966a0       ??A?$vector@PAVCItemShow@@V?$allocator@PAVCItemShow@@@std@@@std@@QAEAAPAVCItemShow@@I@Z 005ce6a0 f i DissolveDialog.obj
 0002:000966d0       ?push_back@?$vector@PAVCItemShow@@V?$allocator@PAVCItemShow@@@std@@@std@@QAEXABQAVCItemShow@@@Z 005ce6d0 f i DissolveDialog.obj
 0002:00096750       ?begin@?$list@UResult@DissolveScript@@V?$allocator@UResult@DissolveScript@@@std@@@std@@QBE?AVconst_iterator@12@XZ 005ce750 f i DissolveDialog.obj
 0002:00096780       ?end@?$list@UResult@DissolveScript@@V?$allocator@UResult@DissolveScript@@@std@@@std@@QBE?AVconst_iterator@12@XZ 005ce780 f i DissolveDialog.obj
 0002:000967a0       ?begin@?$_Tree@V?$_Tmap_traits@KUResult@DissolveScript@@U?$less@K@std@@V?$allocator@U?$pair@$$CBKUResult@DissolveScript@@@std@@@4@$0A@@std@@@std@@QBE?AVconst_iterator@12@XZ 005ce7a0 f i DissolveDialog.obj
 0002:000967c0       ?end@?$_Tree@V?$_Tmap_traits@KUResult@DissolveScript@@U?$less@K@std@@V?$allocator@U?$pair@$$CBKUResult@DissolveScript@@@std@@@4@$0A@@std@@@std@@QBE?AVconst_iterator@12@XZ 005ce7c0 f i DissolveDialog.obj
 0002:000967e0       ?empty@?$_Tree@V?$_Tmap_traits@KUResult@DissolveScript@@U?$less@K@std@@V?$allocator@U?$pair@$$CBKUResult@DissolveScript@@@std@@@4@$0A@@std@@@std@@QBE_NXZ 005ce7e0 f i DissolveDialog.obj
 0002:000967f0       ??Dconst_iterator@?$vector@PAVcIconGridDialog@@V?$allocator@PAVcIconGridDialog@@@std@@@std@@QBEABQAVcIconGridDialog@@XZ 005ce7f0 f i DissolveDialog.obj
 0002:00096800       ??Econst_iterator@?$vector@PAVcIconGridDialog@@V?$allocator@PAVcIconGridDialog@@@std@@@std@@QAEAAV012@XZ 005ce800 f i DissolveDialog.obj
 0002:00096810       ??9const_iterator@?$vector@PAVcIconGridDialog@@V?$allocator@PAVcIconGridDialog@@@std@@@std@@QBE_NABV012@@Z 005ce810 f i DissolveDialog.obj
 0002:00096830       ??Diterator@?$vector@PAVcIconGridDialog@@V?$allocator@PAVcIconGridDialog@@@std@@@std@@QBEAAPAVcIconGridDialog@@XZ 005ce830 f i DissolveDialog.obj
 0002:00096840       ??Eiterator@?$vector@PAVcIconGridDialog@@V?$allocator@PAVcIconGridDialog@@@std@@@std@@QAEAAV012@XZ 005ce840 f i DissolveDialog.obj
 0002:00096850       ??Dconst_iterator@?$list@UResult@DissolveScript@@V?$allocator@UResult@DissolveScript@@@std@@@std@@QBEABUResult@DissolveScript@@XZ 005ce850 f i DissolveDialog.obj
 0002:00096860       ??Econst_iterator@?$list@UResult@DissolveScript@@V?$allocator@UResult@DissolveScript@@@std@@@std@@QAEAAV012@XZ 005ce860 f i DissolveDialog.obj
 0002:00096880       ??9const_iterator@?$list@UResult@DissolveScript@@V?$allocator@UResult@DissolveScript@@@std@@@std@@QBE_NABV012@@Z 005ce880 f i DissolveDialog.obj
 0002:000968a0       ??Cconst_iterator@?$_Tree@V?$_Tmap_traits@KUResult@DissolveScript@@U?$less@K@std@@V?$allocator@U?$pair@$$CBKUResult@DissolveScript@@@std@@@4@$0A@@std@@@std@@QBEPBU?$pair@$$CBKUResult@DissolveScript@@@2@XZ 005ce8a0 f i DissolveDialog.obj
 0002:000968b0       ??Econst_iterator@?$_Tree@V?$_Tmap_traits@KUResult@DissolveScript@@U?$less@K@std@@V?$allocator@U?$pair@$$CBKUResult@DissolveScript@@@std@@@4@$0A@@std@@@std@@QAEAAV012@XZ 005ce8b0 f i DissolveDialog.obj
 0002:000968c0       ??9const_iterator@?$_Tree@V?$_Tmap_traits@KUResult@DissolveScript@@U?$less@K@std@@V?$allocator@U?$pair@$$CBKUResult@DissolveScript@@@std@@@4@$0A@@std@@@std@@QBE_NABV012@@Z 005ce8c0 f i DissolveDialog.obj
 0002:000968e0       ??0?$map@KUSlot@MSG_ITEM_DISSOLVE_SYN@@U?$less@K@std@@V?$allocator@U?$pair@$$CBKUSlot@MSG_ITEM_DISSOLVE_SYN@@@std@@@4@@std@@QAE@XZ 005ce8e0 f i DissolveDialog.obj
 0002:00096910       ??A?$map@KUSlot@MSG_ITEM_DISSOLVE_SYN@@U?$less@K@std@@V?$allocator@U?$pair@$$CBKUSlot@MSG_ITEM_DISSOLVE_SYN@@@std@@@4@@std@@QAEAAUSlot@MSG_ITEM_DISSOLVE_SYN@@ABK@Z 005ce910 f i DissolveDialog.obj
 0002:000969d0       ??1?$_Tree@V?$_Tmap_traits@KUSlot@MSG_ITEM_DISSOLVE_SYN@@U?$less@K@std@@V?$allocator@U?$pair@$$CBKUSlot@MSG_ITEM_DISSOLVE_SYN@@@std@@@4@$0A@@std@@@std@@QAE@XZ 005ce9d0 f i DissolveDialog.obj
 0002:000969e0       ?begin@?$_Tree@V?$_Tmap_traits@KUSlot@MSG_ITEM_DISSOLVE_SYN@@U?$less@K@std@@V?$allocator@U?$pair@$$CBKUSlot@MSG_ITEM_DISSOLVE_SYN@@@std@@@4@$0A@@std@@@std@@QAE?AViterator@12@XZ 005ce9e0 f i DissolveDialog.obj
 0002:00096a00       ?end@?$_Tree@V?$_Tmap_traits@KUSlot@MSG_ITEM_DISSOLVE_SYN@@U?$less@K@std@@V?$allocator@U?$pair@$$CBKUSlot@MSG_ITEM_DISSOLVE_SYN@@@std@@@4@$0A@@std@@@std@@QAE?AViterator@12@XZ 005cea00 f i DissolveDialog.obj
 0002:00096a20       ?find@?$_Tree@V?$_Tmap_traits@KUSlot@MSG_ITEM_DISSOLVE_SYN@@U?$less@K@std@@V?$allocator@U?$pair@$$CBKUSlot@MSG_ITEM_DISSOLVE_SYN@@@std@@@4@$0A@@std@@@std@@QAE?AViterator@12@ABK@Z 005cea20 f i DissolveDialog.obj
 0002:00096ac0       ??Citerator@?$_Tree@V?$_Tmap_traits@KUSlot@MSG_ITEM_DISSOLVE_SYN@@U?$less@K@std@@V?$allocator@U?$pair@$$CBKUSlot@MSG_ITEM_DISSOLVE_SYN@@@std@@@4@$0A@@std@@@std@@QBEPAU?$pair@$$CBKUSlot@MSG_ITEM_DISSOLVE_SYN@@@2@XZ 005ceac0 f i DissolveDialog.obj
 0002:00096ad0       ??Eiterator@?$_Tree@V?$_Tmap_traits@KUSlot@MSG_ITEM_DISSOLVE_SYN@@U?$less@K@std@@V?$allocator@U?$pair@$$CBKUSlot@MSG_ITEM_DISSOLVE_SYN@@@std@@@4@$0A@@std@@@std@@QAEAAV012@XZ 005cead0 f i DissolveDialog.obj
 0002:00096ae0       ??9const_iterator@?$_Tree@V?$_Tmap_traits@KUSlot@MSG_ITEM_DISSOLVE_SYN@@U?$less@K@std@@V?$allocator@U?$pair@$$CBKUSlot@MSG_ITEM_DISSOLVE_SYN@@@std@@@4@$0A@@std@@@std@@QBE_NABV012@@Z 005ceae0 f i DissolveDialog.obj
 0002:00096b00       ??Diterator@?$vector@PAVCItemShow@@V?$allocator@PAVCItemShow@@@std@@@std@@QBEAAPAVCItemShow@@XZ 005ceb00 f i DissolveDialog.obj
 0002:00096b10       ??Eiterator@?$vector@PAVCItemShow@@V?$allocator@PAVCItemShow@@@std@@@std@@QAEAAV012@XZ 005ceb10 f i DissolveDialog.obj
 0002:00096b20       ??9const_iterator@?$vector@PAVCItemShow@@V?$allocator@PAVCItemShow@@@std@@@std@@QBE_NABV012@@Z 005ceb20 f i DissolveDialog.obj
 0002:00096b40       ??0?$map@PBUITEM_INFO@@KU?$less@PBUITEM_INFO@@@std@@V?$allocator@U?$pair@QBUITEM_INFO@@K@std@@@3@@std@@QAE@XZ 005ceb40 f i DissolveDialog.obj
 0002:00096b70       ??A?$map@PBUITEM_INFO@@KU?$less@PBUITEM_INFO@@@std@@V?$allocator@U?$pair@QBUITEM_INFO@@K@std@@@3@@std@@QAEAAKABQBUITEM_INFO@@@Z 005ceb70 f i DissolveDialog.obj
 0002:00096c30       ??1?$_Tree@V?$_Tmap_traits@PBUITEM_INFO@@KU?$less@PBUITEM_INFO@@@std@@V?$allocator@U?$pair@QBUITEM_INFO@@K@std@@@3@$0A@@std@@@std@@QAE@XZ 005cec30 f i DissolveDialog.obj
 0002:00096c40       ?begin@?$_Tree@V?$_Tmap_traits@PBUITEM_INFO@@KU?$less@PBUITEM_INFO@@@std@@V?$allocator@U?$pair@QBUITEM_INFO@@K@std@@@3@$0A@@std@@@std@@QAE?AViterator@12@XZ 005cec40 f i DissolveDialog.obj
 0002:00096c60       ?end@?$_Tree@V?$_Tmap_traits@PBUITEM_INFO@@KU?$less@PBUITEM_INFO@@@std@@V?$allocator@U?$pair@QBUITEM_INFO@@K@std@@@3@$0A@@std@@@std@@QAE?AViterator@12@XZ 005cec60 f i DissolveDialog.obj
 0002:00096c80       ??Cconst_iterator@?$_Tree@V?$_Tmap_traits@PBUITEM_INFO@@KU?$less@PBUITEM_INFO@@@std@@V?$allocator@U?$pair@QBUITEM_INFO@@K@std@@@3@$0A@@std@@@std@@QBEPBU?$pair@QBUITEM_INFO@@K@2@XZ 005cec80 f i DissolveDialog.obj
 0002:00096c90       ??Econst_iterator@?$_Tree@V?$_Tmap_traits@PBUITEM_INFO@@KU?$less@PBUITEM_INFO@@@std@@V?$allocator@U?$pair@QBUITEM_INFO@@K@std@@@3@$0A@@std@@@std@@QAEAAV012@XZ 005cec90 f i DissolveDialog.obj
 0002:00096ca0       ??9const_iterator@?$_Tree@V?$_Tmap_traits@PBUITEM_INFO@@KU?$less@PBUITEM_INFO@@@std@@V?$allocator@U?$pair@QBUITEM_INFO@@K@std@@@3@$0A@@std@@@std@@QBE_NABV012@@Z 005ceca0 f i DissolveDialog.obj
 0002:00096cc0       ?capacity@?$vector@PAVcIconGridDialog@@V?$allocator@PAVcIconGridDialog@@@std@@@std@@QBEIXZ 005cecc0 f i DissolveDialog.obj
 0002:00096ce0       ?max_size@?$vector@PAVcIconGridDialog@@V?$allocator@PAVcIconGridDialog@@@std@@@std@@QBEIXZ 005cece0 f i DissolveDialog.obj
 0002:00096cf0       ?insert@?$vector@PAVcIconGridDialog@@V?$allocator@PAVcIconGridDialog@@@std@@@std@@QAE?AViterator@12@V312@ABQAVcIconGridDialog@@@Z 005cecf0 f i DissolveDialog.obj
 0002:00096d70       ?_Buy@?$vector@PAVcIconGridDialog@@V?$allocator@PAVcIconGridDialog@@@std@@@std@@IAE_NI@Z 005ced70 f i DissolveDialog.obj
 0002:00096de0       ?_Destroy@?$vector@PAVcIconGridDialog@@V?$allocator@PAVcIconGridDialog@@@std@@@std@@IAEXPAPAVcIconGridDialog@@0@Z 005cede0 f i DissolveDialog.obj
 0002:00096e00       ?_Tidy@?$vector@PAVcIconGridDialog@@V?$allocator@PAVcIconGridDialog@@@std@@@std@@IAEXXZ 005cee00 f i DissolveDialog.obj
 0002:00096e60       ?_Ufill@?$vector@PAVcIconGridDialog@@V?$allocator@PAVcIconGridDialog@@@std@@@std@@IAEPAPAVcIconGridDialog@@PAPAV3@IABQAV3@@Z 005cee60 f i DissolveDialog.obj
 0002:00096e90       ?_Xlen@?$vector@PAVcIconGridDialog@@V?$allocator@PAVcIconGridDialog@@@std@@@std@@IBEXXZ 005cee90 f i DissolveDialog.obj
 0002:00096ef0       ??0?$_Vector_val@PAVcIconGridDialog@@V?$allocator@PAVcIconGridDialog@@@std@@@std@@IAE@V?$allocator@PAVcIconGridDialog@@@1@@Z 005ceef0 f i DissolveDialog.obj
 0002:00096f10       ??0?$allocator@PAVcIconGridDialog@@@std@@QAE@XZ 005cef10 f i DissolveDialog.obj
 0002:00096f20       ?deallocate@?$allocator@PAVcIconGridDialog@@@std@@QAEXPAPAVcIconGridDialog@@I@Z 005cef20 f i DissolveDialog.obj
 0002:00096f40       ?allocate@?$allocator@PAVcIconGridDialog@@@std@@QAEPAPAVcIconGridDialog@@I@Z 005cef40 f i DissolveDialog.obj
 0002:00096f60       ?capacity@?$vector@PAVCItemShow@@V?$allocator@PAVCItemShow@@@std@@@std@@QBEIXZ 005cef60 f i DissolveDialog.obj
 0002:00096f80       ?max_size@?$vector@PAVCItemShow@@V?$allocator@PAVCItemShow@@@std@@@std@@QBEIXZ 005cef80 f i DissolveDialog.obj
 0002:00096f90       ?insert@?$vector@PAVCItemShow@@V?$allocator@PAVCItemShow@@@std@@@std@@QAE?AViterator@12@V312@ABQAVCItemShow@@@Z 005cef90 f i DissolveDialog.obj
 0002:00097010       ?_Buy@?$vector@PAVCItemShow@@V?$allocator@PAVCItemShow@@@std@@@std@@IAE_NI@Z 005cf010 f i DissolveDialog.obj
 0002:00097080       ?_Destroy@?$vector@PAVCItemShow@@V?$allocator@PAVCItemShow@@@std@@@std@@IAEXPAPAVCItemShow@@0@Z 005cf080 f i DissolveDialog.obj
 0002:000970a0       ?_Tidy@?$vector@PAVCItemShow@@V?$allocator@PAVCItemShow@@@std@@@std@@IAEXXZ 005cf0a0 f i DissolveDialog.obj
 0002:00097100       ?_Ufill@?$vector@PAVCItemShow@@V?$allocator@PAVCItemShow@@@std@@@std@@IAEPAPAVCItemShow@@PAPAV3@IABQAV3@@Z 005cf100 f i DissolveDialog.obj
 0002:00097130       ?_Xlen@?$vector@PAVCItemShow@@V?$allocator@PAVCItemShow@@@std@@@std@@IBEXXZ 005cf130 f i DissolveDialog.obj
 0002:00097190       ??0?$_Vector_val@PAVCItemShow@@V?$allocator@PAVCItemShow@@@std@@@std@@IAE@V?$allocator@PAVCItemShow@@@1@@Z 005cf190 f i DissolveDialog.obj
 0002:000971b0       ??0?$allocator@PAVCItemShow@@@std@@QAE@XZ 005cf1b0 f i DissolveDialog.obj
 0002:000971c0       ?deallocate@?$allocator@PAVCItemShow@@@std@@QAEXPAPAVCItemShow@@I@Z 005cf1c0 f i DissolveDialog.obj
 0002:000971e0       ?allocate@?$allocator@PAVCItemShow@@@std@@QAEPAPAVCItemShow@@I@Z 005cf1e0 f i DissolveDialog.obj
 0002:00097200       ?_Nextnode@?$list@UResult@DissolveScript@@V?$allocator@UResult@DissolveScript@@@std@@@std@@KAAAPAU_Node@?$_List_nod@UResult@DissolveScript@@V?$allocator@UResult@DissolveScript@@@std@@@2@PAU342@@Z 005cf200 f i DissolveDialog.obj
 0002:00097210       ?_Myval@?$list@UResult@DissolveScript@@V?$allocator@UResult@DissolveScript@@@std@@@std@@KAAAUResult@DissolveScript@@PAU_Node@?$_List_nod@UResult@DissolveScript@@V?$allocator@UResult@DissolveScript@@@std@@@2@@Z 005cf210 f i DissolveDialog.obj
 0002:00097220       ?size@?$_Tree@V?$_Tmap_traits@KUResult@DissolveScript@@U?$less@K@std@@V?$allocator@U?$pair@$$CBKUResult@DissolveScript@@@std@@@4@$0A@@std@@@std@@QBEIXZ 005cf220 f i DissolveDialog.obj
 0002:00097230       ?_Lmost@?$_Tree@V?$_Tmap_traits@KUResult@DissolveScript@@U?$less@K@std@@V?$allocator@U?$pair@$$CBKUResult@DissolveScript@@@std@@@4@$0A@@std@@@std@@IBEAAPAU_Node@?$_Tree_nod@V?$_Tmap_traits@KUResult@DissolveScript@@U?$less@K@std@@V?$allocator@U?$pair@$$CBKUResult@DissolveScript@@@std@@@4@$0A@@std@@@2@XZ 005cf230 f i DissolveDialog.obj
 0002:00097240       ??8const_iterator@?$vector@PAVcIconGridDialog@@V?$allocator@PAVcIconGridDialog@@@std@@@std@@QBE_NABV012@@Z 005cf240 f i DissolveDialog.obj
 0002:00097260       ??0iterator@?$vector@PAVcIconGridDialog@@V?$allocator@PAVcIconGridDialog@@@std@@@std@@QAE@PAPAVcIconGridDialog@@@Z 005cf260 f i DissolveDialog.obj
 0002:00097280       ??Hiterator@?$vector@PAVcIconGridDialog@@V?$allocator@PAVcIconGridDialog@@@std@@@std@@QBE?AV012@H@Z 005cf280 f i DissolveDialog.obj
 0002:000972b0       ??0const_iterator@?$list@UResult@DissolveScript@@V?$allocator@UResult@DissolveScript@@@std@@@std@@QAE@PAU_Node@?$_List_nod@UResult@DissolveScript@@V?$allocator@UResult@DissolveScript@@@std@@@2@@Z 005cf2b0 f i DissolveDialog.obj
 0002:000972c0       ??8const_iterator@?$list@UResult@DissolveScript@@V?$allocator@UResult@DissolveScript@@@std@@@std@@QBE_NABV012@@Z 005cf2c0 f i DissolveDialog.obj
 0002:000972e0       ??0const_iterator@?$_Tree@V?$_Tmap_traits@KUResult@DissolveScript@@U?$less@K@std@@V?$allocator@U?$pair@$$CBKUResult@DissolveScript@@@std@@@4@$0A@@std@@@std@@QAE@PAU_Node@?$_Tree_nod@V?$_Tmap_traits@KUResult@DissolveScript@@U?$less@K@std@@V?$allocator@U?$pair@$$CBKUResult@DissolveScript@@@std@@@4@$0A@@std@@@2@@Z 005cf2e0 f i DissolveDialog.obj
 0002:000972f0       ??Dconst_iterator@?$_Tree@V?$_Tmap_traits@KUResult@DissolveScript@@U?$less@K@std@@V?$allocator@U?$pair@$$CBKUResult@DissolveScript@@@std@@@4@$0A@@std@@@std@@QBEABU?$pair@$$CBKUResult@DissolveScript@@@2@XZ 005cf2f0 f i DissolveDialog.obj
 0002:00097300       ??8const_iterator@?$_Tree@V?$_Tmap_traits@KUResult@DissolveScript@@U?$less@K@std@@V?$allocator@U?$pair@$$CBKUResult@DissolveScript@@@std@@@4@$0A@@std@@@std@@QBE_NABV012@@Z 005cf300 f i DissolveDialog.obj
 0002:00097320       ?_Inc@const_iterator@?$_Tree@V?$_Tmap_traits@KUResult@DissolveScript@@U?$less@K@std@@V?$allocator@U?$pair@$$CBKUResult@DissolveScript@@@std@@@4@$0A@@std@@@std@@QAEXXZ 005cf320 f i DissolveDialog.obj
 0002:000973e0       ?_Key@?$_Tree@V?$_Tmap_traits@KUSlot@MSG_ITEM_DISSOLVE_SYN@@U?$less@K@std@@V?$allocator@U?$pair@$$CBKUSlot@MSG_ITEM_DISSOLVE_SYN@@@std@@@4@$0A@@std@@@std@@KAABKPAU_Node@?$_Tree_nod@V?$_Tmap_traits@KUSlot@MSG_ITEM_DISSOLVE_SYN@@U?$less@K@std@@V?$allocator@U?$pair@$$CBKUSlot@MSG_ITEM_DISSOLVE_SYN@@@std@@@4@$0A@@std@@@2@@Z 005cf3e0 f i DissolveDialog.obj
 0002:00097400       ??0?$_Tree@V?$_Tmap_traits@KUSlot@MSG_ITEM_DISSOLVE_SYN@@U?$less@K@std@@V?$allocator@U?$pair@$$CBKUSlot@MSG_ITEM_DISSOLVE_SYN@@@std@@@4@$0A@@std@@@std@@QAE@ABU?$less@K@1@ABV?$allocator@U?$pair@$$CBKUSlot@MSG_ITEM_DISSOLVE_SYN@@@std@@@1@@Z 005cf400 f i DissolveDialog.obj
 0002:00097440       ?insert@?$_Tree@V?$_Tmap_traits@KUSlot@MSG_ITEM_DISSOLVE_SYN@@U?$less@K@std@@V?$allocator@U?$pair@$$CBKUSlot@MSG_ITEM_DISSOLVE_SYN@@@std@@@4@$0A@@std@@@std@@QAE?AViterator@12@V312@ABU?$pair@$$CBKUSlot@MSG_ITEM_DISSOLVE_SYN@@@2@@Z 005cf440 f i DissolveDialog.obj
 0002:000977a0       ?lower_bound@?$_Tree@V?$_Tmap_traits@KUSlot@MSG_ITEM_DISSOLVE_SYN@@U?$less@K@std@@V?$allocator@U?$pair@$$CBKUSlot@MSG_ITEM_DISSOLVE_SYN@@@std@@@4@$0A@@std@@@std@@QAE?AViterator@12@ABK@Z 005cf7a0 f i DissolveDialog.obj
 0002:000977d0       ?_Lmost@?$_Tree@V?$_Tmap_traits@KUSlot@MSG_ITEM_DISSOLVE_SYN@@U?$less@K@std@@V?$allocator@U?$pair@$$CBKUSlot@MSG_ITEM_DISSOLVE_SYN@@@std@@@4@$0A@@std@@@std@@IAEAAPAU_Node@?$_Tree_nod@V?$_Tmap_traits@KUSlot@MSG_ITEM_DISSOLVE_SYN@@U?$less@K@std@@V?$allocator@U?$pair@$$CBKUSlot@MSG_ITEM_DISSOLVE_SYN@@@std@@@4@$0A@@std@@@2@XZ 005cf7d0 f i DissolveDialog.obj
 0002:000977e0       ?_Tidy@?$_Tree@V?$_Tmap_traits@KUSlot@MSG_ITEM_DISSOLVE_SYN@@U?$less@K@std@@V?$allocator@U?$pair@$$CBKUSlot@MSG_ITEM_DISSOLVE_SYN@@@std@@@4@$0A@@std@@@std@@IAEXXZ 005cf7e0 f i DissolveDialog.obj
 0002:00097890       ??0?$allocator@U?$pair@$$CBKUSlot@MSG_ITEM_DISSOLVE_SYN@@@std@@@std@@QAE@XZ 005cf890 f i DissolveDialog.obj
 0002:000978a0       ??0iterator@?$_Tree@V?$_Tmap_traits@KUSlot@MSG_ITEM_DISSOLVE_SYN@@U?$less@K@std@@V?$allocator@U?$pair@$$CBKUSlot@MSG_ITEM_DISSOLVE_SYN@@@std@@@4@$0A@@std@@@std@@QAE@PAU_Node@?$_Tree_nod@V?$_Tmap_traits@KUSlot@MSG_ITEM_DISSOLVE_SYN@@U?$less@K@std@@V?$allocator@U?$pair@$$CBKUSlot@MSG_ITEM_DISSOLVE_SYN@@@std@@@4@$0A@@std@@@2@@Z 005cf8a0 f i DissolveDialog.obj
 0002:000978c0       ??Diterator@?$_Tree@V?$_Tmap_traits@KUSlot@MSG_ITEM_DISSOLVE_SYN@@U?$less@K@std@@V?$allocator@U?$pair@$$CBKUSlot@MSG_ITEM_DISSOLVE_SYN@@@std@@@4@$0A@@std@@@std@@QBEAAU?$pair@$$CBKUSlot@MSG_ITEM_DISSOLVE_SYN@@@2@XZ 005cf8c0 f i DissolveDialog.obj
 0002:000978d0       ??Econst_iterator@?$_Tree@V?$_Tmap_traits@KUSlot@MSG_ITEM_DISSOLVE_SYN@@U?$less@K@std@@V?$allocator@U?$pair@$$CBKUSlot@MSG_ITEM_DISSOLVE_SYN@@@std@@@4@$0A@@std@@@std@@QAEAAV012@XZ 005cf8d0 f i DissolveDialog.obj
 0002:000978e0       ??8const_iterator@?$_Tree@V?$_Tmap_traits@KUSlot@MSG_ITEM_DISSOLVE_SYN@@U?$less@K@std@@V?$allocator@U?$pair@$$CBKUSlot@MSG_ITEM_DISSOLVE_SYN@@@std@@@4@$0A@@std@@@std@@QBE_NABV012@@Z 005cf8e0 f i DissolveDialog.obj
 0002:00097900       ?_Mynode@const_iterator@?$_Tree@V?$_Tmap_traits@KUSlot@MSG_ITEM_DISSOLVE_SYN@@U?$less@K@std@@V?$allocator@U?$pair@$$CBKUSlot@MSG_ITEM_DISSOLVE_SYN@@@std@@@4@$0A@@std@@@std@@QBEPAU_Node@?$_Tree_nod@V?$_Tmap_traits@KUSlot@MSG_ITEM_DISSOLVE_SYN@@U?$less@K@std@@V?$allocator@U?$pair@$$CBKUSlot@MSG_ITEM_DISSOLVE_SYN@@@std@@@4@$0A@@std@@@3@XZ 005cf900 f i DissolveDialog.obj
 0002:00097910       ??0?$pair@$$CBKUSlot@MSG_ITEM_DISSOLVE_SYN@@@std@@QAE@ABKABUSlot@MSG_ITEM_DISSOLVE_SYN@@@Z 005cf910 f i DissolveDialog.obj
 0002:00097950       ??0iterator@?$vector@PAVCItemShow@@V?$allocator@PAVCItemShow@@@std@@@std@@QAE@PAPAVCItemShow@@@Z 005cf950 f i DissolveDialog.obj
 0002:00097970       ??Hiterator@?$vector@PAVCItemShow@@V?$allocator@PAVCItemShow@@@std@@@std@@QBE?AV012@H@Z 005cf970 f i DissolveDialog.obj
 0002:000979a0       ??Dconst_iterator@?$vector@PAVCItemShow@@V?$allocator@PAVCItemShow@@@std@@@std@@QBEABQAVCItemShow@@XZ 005cf9a0 f i DissolveDialog.obj
 0002:000979b0       ??8const_iterator@?$vector@PAVCItemShow@@V?$allocator@PAVCItemShow@@@std@@@std@@QBE_NABV012@@Z 005cf9b0 f i DissolveDialog.obj
 0002:000979d0       ?_Key@?$_Tree@V?$_Tmap_traits@PBUITEM_INFO@@KU?$less@PBUITEM_INFO@@@std@@V?$allocator@U?$pair@QBUITEM_INFO@@K@std@@@3@$0A@@std@@@std@@KAABQBUITEM_INFO@@PAU_Node@?$_Tree_nod@V?$_Tmap_traits@PBUITEM_INFO@@KU?$less@PBUITEM_INFO@@@std@@V?$allocator@U?$pair@QBUITEM_INFO@@K@std@@@3@$0A@@std@@@2@@Z 005cf9d0 f i DissolveDialog.obj
 0002:000979f0       ??0?$_Tree@V?$_Tmap_traits@PBUITEM_INFO@@KU?$less@PBUITEM_INFO@@@std@@V?$allocator@U?$pair@QBUITEM_INFO@@K@std@@@3@$0A@@std@@@std@@QAE@ABU?$less@PBUITEM_INFO@@@1@ABV?$allocator@U?$pair@QBUITEM_INFO@@K@std@@@1@@Z 005cf9f0 f i DissolveDialog.obj
 0002:00097a30       ?insert@?$_Tree@V?$_Tmap_traits@PBUITEM_INFO@@KU?$less@PBUITEM_INFO@@@std@@V?$allocator@U?$pair@QBUITEM_INFO@@K@std@@@3@$0A@@std@@@std@@QAE?AViterator@12@V312@ABU?$pair@QBUITEM_INFO@@K@2@@Z 005cfa30 f i DissolveDialog.obj
 0002:00097d90       ?lower_bound@?$_Tree@V?$_Tmap_traits@PBUITEM_INFO@@KU?$less@PBUITEM_INFO@@@std@@V?$allocator@U?$pair@QBUITEM_INFO@@K@std@@@3@$0A@@std@@@std@@QAE?AViterator@12@ABQBUITEM_INFO@@@Z 005cfd90 f i DissolveDialog.obj
 0002:00097dc0       ?_Lmost@?$_Tree@V?$_Tmap_traits@PBUITEM_INFO@@KU?$less@PBUITEM_INFO@@@std@@V?$allocator@U?$pair@QBUITEM_INFO@@K@std@@@3@$0A@@std@@@std@@IAEAAPAU_Node@?$_Tree_nod@V?$_Tmap_traits@PBUITEM_INFO@@KU?$less@PBUITEM_INFO@@@std@@V?$allocator@U?$pair@QBUITEM_INFO@@K@std@@@3@$0A@@std@@@2@XZ 005cfdc0 f i DissolveDialog.obj
 0002:00097dd0       ?_Tidy@?$_Tree@V?$_Tmap_traits@PBUITEM_INFO@@KU?$less@PBUITEM_INFO@@@std@@V?$allocator@U?$pair@QBUITEM_INFO@@K@std@@@3@$0A@@std@@@std@@IAEXXZ 005cfdd0 f i DissolveDialog.obj
 0002:00097e80       ??0?$allocator@U?$pair@QBUITEM_INFO@@K@std@@@std@@QAE@XZ 005cfe80 f i DissolveDialog.obj
 0002:00097e90       ??R?$less@PBUITEM_INFO@@@std@@QBE_NABQBUITEM_INFO@@0@Z 005cfe90 f i DissolveDialog.obj
 0002:00097eb0       ??Dconst_iterator@?$_Tree@V?$_Tmap_traits@PBUITEM_INFO@@KU?$less@PBUITEM_INFO@@@std@@V?$allocator@U?$pair@QBUITEM_INFO@@K@std@@@3@$0A@@std@@@std@@QBEABU?$pair@QBUITEM_INFO@@K@2@XZ 005cfeb0 f i DissolveDialog.obj
 0002:00097ec0       ??8const_iterator@?$_Tree@V?$_Tmap_traits@PBUITEM_INFO@@KU?$less@PBUITEM_INFO@@@std@@V?$allocator@U?$pair@QBUITEM_INFO@@K@std@@@3@$0A@@std@@@std@@QBE_NABV012@@Z 005cfec0 f i DissolveDialog.obj
 0002:00097ee0       ?_Inc@const_iterator@?$_Tree@V?$_Tmap_traits@PBUITEM_INFO@@KU?$less@PBUITEM_INFO@@@std@@V?$allocator@U?$pair@QBUITEM_INFO@@K@std@@@3@$0A@@std@@@std@@QAEXXZ 005cfee0 f i DissolveDialog.obj
 0002:00097fa0       ?_Mynode@const_iterator@?$_Tree@V?$_Tmap_traits@PBUITEM_INFO@@KU?$less@PBUITEM_INFO@@@std@@V?$allocator@U?$pair@QBUITEM_INFO@@K@std@@@3@$0A@@std@@@std@@QBEPAU_Node@?$_Tree_nod@V?$_Tmap_traits@PBUITEM_INFO@@KU?$less@PBUITEM_INFO@@@std@@V?$allocator@U?$pair@QBUITEM_INFO@@K@std@@@3@$0A@@std@@@3@XZ 005cffa0 f i DissolveDialog.obj
 0002:00097fb0       ??0iterator@?$_Tree@V?$_Tmap_traits@PBUITEM_INFO@@KU?$less@PBUITEM_INFO@@@std@@V?$allocator@U?$pair@QBUITEM_INFO@@K@std@@@3@$0A@@std@@@std@@QAE@PAU_Node@?$_Tree_nod@V?$_Tmap_traits@PBUITEM_INFO@@KU?$less@PBUITEM_INFO@@@std@@V?$allocator@U?$pair@QBUITEM_INFO@@K@std@@@3@$0A@@std@@@2@@Z 005cffb0 f i DissolveDialog.obj
 0002:00097fd0       ??Diterator@?$_Tree@V?$_Tmap_traits@PBUITEM_INFO@@KU?$less@PBUITEM_INFO@@@std@@V?$allocator@U?$pair@QBUITEM_INFO@@K@std@@@3@$0A@@std@@@std@@QBEAAU?$pair@QBUITEM_INFO@@K@2@XZ 005cffd0 f i DissolveDialog.obj
 0002:00097fe0       ??0?$pair@QBUITEM_INFO@@K@std@@QAE@ABQBUITEM_INFO@@ABK@Z 005cffe0 f i DissolveDialog.obj
 0002:00098000       ?_Insert_n@?$vector@PAVcIconGridDialog@@V?$allocator@PAVcIconGridDialog@@@std@@@std@@IAEXViterator@12@IABQAVcIconGridDialog@@@Z 005d0000 f i DissolveDialog.obj
 0002:00098320       ??0?$allocator@PAVcIconGridDialog@@@std@@QAE@ABV01@@Z 005d0320 f i DissolveDialog.obj
 0002:00098330       ?max_size@?$allocator@PAVcIconGridDialog@@@std@@QBEIXZ 005d0330 f i DissolveDialog.obj
 0002:00098340       ?_Insert_n@?$vector@PAVCItemShow@@V?$allocator@PAVCItemShow@@@std@@@std@@IAEXViterator@12@IABQAVCItemShow@@@Z 005d0340 f i DissolveDialog.obj
 0002:00098660       ??0?$allocator@PAVCItemShow@@@std@@QAE@ABV01@@Z 005d0660 f i DissolveDialog.obj
 0002:00098670       ?max_size@?$allocator@PAVCItemShow@@@std@@QBEIXZ 005d0670 f i DissolveDialog.obj
 0002:00098680       ?_Isnil@?$_Tree@V?$_Tmap_traits@KUResult@DissolveScript@@U?$less@K@std@@V?$allocator@U?$pair@$$CBKUResult@DissolveScript@@@std@@@4@$0A@@std@@@std@@KAAADPAU_Node@?$_Tree_nod@V?$_Tmap_traits@KUResult@DissolveScript@@U?$less@K@std@@V?$allocator@U?$pair@$$CBKUResult@DissolveScript@@@std@@@4@$0A@@std@@@2@@Z 005d0680 f i DissolveDialog.obj
 0002:00098690       ?_Left@?$_Tree@V?$_Tmap_traits@KUResult@DissolveScript@@U?$less@K@std@@V?$allocator@U?$pair@$$CBKUResult@DissolveScript@@@std@@@4@$0A@@std@@@std@@KAAAPAU_Node@?$_Tree_nod@V?$_Tmap_traits@KUResult@DissolveScript@@U?$less@K@std@@V?$allocator@U?$pair@$$CBKUResult@DissolveScript@@@std@@@4@$0A@@std@@@2@PAU342@@Z 005d0690 f i DissolveDialog.obj
 0002:000986a0       ?_Parent@?$_Tree@V?$_Tmap_traits@KUResult@DissolveScript@@U?$less@K@std@@V?$allocator@U?$pair@$$CBKUResult@DissolveScript@@@std@@@4@$0A@@std@@@std@@KAAAPAU_Node@?$_Tree_nod@V?$_Tmap_traits@KUResult@DissolveScript@@U?$less@K@std@@V?$allocator@U?$pair@$$CBKUResult@DissolveScript@@@std@@@4@$0A@@std@@@2@PAU342@@Z 005d06a0 f i DissolveDialog.obj
 0002:000986b0       ?_Right@?$_Tree@V?$_Tmap_traits@KUResult@DissolveScript@@U?$less@K@std@@V?$allocator@U?$pair@$$CBKUResult@DissolveScript@@@std@@@4@$0A@@std@@@std@@KAAAPAU_Node@?$_Tree_nod@V?$_Tmap_traits@KUResult@DissolveScript@@U?$less@K@std@@V?$allocator@U?$pair@$$CBKUResult@DissolveScript@@@std@@@4@$0A@@std@@@2@PAU342@@Z 005d06b0 f i DissolveDialog.obj
 0002:000986c0       ?_Myval@?$_Tree@V?$_Tmap_traits@KUResult@DissolveScript@@U?$less@K@std@@V?$allocator@U?$pair@$$CBKUResult@DissolveScript@@@std@@@4@$0A@@std@@@std@@KAAAU?$pair@$$CBKUResult@DissolveScript@@@2@PAU_Node@?$_Tree_nod@V?$_Tmap_traits@KUResult@DissolveScript@@U?$less@K@std@@V?$allocator@U?$pair@$$CBKUResult@DissolveScript@@@std@@@4@$0A@@std@@@2@@Z 005d06c0 f i DissolveDialog.obj
 0002:000986d0       ?_Min@?$_Tree@V?$_Tmap_traits@KUResult@DissolveScript@@U?$less@K@std@@V?$allocator@U?$pair@$$CBKUResult@DissolveScript@@@std@@@4@$0A@@std@@@std@@KAPAU_Node@?$_Tree_nod@V?$_Tmap_traits@KUResult@DissolveScript@@U?$less@K@std@@V?$allocator@U?$pair@$$CBKUResult@DissolveScript@@@std@@@4@$0A@@std@@@2@PAU342@@Z 005d06d0 f i DissolveDialog.obj
 0002:00098720       ??0const_iterator@?$vector@PAVcIconGridDialog@@V?$allocator@PAVcIconGridDialog@@@std@@@std@@QAE@PAPAVcIconGridDialog@@@Z 005d0720 f i DissolveDialog.obj
 0002:00098730       ??Yiterator@?$vector@PAVcIconGridDialog@@V?$allocator@PAVcIconGridDialog@@@std@@@std@@QAEAAV012@H@Z 005d0730 f i DissolveDialog.obj
 0002:00098750       ??Giterator@?$vector@PAVcIconGridDialog@@V?$allocator@PAVcIconGridDialog@@@std@@@std@@QBEHABVconst_iterator@12@@Z 005d0750 f i DissolveDialog.obj
 0002:00098770       ?_Isnil@?$_Tree@V?$_Tmap_traits@KUSlot@MSG_ITEM_DISSOLVE_SYN@@U?$less@K@std@@V?$allocator@U?$pair@$$CBKUSlot@MSG_ITEM_DISSOLVE_SYN@@@std@@@4@$0A@@std@@@std@@KAAADPAU_Node@?$_Tree_nod@V?$_Tmap_traits@KUSlot@MSG_ITEM_DISSOLVE_SYN@@U?$less@K@std@@V?$allocator@U?$pair@$$CBKUSlot@MSG_ITEM_DISSOLVE_SYN@@@std@@@4@$0A@@std@@@2@@Z 005d0770 f i DissolveDialog.obj
 0002:00098780       ?_Left@?$_Tree@V?$_Tmap_traits@KUSlot@MSG_ITEM_DISSOLVE_SYN@@U?$less@K@std@@V?$allocator@U?$pair@$$CBKUSlot@MSG_ITEM_DISSOLVE_SYN@@@std@@@4@$0A@@std@@@std@@KAAAPAU_Node@?$_Tree_nod@V?$_Tmap_traits@KUSlot@MSG_ITEM_DISSOLVE_SYN@@U?$less@K@std@@V?$allocator@U?$pair@$$CBKUSlot@MSG_ITEM_DISSOLVE_SYN@@@std@@@4@$0A@@std@@@2@PAU342@@Z 005d0780 f i DissolveDialog.obj
 0002:00098790       ?_Parent@?$_Tree@V?$_Tmap_traits@KUSlot@MSG_ITEM_DISSOLVE_SYN@@U?$less@K@std@@V?$allocator@U?$pair@$$CBKUSlot@MSG_ITEM_DISSOLVE_SYN@@@std@@@4@$0A@@std@@@std@@KAAAPAU_Node@?$_Tree_nod@V?$_Tmap_traits@KUSlot@MSG_ITEM_DISSOLVE_SYN@@U?$less@K@std@@V?$allocator@U?$pair@$$CBKUSlot@MSG_ITEM_DISSOLVE_SYN@@@std@@@4@$0A@@std@@@2@PAU342@@Z 005d0790 f i DissolveDialog.obj
 0002:000987a0       ?_Right@?$_Tree@V?$_Tmap_traits@KUSlot@MSG_ITEM_DISSOLVE_SYN@@U?$less@K@std@@V?$allocator@U?$pair@$$CBKUSlot@MSG_ITEM_DISSOLVE_SYN@@@std@@@4@$0A@@std@@@std@@KAAAPAU_Node@?$_Tree_nod@V?$_Tmap_traits@KUSlot@MSG_ITEM_DISSOLVE_SYN@@U?$less@K@std@@V?$allocator@U?$pair@$$CBKUSlot@MSG_ITEM_DISSOLVE_SYN@@@std@@@4@$0A@@std@@@2@PAU342@@Z 005d07a0 f i DissolveDialog.obj
 0002:000987b0       ?_Myval@?$_Tree@V?$_Tmap_traits@KUSlot@MSG_ITEM_DISSOLVE_SYN@@U?$less@K@std@@V?$allocator@U?$pair@$$CBKUSlot@MSG_ITEM_DISSOLVE_SYN@@@std@@@4@$0A@@std@@@std@@KAAAU?$pair@$$CBKUSlot@MSG_ITEM_DISSOLVE_SYN@@@2@PAU_Node@?$_Tree_nod@V?$_Tmap_traits@KUSlot@MSG_ITEM_DISSOLVE_SYN@@U?$less@K@std@@V?$allocator@U?$pair@$$CBKUSlot@MSG_ITEM_DISSOLVE_SYN@@@std@@@4@$0A@@std@@@2@@Z 005d07b0 f i DissolveDialog.obj
 0002:000987c0       ?size@?$_Tree@V?$_Tmap_traits@KUSlot@MSG_ITEM_DISSOLVE_SYN@@U?$less@K@std@@V?$allocator@U?$pair@$$CBKUSlot@MSG_ITEM_DISSOLVE_SYN@@@std@@@4@$0A@@std@@@std@@QBEIXZ 005d07c0 f i DissolveDialog.obj
 0002:000987d0       ?insert@?$_Tree@V?$_Tmap_traits@KUSlot@MSG_ITEM_DISSOLVE_SYN@@U?$less@K@std@@V?$allocator@U?$pair@$$CBKUSlot@MSG_ITEM_DISSOLVE_SYN@@@std@@@4@$0A@@std@@@std@@QAE?AU?$pair@Viterator@?$_Tree@V?$_Tmap_traits@KUSlot@MSG_ITEM_DISSOLVE_SYN@@U?$less@K@std@@V?$allocator@U?$pair@$$CBKUSlot@MSG_ITEM_DISSOLVE_SYN@@@std@@@4@$0A@@std@@@std@@_N@2@ABU?$pair@$$CBKUSlot@MSG_ITEM_DISSOLVE_SYN@@@2@@Z 005d07d0 f i DissolveDialog.obj
 0002:00098950       ?erase@?$_Tree@V?$_Tmap_traits@KUSlot@MSG_ITEM_DISSOLVE_SYN@@U?$less@K@std@@V?$allocator@U?$pair@$$CBKUSlot@MSG_ITEM_DISSOLVE_SYN@@@std@@@4@$0A@@std@@@std@@QAE?AViterator@12@V312@0@Z 005d0950 f i DissolveDialog.obj
 0002:00098a30       ?_Init@?$_Tree@V?$_Tmap_traits@KUSlot@MSG_ITEM_DISSOLVE_SYN@@U?$less@K@std@@V?$allocator@U?$pair@$$CBKUSlot@MSG_ITEM_DISSOLVE_SYN@@@std@@@4@$0A@@std@@@std@@IAEXXZ 005d0a30 f i DissolveDialog.obj
 0002:00098a90       ?_Insert@?$_Tree@V?$_Tmap_traits@KUSlot@MSG_ITEM_DISSOLVE_SYN@@U?$less@K@std@@V?$allocator@U?$pair@$$CBKUSlot@MSG_ITEM_DISSOLVE_SYN@@@std@@@4@$0A@@std@@@std@@IAE?AViterator@12@_NPAU_Node@?$_Tree_nod@V?$_Tmap_traits@KUSlot@MSG_ITEM_DISSOLVE_SYN@@U?$less@K@std@@V?$allocator@U?$pair@$$CBKUSlot@MSG_ITEM_DISSOLVE_SYN@@@std@@@4@$0A@@std@@@2@ABU?$pair@$$CBKUSlot@MSG_ITEM_DISSOLVE_SYN@@@2@@Z 005d0a90 f i DissolveDialog.obj
 0002:00098e10       ?_Lbound@?$_Tree@V?$_Tmap_traits@KUSlot@MSG_ITEM_DISSOLVE_SYN@@U?$less@K@std@@V?$allocator@U?$pair@$$CBKUSlot@MSG_ITEM_DISSOLVE_SYN@@@std@@@4@$0A@@std@@@std@@IBEPAU_Node@?$_Tree_nod@V?$_Tmap_traits@KUSlot@MSG_ITEM_DISSOLVE_SYN@@U?$less@K@std@@V?$allocator@U?$pair@$$CBKUSlot@MSG_ITEM_DISSOLVE_SYN@@@std@@@4@$0A@@std@@@2@ABK@Z 005d0e10 f i DissolveDialog.obj
 0002:00098e90       ?_Rmost@?$_Tree@V?$_Tmap_traits@KUSlot@MSG_ITEM_DISSOLVE_SYN@@U?$less@K@std@@V?$allocator@U?$pair@$$CBKUSlot@MSG_ITEM_DISSOLVE_SYN@@@std@@@4@$0A@@std@@@std@@IAEAAPAU_Node@?$_Tree_nod@V?$_Tmap_traits@KUSlot@MSG_ITEM_DISSOLVE_SYN@@U?$less@K@std@@V?$allocator@U?$pair@$$CBKUSlot@MSG_ITEM_DISSOLVE_SYN@@@std@@@4@$0A@@std@@@2@XZ 005d0e90 f i DissolveDialog.obj
 0002:00098ea0       ??0?$_Tree_val@V?$_Tmap_traits@KUSlot@MSG_ITEM_DISSOLVE_SYN@@U?$less@K@std@@V?$allocator@U?$pair@$$CBKUSlot@MSG_ITEM_DISSOLVE_SYN@@@std@@@4@$0A@@std@@@std@@IAE@ABU?$less@K@1@V?$allocator@U?$pair@$$CBKUSlot@MSG_ITEM_DISSOLVE_SYN@@@std@@@1@@Z 005d0ea0 f i DissolveDialog.obj
 0002:00098ee0       ?_Kfn@?$_Tmap_traits@KUSlot@MSG_ITEM_DISSOLVE_SYN@@U?$less@K@std@@V?$allocator@U?$pair@$$CBKUSlot@MSG_ITEM_DISSOLVE_SYN@@@std@@@4@$0A@@std@@SAABKABU?$pair@$$CBKUSlot@MSG_ITEM_DISSOLVE_SYN@@@2@@Z 005d0ee0 f i DissolveDialog.obj
 0002:00098ef0       ??0?$allocator@U?$pair@$$CBKUSlot@MSG_ITEM_DISSOLVE_SYN@@@std@@@std@@QAE@ABV01@@Z 005d0ef0 f i DissolveDialog.obj
 0002:00098f00       ?deallocate@?$allocator@U_Node@?$_Tree_nod@V?$_Tmap_traits@KUSlot@MSG_ITEM_DISSOLVE_SYN@@U?$less@K@std@@V?$allocator@U?$pair@$$CBKUSlot@MSG_ITEM_DISSOLVE_SYN@@@std@@@4@$0A@@std@@@std@@@std@@QAEXPAU_Node@?$_Tree_nod@V?$_Tmap_traits@KUSlot@MSG_ITEM_DISSOLVE_SYN@@U?$less@K@std@@V?$allocator@U?$pair@$$CBKUSlot@MSG_ITEM_DISSOLVE_SYN@@@std@@@4@$0A@@std@@@2@I@Z 005d0f00 f i DissolveDialog.obj
 0002:00098f20       ?destroy@?$allocator@PAU_Node@?$_Tree_nod@V?$_Tmap_traits@KUSlot@MSG_ITEM_DISSOLVE_SYN@@U?$less@K@std@@V?$allocator@U?$pair@$$CBKUSlot@MSG_ITEM_DISSOLVE_SYN@@@std@@@4@$0A@@std@@@std@@@std@@QAEXPAPAU_Node@?$_Tree_nod@V?$_Tmap_traits@KUSlot@MSG_ITEM_DISSOLVE_SYN@@U?$less@K@std@@V?$allocator@U?$pair@$$CBKUSlot@MSG_ITEM_DISSOLVE_SYN@@@std@@@4@$0A@@std@@@2@@Z 005d0f20 f i DissolveDialog.obj
 0002:00098f40       ??0iterator@?$_Tree@V?$_Tmap_traits@KUSlot@MSG_ITEM_DISSOLVE_SYN@@U?$less@K@std@@V?$allocator@U?$pair@$$CBKUSlot@MSG_ITEM_DISSOLVE_SYN@@@std@@@4@$0A@@std@@@std@@QAE@XZ 005d0f40 f i DissolveDialog.obj
 0002:00098f50       ??Fiterator@?$_Tree@V?$_Tmap_traits@KUSlot@MSG_ITEM_DISSOLVE_SYN@@U?$less@K@std@@V?$allocator@U?$pair@$$CBKUSlot@MSG_ITEM_DISSOLVE_SYN@@@std@@@4@$0A@@std@@@std@@QAEAAV012@XZ 005d0f50 f i DissolveDialog.obj
 0002:00098f60       ??0const_iterator@?$_Tree@V?$_Tmap_traits@KUSlot@MSG_ITEM_DISSOLVE_SYN@@U?$less@K@std@@V?$allocator@U?$pair@$$CBKUSlot@MSG_ITEM_DISSOLVE_SYN@@@std@@@4@$0A@@std@@@std@@QAE@PAU_Node@?$_Tree_nod@V?$_Tmap_traits@KUSlot@MSG_ITEM_DISSOLVE_SYN@@U?$less@K@std@@V?$allocator@U?$pair@$$CBKUSlot@MSG_ITEM_DISSOLVE_SYN@@@std@@@4@$0A@@std@@@2@@Z 005d0f60 f i DissolveDialog.obj
 0002:00098f70       ??Dconst_iterator@?$_Tree@V?$_Tmap_traits@KUSlot@MSG_ITEM_DISSOLVE_SYN@@U?$less@K@std@@V?$allocator@U?$pair@$$CBKUSlot@MSG_ITEM_DISSOLVE_SYN@@@std@@@4@$0A@@std@@@std@@QBEABU?$pair@$$CBKUSlot@MSG_ITEM_DISSOLVE_SYN@@@2@XZ 005d0f70 f i DissolveDialog.obj
 0002:00098f80       ?_Inc@const_iterator@?$_Tree@V?$_Tmap_traits@KUSlot@MSG_ITEM_DISSOLVE_SYN@@U?$less@K@std@@V?$allocator@U?$pair@$$CBKUSlot@MSG_ITEM_DISSOLVE_SYN@@@std@@@4@$0A@@std@@@std@@QAEXXZ 005d0f80 f i DissolveDialog.obj
 0002:00099030       ??Yiterator@?$vector@PAVCItemShow@@V?$allocator@PAVCItemShow@@@std@@@std@@QAEAAV012@H@Z 005d1030 f i DissolveDialog.obj
 0002:00099050       ??Giterator@?$vector@PAVCItemShow@@V?$allocator@PAVCItemShow@@@std@@@std@@QBEHABVconst_iterator@12@@Z 005d1050 f i DissolveDialog.obj
 0002:00099070       ??0const_iterator@?$vector@PAVCItemShow@@V?$allocator@PAVCItemShow@@@std@@@std@@QAE@PAPAVCItemShow@@@Z 005d1070 f i DissolveDialog.obj
 0002:00099080       ?_Isnil@?$_Tree@V?$_Tmap_traits@PBUITEM_INFO@@KU?$less@PBUITEM_INFO@@@std@@V?$allocator@U?$pair@QBUITEM_INFO@@K@std@@@3@$0A@@std@@@std@@KAAADPAU_Node@?$_Tree_nod@V?$_Tmap_traits@PBUITEM_INFO@@KU?$less@PBUITEM_INFO@@@std@@V?$allocator@U?$pair@QBUITEM_INFO@@K@std@@@3@$0A@@std@@@2@@Z 005d1080 f i DissolveDialog.obj
 0002:00099090       ?_Left@?$_Tree@V?$_Tmap_traits@PBUITEM_INFO@@KU?$less@PBUITEM_INFO@@@std@@V?$allocator@U?$pair@QBUITEM_INFO@@K@std@@@3@$0A@@std@@@std@@KAAAPAU_Node@?$_Tree_nod@V?$_Tmap_traits@PBUITEM_INFO@@KU?$less@PBUITEM_INFO@@@std@@V?$allocator@U?$pair@QBUITEM_INFO@@K@std@@@3@$0A@@std@@@2@PAU342@@Z 005d1090 f i DissolveDialog.obj
 0002:000990a0       ?_Parent@?$_Tree@V?$_Tmap_traits@PBUITEM_INFO@@KU?$less@PBUITEM_INFO@@@std@@V?$allocator@U?$pair@QBUITEM_INFO@@K@std@@@3@$0A@@std@@@std@@KAAAPAU_Node@?$_Tree_nod@V?$_Tmap_traits@PBUITEM_INFO@@KU?$less@PBUITEM_INFO@@@std@@V?$allocator@U?$pair@QBUITEM_INFO@@K@std@@@3@$0A@@std@@@2@PAU342@@Z 005d10a0 f i DissolveDialog.obj
 0002:000990b0       ?_Right@?$_Tree@V?$_Tmap_traits@PBUITEM_INFO@@KU?$less@PBUITEM_INFO@@@std@@V?$allocator@U?$pair@QBUITEM_INFO@@K@std@@@3@$0A@@std@@@std@@KAAAPAU_Node@?$_Tree_nod@V?$_Tmap_traits@PBUITEM_INFO@@KU?$less@PBUITEM_INFO@@@std@@V?$allocator@U?$pair@QBUITEM_INFO@@K@std@@@3@$0A@@std@@@2@PAU342@@Z 005d10b0 f i DissolveDialog.obj
 0002:000990c0       ?_Myval@?$_Tree@V?$_Tmap_traits@PBUITEM_INFO@@KU?$less@PBUITEM_INFO@@@std@@V?$allocator@U?$pair@QBUITEM_INFO@@K@std@@@3@$0A@@std@@@std@@KAAAU?$pair@QBUITEM_INFO@@K@2@PAU_Node@?$_Tree_nod@V?$_Tmap_traits@PBUITEM_INFO@@KU?$less@PBUITEM_INFO@@@std@@V?$allocator@U?$pair@QBUITEM_INFO@@K@std@@@3@$0A@@std@@@2@@Z 005d10c0 f i DissolveDialog.obj
 0002:000990d0       ?size@?$_Tree@V?$_Tmap_traits@PBUITEM_INFO@@KU?$less@PBUITEM_INFO@@@std@@V?$allocator@U?$pair@QBUITEM_INFO@@K@std@@@3@$0A@@std@@@std@@QBEIXZ 005d10d0 f i DissolveDialog.obj
 0002:000990e0       ?insert@?$_Tree@V?$_Tmap_traits@PBUITEM_INFO@@KU?$less@PBUITEM_INFO@@@std@@V?$allocator@U?$pair@QBUITEM_INFO@@K@std@@@3@$0A@@std@@@std@@QAE?AU?$pair@Viterator@?$_Tree@V?$_Tmap_traits@PBUITEM_INFO@@KU?$less@PBUITEM_INFO@@@std@@V?$allocator@U?$pair@QBUITEM_INFO@@K@std@@@3@$0A@@std@@@std@@_N@2@ABU?$pair@QBUITEM_INFO@@K@2@@Z 005d10e0 f i DissolveDialog.obj
 0002:00099260       ?erase@?$_Tree@V?$_Tmap_traits@PBUITEM_INFO@@KU?$less@PBUITEM_INFO@@@std@@V?$allocator@U?$pair@QBUITEM_INFO@@K@std@@@3@$0A@@std@@@std@@QAE?AViterator@12@V312@0@Z 005d1260 f i DissolveDialog.obj
 0002:00099340       ?_Init@?$_Tree@V?$_Tmap_traits@PBUITEM_INFO@@KU?$less@PBUITEM_INFO@@@std@@V?$allocator@U?$pair@QBUITEM_INFO@@K@std@@@3@$0A@@std@@@std@@IAEXXZ 005d1340 f i DissolveDialog.obj
 0002:000993a0       ?_Insert@?$_Tree@V?$_Tmap_traits@PBUITEM_INFO@@KU?$less@PBUITEM_INFO@@@std@@V?$allocator@U?$pair@QBUITEM_INFO@@K@std@@@3@$0A@@std@@@std@@IAE?AViterator@12@_NPAU_Node@?$_Tree_nod@V?$_Tmap_traits@PBUITEM_INFO@@KU?$less@PBUITEM_INFO@@@std@@V?$allocator@U?$pair@QBUITEM_INFO@@K@std@@@3@$0A@@std@@@2@ABU?$pair@QBUITEM_INFO@@K@2@@Z 005d13a0 f i DissolveDialog.obj
 0002:00099720       ?_Lbound@?$_Tree@V?$_Tmap_traits@PBUITEM_INFO@@KU?$less@PBUITEM_INFO@@@std@@V?$allocator@U?$pair@QBUITEM_INFO@@K@std@@@3@$0A@@std@@@std@@IBEPAU_Node@?$_Tree_nod@V?$_Tmap_traits@PBUITEM_INFO@@KU?$less@PBUITEM_INFO@@@std@@V?$allocator@U?$pair@QBUITEM_INFO@@K@std@@@3@$0A@@std@@@2@ABQBUITEM_INFO@@@Z 005d1720 f i DissolveDialog.obj
 0002:000997a0       ?_Min@?$_Tree@V?$_Tmap_traits@PBUITEM_INFO@@KU?$less@PBUITEM_INFO@@@std@@V?$allocator@U?$pair@QBUITEM_INFO@@K@std@@@3@$0A@@std@@@std@@KAPAU_Node@?$_Tree_nod@V?$_Tmap_traits@PBUITEM_INFO@@KU?$less@PBUITEM_INFO@@@std@@V?$allocator@U?$pair@QBUITEM_INFO@@K@std@@@3@$0A@@std@@@2@PAU342@@Z 005d17a0 f i DissolveDialog.obj
 0002:000997f0       ?_Rmost@?$_Tree@V?$_Tmap_traits@PBUITEM_INFO@@KU?$less@PBUITEM_INFO@@@std@@V?$allocator@U?$pair@QBUITEM_INFO@@K@std@@@3@$0A@@std@@@std@@IAEAAPAU_Node@?$_Tree_nod@V?$_Tmap_traits@PBUITEM_INFO@@KU?$less@PBUITEM_INFO@@@std@@V?$allocator@U?$pair@QBUITEM_INFO@@K@std@@@3@$0A@@std@@@2@XZ 005d17f0 f i DissolveDialog.obj
 0002:00099800       ??0?$_Tree_val@V?$_Tmap_traits@PBUITEM_INFO@@KU?$less@PBUITEM_INFO@@@std@@V?$allocator@U?$pair@QBUITEM_INFO@@K@std@@@3@$0A@@std@@@std@@IAE@ABU?$less@PBUITEM_INFO@@@1@V?$allocator@U?$pair@QBUITEM_INFO@@K@std@@@1@@Z 005d1800 f i DissolveDialog.obj
 0002:00099840       ?_Kfn@?$_Tmap_traits@PBUITEM_INFO@@KU?$less@PBUITEM_INFO@@@std@@V?$allocator@U?$pair@QBUITEM_INFO@@K@std@@@3@$0A@@std@@SAABQBUITEM_INFO@@ABU?$pair@QBUITEM_INFO@@K@2@@Z 005d1840 f i DissolveDialog.obj
 0002:00099850       ??0?$allocator@U?$pair@QBUITEM_INFO@@K@std@@@std@@QAE@ABV01@@Z 005d1850 f i DissolveDialog.obj
 0002:00099860       ?deallocate@?$allocator@U_Node@?$_Tree_nod@V?$_Tmap_traits@PBUITEM_INFO@@KU?$less@PBUITEM_INFO@@@std@@V?$allocator@U?$pair@QBUITEM_INFO@@K@std@@@3@$0A@@std@@@std@@@std@@QAEXPAU_Node@?$_Tree_nod@V?$_Tmap_traits@PBUITEM_INFO@@KU?$less@PBUITEM_INFO@@@std@@V?$allocator@U?$pair@QBUITEM_INFO@@K@std@@@3@$0A@@std@@@2@I@Z 005d1860 f i DissolveDialog.obj
 0002:00099880       ?destroy@?$allocator@PAU_Node@?$_Tree_nod@V?$_Tmap_traits@PBUITEM_INFO@@KU?$less@PBUITEM_INFO@@@std@@V?$allocator@U?$pair@QBUITEM_INFO@@K@std@@@3@$0A@@std@@@std@@@std@@QAEXPAPAU_Node@?$_Tree_nod@V?$_Tmap_traits@PBUITEM_INFO@@KU?$less@PBUITEM_INFO@@@std@@V?$allocator@U?$pair@QBUITEM_INFO@@K@std@@@3@$0A@@std@@@2@@Z 005d1880 f i DissolveDialog.obj
 0002:000998a0       ??0const_iterator@?$_Tree@V?$_Tmap_traits@PBUITEM_INFO@@KU?$less@PBUITEM_INFO@@@std@@V?$allocator@U?$pair@QBUITEM_INFO@@K@std@@@3@$0A@@std@@@std@@QAE@PAU_Node@?$_Tree_nod@V?$_Tmap_traits@PBUITEM_INFO@@KU?$less@PBUITEM_INFO@@@std@@V?$allocator@U?$pair@QBUITEM_INFO@@K@std@@@3@$0A@@std@@@2@@Z 005d18a0 f i DissolveDialog.obj
 0002:000998b0       ??0iterator@?$_Tree@V?$_Tmap_traits@PBUITEM_INFO@@KU?$less@PBUITEM_INFO@@@std@@V?$allocator@U?$pair@QBUITEM_INFO@@K@std@@@3@$0A@@std@@@std@@QAE@XZ 005d18b0 f i DissolveDialog.obj
 0002:000998c0       ??Eiterator@?$_Tree@V?$_Tmap_traits@PBUITEM_INFO@@KU?$less@PBUITEM_INFO@@@std@@V?$allocator@U?$pair@QBUITEM_INFO@@K@std@@@3@$0A@@std@@@std@@QAEAAV012@XZ 005d18c0 f i DissolveDialog.obj
 0002:000998d0       ??Fiterator@?$_Tree@V?$_Tmap_traits@PBUITEM_INFO@@KU?$less@PBUITEM_INFO@@@std@@V?$allocator@U?$pair@QBUITEM_INFO@@K@std@@@3@$0A@@std@@@std@@QAEAAV012@XZ 005d18d0 f i DissolveDialog.obj
 0002:000998e0       ??Gconst_iterator@?$vector@PAVcIconGridDialog@@V?$allocator@PAVcIconGridDialog@@@std@@@std@@QBEHABV012@@Z 005d18e0 f i DissolveDialog.obj
 0002:00099900       ?_Color@?$_Tree@V?$_Tmap_traits@KUSlot@MSG_ITEM_DISSOLVE_SYN@@U?$less@K@std@@V?$allocator@U?$pair@$$CBKUSlot@MSG_ITEM_DISSOLVE_SYN@@@std@@@4@$0A@@std@@@std@@KAAADPAU_Node@?$_Tree_nod@V?$_Tmap_traits@KUSlot@MSG_ITEM_DISSOLVE_SYN@@U?$less@K@std@@V?$allocator@U?$pair@$$CBKUSlot@MSG_ITEM_DISSOLVE_SYN@@@std@@@4@$0A@@std@@@2@@Z 005d1900 f i DissolveDialog.obj
 0002:00099910       ?max_size@?$_Tree@V?$_Tmap_traits@KUSlot@MSG_ITEM_DISSOLVE_SYN@@U?$less@K@std@@V?$allocator@U?$pair@$$CBKUSlot@MSG_ITEM_DISSOLVE_SYN@@@std@@@4@$0A@@std@@@std@@QBEIXZ 005d1910 f i DissolveDialog.obj
 0002:00099920       ?erase@?$_Tree@V?$_Tmap_traits@KUSlot@MSG_ITEM_DISSOLVE_SYN@@U?$less@K@std@@V?$allocator@U?$pair@$$CBKUSlot@MSG_ITEM_DISSOLVE_SYN@@@std@@@4@$0A@@std@@@std@@QAE?AViterator@12@V312@@Z 005d1920 f i DissolveDialog.obj
 0002:00099ff0       ?clear@?$_Tree@V?$_Tmap_traits@KUSlot@MSG_ITEM_DISSOLVE_SYN@@U?$less@K@std@@V?$allocator@U?$pair@$$CBKUSlot@MSG_ITEM_DISSOLVE_SYN@@@std@@@4@$0A@@std@@@std@@QAEXXZ 005d1ff0 f i DissolveDialog.obj
 0002:0009a040       ?_Lrotate@?$_Tree@V?$_Tmap_traits@KUSlot@MSG_ITEM_DISSOLVE_SYN@@U?$less@K@std@@V?$allocator@U?$pair@$$CBKUSlot@MSG_ITEM_DISSOLVE_SYN@@@std@@@4@$0A@@std@@@std@@IAEXPAU_Node@?$_Tree_nod@V?$_Tmap_traits@KUSlot@MSG_ITEM_DISSOLVE_SYN@@U?$less@K@std@@V?$allocator@U?$pair@$$CBKUSlot@MSG_ITEM_DISSOLVE_SYN@@@std@@@4@$0A@@std@@@2@@Z 005d2040 f i DissolveDialog.obj
 0002:0009a110       ?_Min@?$_Tree@V?$_Tmap_traits@KUSlot@MSG_ITEM_DISSOLVE_SYN@@U?$less@K@std@@V?$allocator@U?$pair@$$CBKUSlot@MSG_ITEM_DISSOLVE_SYN@@@std@@@4@$0A@@std@@@std@@KAPAU_Node@?$_Tree_nod@V?$_Tmap_traits@KUSlot@MSG_ITEM_DISSOLVE_SYN@@U?$less@K@std@@V?$allocator@U?$pair@$$CBKUSlot@MSG_ITEM_DISSOLVE_SYN@@@std@@@4@$0A@@std@@@2@PAU342@@Z 005d2110 f i DissolveDialog.obj
 0002:0009a160       ?_Root@?$_Tree@V?$_Tmap_traits@KUSlot@MSG_ITEM_DISSOLVE_SYN@@U?$less@K@std@@V?$allocator@U?$pair@$$CBKUSlot@MSG_ITEM_DISSOLVE_SYN@@@std@@@4@$0A@@std@@@std@@IAEAAPAU_Node@?$_Tree_nod@V?$_Tmap_traits@KUSlot@MSG_ITEM_DISSOLVE_SYN@@U?$less@K@std@@V?$allocator@U?$pair@$$CBKUSlot@MSG_ITEM_DISSOLVE_SYN@@@std@@@4@$0A@@std@@@2@XZ 005d2160 f i DissolveDialog.obj
 0002:0009a170       ?_Root@?$_Tree@V?$_Tmap_traits@KUSlot@MSG_ITEM_DISSOLVE_SYN@@U?$less@K@std@@V?$allocator@U?$pair@$$CBKUSlot@MSG_ITEM_DISSOLVE_SYN@@@std@@@4@$0A@@std@@@std@@IBEAAPAU_Node@?$_Tree_nod@V?$_Tmap_traits@KUSlot@MSG_ITEM_DISSOLVE_SYN@@U?$less@K@std@@V?$allocator@U?$pair@$$CBKUSlot@MSG_ITEM_DISSOLVE_SYN@@@std@@@4@$0A@@std@@@2@XZ 005d2170 f i DissolveDialog.obj
 0002:0009a180       ?_Rrotate@?$_Tree@V?$_Tmap_traits@KUSlot@MSG_ITEM_DISSOLVE_SYN@@U?$less@K@std@@V?$allocator@U?$pair@$$CBKUSlot@MSG_ITEM_DISSOLVE_SYN@@@std@@@4@$0A@@std@@@std@@IAEXPAU_Node@?$_Tree_nod@V?$_Tmap_traits@KUSlot@MSG_ITEM_DISSOLVE_SYN@@U?$less@K@std@@V?$allocator@U?$pair@$$CBKUSlot@MSG_ITEM_DISSOLVE_SYN@@@std@@@4@$0A@@std@@@2@@Z 005d2180 f i DissolveDialog.obj
 0002:0009a250       ?_Buynode@?$_Tree@V?$_Tmap_traits@KUSlot@MSG_ITEM_DISSOLVE_SYN@@U?$less@K@std@@V?$allocator@U?$pair@$$CBKUSlot@MSG_ITEM_DISSOLVE_SYN@@@std@@@4@$0A@@std@@@std@@IAEPAU_Node@?$_Tree_nod@V?$_Tmap_traits@KUSlot@MSG_ITEM_DISSOLVE_SYN@@U?$less@K@std@@V?$allocator@U?$pair@$$CBKUSlot@MSG_ITEM_DISSOLVE_SYN@@@std@@@4@$0A@@std@@@2@XZ 005d2250 f i DissolveDialog.obj
 0002:0009a3b0       ?_Buynode@?$_Tree@V?$_Tmap_traits@KUSlot@MSG_ITEM_DISSOLVE_SYN@@U?$less@K@std@@V?$allocator@U?$pair@$$CBKUSlot@MSG_ITEM_DISSOLVE_SYN@@@std@@@4@$0A@@std@@@std@@IAEPAU_Node@?$_Tree_nod@V?$_Tmap_traits@KUSlot@MSG_ITEM_DISSOLVE_SYN@@U?$less@K@std@@V?$allocator@U?$pair@$$CBKUSlot@MSG_ITEM_DISSOLVE_SYN@@@std@@@4@$0A@@std@@@2@PAU342@00ABU?$pair@$$CBKUSlot@MSG_ITEM_DISSOLVE_SYN@@@2@D@Z 005d23b0 f i DissolveDialog.obj
 0002:0009a470       ??0?$_Tree_ptr@V?$_Tmap_traits@KUSlot@MSG_ITEM_DISSOLVE_SYN@@U?$less@K@std@@V?$allocator@U?$pair@$$CBKUSlot@MSG_ITEM_DISSOLVE_SYN@@@std@@@4@$0A@@std@@@std@@IAE@ABU?$less@K@1@V?$allocator@U?$pair@$$CBKUSlot@MSG_ITEM_DISSOLVE_SYN@@@std@@@1@@Z 005d2470 f i DissolveDialog.obj
 0002:0009a4b0       ??Eiterator@?$_Tree@V?$_Tmap_traits@KUSlot@MSG_ITEM_DISSOLVE_SYN@@U?$less@K@std@@V?$allocator@U?$pair@$$CBKUSlot@MSG_ITEM_DISSOLVE_SYN@@@std@@@4@$0A@@std@@@std@@QAE?AV012@H@Z 005d24b0 f i DissolveDialog.obj
 0002:0009a4d0       ??0const_iterator@?$_Tree@V?$_Tmap_traits@KUSlot@MSG_ITEM_DISSOLVE_SYN@@U?$less@K@std@@V?$allocator@U?$pair@$$CBKUSlot@MSG_ITEM_DISSOLVE_SYN@@@std@@@4@$0A@@std@@@std@@QAE@XZ 005d24d0 f i DissolveDialog.obj
 0002:0009a4e0       ??Fconst_iterator@?$_Tree@V?$_Tmap_traits@KUSlot@MSG_ITEM_DISSOLVE_SYN@@U?$less@K@std@@V?$allocator@U?$pair@$$CBKUSlot@MSG_ITEM_DISSOLVE_SYN@@@std@@@4@$0A@@std@@@std@@QAEAAV012@XZ 005d24e0 f i DissolveDialog.obj
 0002:0009a4f0       ??Gconst_iterator@?$vector@PAVCItemShow@@V?$allocator@PAVCItemShow@@@std@@@std@@QBEHABV012@@Z 005d24f0 f i DissolveDialog.obj
 0002:0009a510       ?_Color@?$_Tree@V?$_Tmap_traits@PBUITEM_INFO@@KU?$less@PBUITEM_INFO@@@std@@V?$allocator@U?$pair@QBUITEM_INFO@@K@std@@@3@$0A@@std@@@std@@KAAADPAU_Node@?$_Tree_nod@V?$_Tmap_traits@PBUITEM_INFO@@KU?$less@PBUITEM_INFO@@@std@@V?$allocator@U?$pair@QBUITEM_INFO@@K@std@@@3@$0A@@std@@@2@@Z 005d2510 f i DissolveDialog.obj
 0002:0009a520       ?max_size@?$_Tree@V?$_Tmap_traits@PBUITEM_INFO@@KU?$less@PBUITEM_INFO@@@std@@V?$allocator@U?$pair@QBUITEM_INFO@@K@std@@@3@$0A@@std@@@std@@QBEIXZ 005d2520 f i DissolveDialog.obj
 0002:0009a530       ?erase@?$_Tree@V?$_Tmap_traits@PBUITEM_INFO@@KU?$less@PBUITEM_INFO@@@std@@V?$allocator@U?$pair@QBUITEM_INFO@@K@std@@@3@$0A@@std@@@std@@QAE?AViterator@12@V312@@Z 005d2530 f i DissolveDialog.obj
 0002:0009ac00       ?clear@?$_Tree@V?$_Tmap_traits@PBUITEM_INFO@@KU?$less@PBUITEM_INFO@@@std@@V?$allocator@U?$pair@QBUITEM_INFO@@K@std@@@3@$0A@@std@@@std@@QAEXXZ 005d2c00 f i DissolveDialog.obj
 0002:0009ac50       ?_Lrotate@?$_Tree@V?$_Tmap_traits@PBUITEM_INFO@@KU?$less@PBUITEM_INFO@@@std@@V?$allocator@U?$pair@QBUITEM_INFO@@K@std@@@3@$0A@@std@@@std@@IAEXPAU_Node@?$_Tree_nod@V?$_Tmap_traits@PBUITEM_INFO@@KU?$less@PBUITEM_INFO@@@std@@V?$allocator@U?$pair@QBUITEM_INFO@@K@std@@@3@$0A@@std@@@2@@Z 005d2c50 f i DissolveDialog.obj
 0002:0009ad20       ?_Root@?$_Tree@V?$_Tmap_traits@PBUITEM_INFO@@KU?$less@PBUITEM_INFO@@@std@@V?$allocator@U?$pair@QBUITEM_INFO@@K@std@@@3@$0A@@std@@@std@@IAEAAPAU_Node@?$_Tree_nod@V?$_Tmap_traits@PBUITEM_INFO@@KU?$less@PBUITEM_INFO@@@std@@V?$allocator@U?$pair@QBUITEM_INFO@@K@std@@@3@$0A@@std@@@2@XZ 005d2d20 f i DissolveDialog.obj
 0002:0009ad30       ?_Root@?$_Tree@V?$_Tmap_traits@PBUITEM_INFO@@KU?$less@PBUITEM_INFO@@@std@@V?$allocator@U?$pair@QBUITEM_INFO@@K@std@@@3@$0A@@std@@@std@@IBEAAPAU_Node@?$_Tree_nod@V?$_Tmap_traits@PBUITEM_INFO@@KU?$less@PBUITEM_INFO@@@std@@V?$allocator@U?$pair@QBUITEM_INFO@@K@std@@@3@$0A@@std@@@2@XZ 005d2d30 f i DissolveDialog.obj
 0002:0009ad40       ?_Rrotate@?$_Tree@V?$_Tmap_traits@PBUITEM_INFO@@KU?$less@PBUITEM_INFO@@@std@@V?$allocator@U?$pair@QBUITEM_INFO@@K@std@@@3@$0A@@std@@@std@@IAEXPAU_Node@?$_Tree_nod@V?$_Tmap_traits@PBUITEM_INFO@@KU?$less@PBUITEM_INFO@@@std@@V?$allocator@U?$pair@QBUITEM_INFO@@K@std@@@3@$0A@@std@@@2@@Z 005d2d40 f i DissolveDialog.obj
 0002:0009ae10       ?_Buynode@?$_Tree@V?$_Tmap_traits@PBUITEM_INFO@@KU?$less@PBUITEM_INFO@@@std@@V?$allocator@U?$pair@QBUITEM_INFO@@K@std@@@3@$0A@@std@@@std@@IAEPAU_Node@?$_Tree_nod@V?$_Tmap_traits@PBUITEM_INFO@@KU?$less@PBUITEM_INFO@@@std@@V?$allocator@U?$pair@QBUITEM_INFO@@K@std@@@3@$0A@@std@@@2@XZ 005d2e10 f i DissolveDialog.obj
 0002:0009af70       ?_Buynode@?$_Tree@V?$_Tmap_traits@PBUITEM_INFO@@KU?$less@PBUITEM_INFO@@@std@@V?$allocator@U?$pair@QBUITEM_INFO@@K@std@@@3@$0A@@std@@@std@@IAEPAU_Node@?$_Tree_nod@V?$_Tmap_traits@PBUITEM_INFO@@KU?$less@PBUITEM_INFO@@@std@@V?$allocator@U?$pair@QBUITEM_INFO@@K@std@@@3@$0A@@std@@@2@PAU342@00ABU?$pair@QBUITEM_INFO@@K@2@D@Z 005d2f70 f i DissolveDialog.obj
 0002:0009b030       ??0?$_Tree_ptr@V?$_Tmap_traits@PBUITEM_INFO@@KU?$less@PBUITEM_INFO@@@std@@V?$allocator@U?$pair@QBUITEM_INFO@@K@std@@@3@$0A@@std@@@std@@IAE@ABU?$less@PBUITEM_INFO@@@1@V?$allocator@U?$pair@QBUITEM_INFO@@K@std@@@1@@Z 005d3030 f i DissolveDialog.obj
 0002:0009b070       ??0const_iterator@?$_Tree@V?$_Tmap_traits@PBUITEM_INFO@@KU?$less@PBUITEM_INFO@@@std@@V?$allocator@U?$pair@QBUITEM_INFO@@K@std@@@3@$0A@@std@@@std@@QAE@XZ 005d3070 f i DissolveDialog.obj
 0002:0009b080       ??Fconst_iterator@?$_Tree@V?$_Tmap_traits@PBUITEM_INFO@@KU?$less@PBUITEM_INFO@@@std@@V?$allocator@U?$pair@QBUITEM_INFO@@K@std@@@3@$0A@@std@@@std@@QAEAAV012@XZ 005d3080 f i DissolveDialog.obj
 0002:0009b090       ??Eiterator@?$_Tree@V?$_Tmap_traits@PBUITEM_INFO@@KU?$less@PBUITEM_INFO@@@std@@V?$allocator@U?$pair@QBUITEM_INFO@@K@std@@@3@$0A@@std@@@std@@QAE?AV012@H@Z 005d3090 f i DissolveDialog.obj
 0002:0009b0b0       ??0?$pair@Viterator@?$_Tree@V?$_Tmap_traits@KUSlot@MSG_ITEM_DISSOLVE_SYN@@U?$less@K@std@@V?$allocator@U?$pair@$$CBKUSlot@MSG_ITEM_DISSOLVE_SYN@@@std@@@4@$0A@@std@@@std@@_N@std@@QAE@ABViterator@?$_Tree@V?$_Tmap_traits@KUSlot@MSG_ITEM_DISSOLVE_SYN@@U?$less@K@std@@V?$allocator@U?$pair@$$CBKUSlot@MSG_ITEM_DISSOLVE_SYN@@@std@@@4@$0A@@std@@@1@AB_N@Z 005d30b0 f i DissolveDialog.obj
 0002:0009b0d0       ??0?$pair@Viterator@?$_Tree@V?$_Tmap_traits@PBUITEM_INFO@@KU?$less@PBUITEM_INFO@@@std@@V?$allocator@U?$pair@QBUITEM_INFO@@K@std@@@3@$0A@@std@@@std@@_N@std@@QAE@ABViterator@?$_Tree@V?$_Tmap_traits@PBUITEM_INFO@@KU?$less@PBUITEM_INFO@@@std@@V?$allocator@U?$pair@QBUITEM_INFO@@K@std@@@3@$0A@@std@@@1@AB_N@Z 005d30d0 f i DissolveDialog.obj
 0002:0009b0f0       ?_Erase@?$_Tree@V?$_Tmap_traits@KUSlot@MSG_ITEM_DISSOLVE_SYN@@U?$less@K@std@@V?$allocator@U?$pair@$$CBKUSlot@MSG_ITEM_DISSOLVE_SYN@@@std@@@4@$0A@@std@@@std@@IAEXPAU_Node@?$_Tree_nod@V?$_Tmap_traits@KUSlot@MSG_ITEM_DISSOLVE_SYN@@U?$less@K@std@@V?$allocator@U?$pair@$$CBKUSlot@MSG_ITEM_DISSOLVE_SYN@@@std@@@4@$0A@@std@@@2@@Z 005d30f0 f i DissolveDialog.obj
 0002:0009b180       ?_Max@?$_Tree@V?$_Tmap_traits@KUSlot@MSG_ITEM_DISSOLVE_SYN@@U?$less@K@std@@V?$allocator@U?$pair@$$CBKUSlot@MSG_ITEM_DISSOLVE_SYN@@@std@@@4@$0A@@std@@@std@@KAPAU_Node@?$_Tree_nod@V?$_Tmap_traits@KUSlot@MSG_ITEM_DISSOLVE_SYN@@U?$less@K@std@@V?$allocator@U?$pair@$$CBKUSlot@MSG_ITEM_DISSOLVE_SYN@@@std@@@4@$0A@@std@@@2@PAU342@@Z 005d3180 f i DissolveDialog.obj
 0002:0009b1d0       ??0?$_Tree_nod@V?$_Tmap_traits@KUSlot@MSG_ITEM_DISSOLVE_SYN@@U?$less@K@std@@V?$allocator@U?$pair@$$CBKUSlot@MSG_ITEM_DISSOLVE_SYN@@@std@@@4@$0A@@std@@@std@@IAE@ABU?$less@K@1@V?$allocator@U?$pair@$$CBKUSlot@MSG_ITEM_DISSOLVE_SYN@@@std@@@1@@Z 005d31d0 f i DissolveDialog.obj
 0002:0009b200       ?max_size@?$allocator@U?$pair@$$CBKUSlot@MSG_ITEM_DISSOLVE_SYN@@@std@@@std@@QBEIXZ 005d3200 f i DissolveDialog.obj
 0002:0009b210       ?allocate@?$allocator@U_Node@?$_Tree_nod@V?$_Tmap_traits@KUSlot@MSG_ITEM_DISSOLVE_SYN@@U?$less@K@std@@V?$allocator@U?$pair@$$CBKUSlot@MSG_ITEM_DISSOLVE_SYN@@@std@@@4@$0A@@std@@@std@@@std@@QAEPAU_Node@?$_Tree_nod@V?$_Tmap_traits@KUSlot@MSG_ITEM_DISSOLVE_SYN@@U?$less@K@std@@V?$allocator@U?$pair@$$CBKUSlot@MSG_ITEM_DISSOLVE_SYN@@@std@@@4@$0A@@std@@@2@I@Z 005d3210 f i DissolveDialog.obj
 0002:0009b230       ?destroy@?$allocator@U_Node@?$_Tree_nod@V?$_Tmap_traits@KUSlot@MSG_ITEM_DISSOLVE_SYN@@U?$less@K@std@@V?$allocator@U?$pair@$$CBKUSlot@MSG_ITEM_DISSOLVE_SYN@@@std@@@4@$0A@@std@@@std@@@std@@QAEXPAU_Node@?$_Tree_nod@V?$_Tmap_traits@KUSlot@MSG_ITEM_DISSOLVE_SYN@@U?$less@K@std@@V?$allocator@U?$pair@$$CBKUSlot@MSG_ITEM_DISSOLVE_SYN@@@std@@@4@$0A@@std@@@2@@Z 005d3230 f i DissolveDialog.obj
 0002:0009b250       ?construct@?$allocator@PAU_Node@?$_Tree_nod@V?$_Tmap_traits@KUSlot@MSG_ITEM_DISSOLVE_SYN@@U?$less@K@std@@V?$allocator@U?$pair@$$CBKUSlot@MSG_ITEM_DISSOLVE_SYN@@@std@@@4@$0A@@std@@@std@@@std@@QAEXPAPAU_Node@?$_Tree_nod@V?$_Tmap_traits@KUSlot@MSG_ITEM_DISSOLVE_SYN@@U?$less@K@std@@V?$allocator@U?$pair@$$CBKUSlot@MSG_ITEM_DISSOLVE_SYN@@@std@@@4@$0A@@std@@@2@ABQAU342@@Z 005d3250 f i DissolveDialog.obj
 0002:0009b270       ?_Dec@const_iterator@?$_Tree@V?$_Tmap_traits@KUSlot@MSG_ITEM_DISSOLVE_SYN@@U?$less@K@std@@V?$allocator@U?$pair@$$CBKUSlot@MSG_ITEM_DISSOLVE_SYN@@@std@@@4@$0A@@std@@@std@@QAEXXZ 005d3270 f i DissolveDialog.obj
 0002:0009b340       ?_Erase@?$_Tree@V?$_Tmap_traits@PBUITEM_INFO@@KU?$less@PBUITEM_INFO@@@std@@V?$allocator@U?$pair@QBUITEM_INFO@@K@std@@@3@$0A@@std@@@std@@IAEXPAU_Node@?$_Tree_nod@V?$_Tmap_traits@PBUITEM_INFO@@KU?$less@PBUITEM_INFO@@@std@@V?$allocator@U?$pair@QBUITEM_INFO@@K@std@@@3@$0A@@std@@@2@@Z 005d3340 f i DissolveDialog.obj
 0002:0009b3d0       ?_Max@?$_Tree@V?$_Tmap_traits@PBUITEM_INFO@@KU?$less@PBUITEM_INFO@@@std@@V?$allocator@U?$pair@QBUITEM_INFO@@K@std@@@3@$0A@@std@@@std@@KAPAU_Node@?$_Tree_nod@V?$_Tmap_traits@PBUITEM_INFO@@KU?$less@PBUITEM_INFO@@@std@@V?$allocator@U?$pair@QBUITEM_INFO@@K@std@@@3@$0A@@std@@@2@PAU342@@Z 005d33d0 f i DissolveDialog.obj
 0002:0009b420       ??0?$_Tree_nod@V?$_Tmap_traits@PBUITEM_INFO@@KU?$less@PBUITEM_INFO@@@std@@V?$allocator@U?$pair@QBUITEM_INFO@@K@std@@@3@$0A@@std@@@std@@IAE@ABU?$less@PBUITEM_INFO@@@1@V?$allocator@U?$pair@QBUITEM_INFO@@K@std@@@1@@Z 005d3420 f i DissolveDialog.obj
 0002:0009b450       ?max_size@?$allocator@U?$pair@QBUITEM_INFO@@K@std@@@std@@QBEIXZ 005d3450 f i DissolveDialog.obj
 0002:0009b460       ?allocate@?$allocator@U_Node@?$_Tree_nod@V?$_Tmap_traits@PBUITEM_INFO@@KU?$less@PBUITEM_INFO@@@std@@V?$allocator@U?$pair@QBUITEM_INFO@@K@std@@@3@$0A@@std@@@std@@@std@@QAEPAU_Node@?$_Tree_nod@V?$_Tmap_traits@PBUITEM_INFO@@KU?$less@PBUITEM_INFO@@@std@@V?$allocator@U?$pair@QBUITEM_INFO@@K@std@@@3@$0A@@std@@@2@I@Z 005d3460 f i DissolveDialog.obj
 0002:0009b480       ?destroy@?$allocator@U_Node@?$_Tree_nod@V?$_Tmap_traits@PBUITEM_INFO@@KU?$less@PBUITEM_INFO@@@std@@V?$allocator@U?$pair@QBUITEM_INFO@@K@std@@@3@$0A@@std@@@std@@@std@@QAEXPAU_Node@?$_Tree_nod@V?$_Tmap_traits@PBUITEM_INFO@@KU?$less@PBUITEM_INFO@@@std@@V?$allocator@U?$pair@QBUITEM_INFO@@K@std@@@3@$0A@@std@@@2@@Z 005d3480 f i DissolveDialog.obj
 0002:0009b4a0       ?construct@?$allocator@PAU_Node@?$_Tree_nod@V?$_Tmap_traits@PBUITEM_INFO@@KU?$less@PBUITEM_INFO@@@std@@V?$allocator@U?$pair@QBUITEM_INFO@@K@std@@@3@$0A@@std@@@std@@@std@@QAEXPAPAU_Node@?$_Tree_nod@V?$_Tmap_traits@PBUITEM_INFO@@KU?$less@PBUITEM_INFO@@@std@@V?$allocator@U?$pair@QBUITEM_INFO@@K@std@@@3@$0A@@std@@@2@ABQAU342@@Z 005d34a0 f i DissolveDialog.obj
 0002:0009b4c0       ?_Dec@const_iterator@?$_Tree@V?$_Tmap_traits@PBUITEM_INFO@@KU?$less@PBUITEM_INFO@@@std@@V?$allocator@U?$pair@QBUITEM_INFO@@K@std@@@3@$0A@@std@@@std@@QAEXXZ 005d34c0 f i DissolveDialog.obj
 0002:0009b590       ??0_Node@?$_Tree_nod@V?$_Tmap_traits@KUSlot@MSG_ITEM_DISSOLVE_SYN@@U?$less@K@std@@V?$allocator@U?$pair@$$CBKUSlot@MSG_ITEM_DISSOLVE_SYN@@@std@@@4@$0A@@std@@@std@@QAE@PAU012@00ABU?$pair@$$CBKUSlot@MSG_ITEM_DISSOLVE_SYN@@@2@D@Z 005d3590 f i DissolveDialog.obj
 0002:0009b5f0       ??0_Node@?$_Tree_nod@V?$_Tmap_traits@PBUITEM_INFO@@KU?$less@PBUITEM_INFO@@@std@@V?$allocator@U?$pair@QBUITEM_INFO@@K@std@@@3@$0A@@std@@@std@@QAE@PAU012@00ABU?$pair@QBUITEM_INFO@@K@2@D@Z 005d35f0 f i DissolveDialog.obj
 0002:0009b630       ??0?$_Tmap_traits@KUSlot@MSG_ITEM_DISSOLVE_SYN@@U?$less@K@std@@V?$allocator@U?$pair@$$CBKUSlot@MSG_ITEM_DISSOLVE_SYN@@@std@@@4@$0A@@std@@QAE@U?$less@K@1@@Z 005d3630 f i DissolveDialog.obj
 0002:0009b640       ??0?$_Tmap_traits@PBUITEM_INFO@@KU?$less@PBUITEM_INFO@@@std@@V?$allocator@U?$pair@QBUITEM_INFO@@K@std@@@3@$0A@@std@@QAE@U?$less@PBUITEM_INFO@@@1@@Z 005d3640 f i DissolveDialog.obj
 0002:0009b650       ??$_Ucopy@Viterator@?$vector@PAVcIconGridDialog@@V?$allocator@PAVcIconGridDialog@@@std@@@std@@@?$vector@PAVcIconGridDialog@@V?$allocator@PAVcIconGridDialog@@@std@@@std@@IAEPAPAVcIconGridDialog@@Viterator@01@0PAPAV2@@Z 005d3650 f i DissolveDialog.obj
 0002:0009b680       ??$_Ucopy@Viterator@?$vector@PAVCItemShow@@V?$allocator@PAVCItemShow@@@std@@@std@@@?$vector@PAVCItemShow@@V?$allocator@PAVCItemShow@@@std@@@std@@IAEPAPAVCItemShow@@Viterator@01@0PAPAV2@@Z 005d3680 f i DissolveDialog.obj
 0002:0009b6b0       ??$_Destroy_range@PAVcIconGridDialog@@V?$allocator@PAVcIconGridDialog@@@std@@@std@@YAXPAPAVcIconGridDialog@@0AAV?$allocator@PAVcIconGridDialog@@@0@@Z 005d36b0 f i DissolveDialog.obj
 0002:0009b6f0       ??$_Uninitialized_fill_n@PAPAVcIconGridDialog@@IPAV1@V?$allocator@PAVcIconGridDialog@@@std@@@std@@YAXPAPAVcIconGridDialog@@IABQAV1@AAV?$allocator@PAVcIconGridDialog@@@0@@Z 005d36f0 f i DissolveDialog.obj
 0002:0009b730       ??$_Allocate@PAVcIconGridDialog@@@std@@YAPAPAVcIconGridDialog@@IPAPAV1@@Z 005d3730 f i DissolveDialog.obj
 0002:0009b750       ??$_Destroy_range@PAVCItemShow@@V?$allocator@PAVCItemShow@@@std@@@std@@YAXPAPAVCItemShow@@0AAV?$allocator@PAVCItemShow@@@0@@Z 005d3750 f i DissolveDialog.obj
 0002:0009b790       ??$_Uninitialized_fill_n@PAPAVCItemShow@@IPAV1@V?$allocator@PAVCItemShow@@@std@@@std@@YAXPAPAVCItemShow@@IABQAV1@AAV?$allocator@PAVCItemShow@@@0@@Z 005d3790 f i DissolveDialog.obj
 0002:0009b7d0       ??$_Allocate@PAVCItemShow@@@std@@YAPAPAVCItemShow@@IPAPAV1@@Z 005d37d0 f i DissolveDialog.obj
 0002:0009b7f0       ??$_Ucopy@PAPAVcIconGridDialog@@@?$vector@PAVcIconGridDialog@@V?$allocator@PAVcIconGridDialog@@@std@@@std@@IAEPAPAVcIconGridDialog@@PAPAV2@00@Z 005d37f0 f i DissolveDialog.obj
 0002:0009b820       ??$fill@PAPAVcIconGridDialog@@PAV1@@std@@YAXPAPAVcIconGridDialog@@0ABQAV1@@Z 005d3820 f i DissolveDialog.obj
 0002:0009b850       ??$copy_backward@PAPAVcIconGridDialog@@PAPAV1@@std@@YAPAPAVcIconGridDialog@@PAPAV1@00@Z 005d3850 f i DissolveDialog.obj
 0002:0009b890       ??$_Ucopy@PAPAVCItemShow@@@?$vector@PAVCItemShow@@V?$allocator@PAVCItemShow@@@std@@@std@@IAEPAPAVCItemShow@@PAPAV2@00@Z 005d3890 f i DissolveDialog.obj
 0002:0009b8c0       ??$fill@PAPAVCItemShow@@PAV1@@std@@YAXPAPAVCItemShow@@0ABQAV1@@Z 005d38c0 f i DissolveDialog.obj
 0002:0009b8f0       ??$copy_backward@PAPAVCItemShow@@PAPAV1@@std@@YAPAPAVCItemShow@@PAPAV1@00@Z 005d38f0 f i DissolveDialog.obj
 0002:0009b930       ??$_Destroy@PAU_Node@?$_Tree_nod@V?$_Tmap_traits@KUSlot@MSG_ITEM_DISSOLVE_SYN@@U?$less@K@std@@V?$allocator@U?$pair@$$CBKUSlot@MSG_ITEM_DISSOLVE_SYN@@@std@@@4@$0A@@std@@@std@@@std@@YAXPAPAU_Node@?$_Tree_nod@V?$_Tmap_traits@KUSlot@MSG_ITEM_DISSOLVE_SYN@@U?$less@K@std@@V?$allocator@U?$pair@$$CBKUSlot@MSG_ITEM_DISSOLVE_SYN@@@std@@@4@$0A@@std@@@0@@Z 005d3930 f i DissolveDialog.obj
 0002:0009b940       ??$_Destroy@PAU_Node@?$_Tree_nod@V?$_Tmap_traits@PBUITEM_INFO@@KU?$less@PBUITEM_INFO@@@std@@V?$allocator@U?$pair@QBUITEM_INFO@@K@std@@@3@$0A@@std@@@std@@@std@@YAXPAPAU_Node@?$_Tree_nod@V?$_Tmap_traits@PBUITEM_INFO@@KU?$less@PBUITEM_INFO@@@std@@V?$allocator@U?$pair@QBUITEM_INFO@@K@std@@@3@$0A@@std@@@0@@Z 005d3940 f i DissolveDialog.obj
 0002:0009b950       ??$?0U?$pair@$$CBKUSlot@MSG_ITEM_DISSOLVE_SYN@@@std@@@?$allocator@PAU_Node@?$_Tree_nod@V?$_Tmap_traits@KUSlot@MSG_ITEM_DISSOLVE_SYN@@U?$less@K@std@@V?$allocator@U?$pair@$$CBKUSlot@MSG_ITEM_DISSOLVE_SYN@@@std@@@4@$0A@@std@@@std@@@std@@QAE@ABV?$allocator@U?$pair@$$CBKUSlot@MSG_ITEM_DISSOLVE_SYN@@@std@@@1@@Z 005d3950 f i DissolveDialog.obj
 0002:0009b960       ??$?0U?$pair@QBUITEM_INFO@@K@std@@@?$allocator@PAU_Node@?$_Tree_nod@V?$_Tmap_traits@PBUITEM_INFO@@KU?$less@PBUITEM_INFO@@@std@@V?$allocator@U?$pair@QBUITEM_INFO@@K@std@@@3@$0A@@std@@@std@@@std@@QAE@ABV?$allocator@U?$pair@QBUITEM_INFO@@K@std@@@1@@Z 005d3960 f i DissolveDialog.obj
 0002:0009b970       ??$?0U?$pair@$$CBKUSlot@MSG_ITEM_DISSOLVE_SYN@@@std@@@?$allocator@U_Node@?$_Tree_nod@V?$_Tmap_traits@KUSlot@MSG_ITEM_DISSOLVE_SYN@@U?$less@K@std@@V?$allocator@U?$pair@$$CBKUSlot@MSG_ITEM_DISSOLVE_SYN@@@std@@@4@$0A@@std@@@std@@@std@@QAE@ABV?$allocator@U?$pair@$$CBKUSlot@MSG_ITEM_DISSOLVE_SYN@@@std@@@1@@Z 005d3970 f i DissolveDialog.obj
 0002:0009b980       ??$_Allocate@U_Node@?$_Tree_nod@V?$_Tmap_traits@KUSlot@MSG_ITEM_DISSOLVE_SYN@@U?$less@K@std@@V?$allocator@U?$pair@$$CBKUSlot@MSG_ITEM_DISSOLVE_SYN@@@std@@@4@$0A@@std@@@std@@@std@@YAPAU_Node@?$_Tree_nod@V?$_Tmap_traits@KUSlot@MSG_ITEM_DISSOLVE_SYN@@U?$less@K@std@@V?$allocator@U?$pair@$$CBKUSlot@MSG_ITEM_DISSOLVE_SYN@@@std@@@4@$0A@@std@@@0@IPAU120@@Z 005d3980 f i DissolveDialog.obj
 0002:0009b9a0       ??$_Destroy@U_Node@?$_Tree_nod@V?$_Tmap_traits@KUSlot@MSG_ITEM_DISSOLVE_SYN@@U?$less@K@std@@V?$allocator@U?$pair@$$CBKUSlot@MSG_ITEM_DISSOLVE_SYN@@@std@@@4@$0A@@std@@@std@@@std@@YAXPAU_Node@?$_Tree_nod@V?$_Tmap_traits@KUSlot@MSG_ITEM_DISSOLVE_SYN@@U?$less@K@std@@V?$allocator@U?$pair@$$CBKUSlot@MSG_ITEM_DISSOLVE_SYN@@@std@@@4@$0A@@std@@@0@@Z 005d39a0 f i DissolveDialog.obj
 0002:0009b9b0       ??$_Construct@PAU_Node@?$_Tree_nod@V?$_Tmap_traits@KUSlot@MSG_ITEM_DISSOLVE_SYN@@U?$less@K@std@@V?$allocator@U?$pair@$$CBKUSlot@MSG_ITEM_DISSOLVE_SYN@@@std@@@4@$0A@@std@@@std@@PAU123@@std@@YAXPAPAU_Node@?$_Tree_nod@V?$_Tmap_traits@KUSlot@MSG_ITEM_DISSOLVE_SYN@@U?$less@K@std@@V?$allocator@U?$pair@$$CBKUSlot@MSG_ITEM_DISSOLVE_SYN@@@std@@@4@$0A@@std@@@0@ABQAU120@@Z 005d39b0 f i DissolveDialog.obj
 0002:0009b9e0       ??$?0U?$pair@QBUITEM_INFO@@K@std@@@?$allocator@U_Node@?$_Tree_nod@V?$_Tmap_traits@PBUITEM_INFO@@KU?$less@PBUITEM_INFO@@@std@@V?$allocator@U?$pair@QBUITEM_INFO@@K@std@@@3@$0A@@std@@@std@@@std@@QAE@ABV?$allocator@U?$pair@QBUITEM_INFO@@K@std@@@1@@Z 005d39e0 f i DissolveDialog.obj
 0002:0009b9f0       ??$_Allocate@U_Node@?$_Tree_nod@V?$_Tmap_traits@PBUITEM_INFO@@KU?$less@PBUITEM_INFO@@@std@@V?$allocator@U?$pair@QBUITEM_INFO@@K@std@@@3@$0A@@std@@@std@@@std@@YAPAU_Node@?$_Tree_nod@V?$_Tmap_traits@PBUITEM_INFO@@KU?$less@PBUITEM_INFO@@@std@@V?$allocator@U?$pair@QBUITEM_INFO@@K@std@@@3@$0A@@std@@@0@IPAU120@@Z 005d39f0 f i DissolveDialog.obj
 0002:0009ba10       ??$_Destroy@U_Node@?$_Tree_nod@V?$_Tmap_traits@PBUITEM_INFO@@KU?$less@PBUITEM_INFO@@@std@@V?$allocator@U?$pair@QBUITEM_INFO@@K@std@@@3@$0A@@std@@@std@@@std@@YAXPAU_Node@?$_Tree_nod@V?$_Tmap_traits@PBUITEM_INFO@@KU?$less@PBUITEM_INFO@@@std@@V?$allocator@U?$pair@QBUITEM_INFO@@K@std@@@3@$0A@@std@@@0@@Z 005d3a10 f i DissolveDialog.obj
 0002:0009ba20       ??$_Construct@PAU_Node@?$_Tree_nod@V?$_Tmap_traits@PBUITEM_INFO@@KU?$less@PBUITEM_INFO@@@std@@V?$allocator@U?$pair@QBUITEM_INFO@@K@std@@@3@$0A@@std@@@std@@PAU123@@std@@YAXPAPAU_Node@?$_Tree_nod@V?$_Tmap_traits@PBUITEM_INFO@@KU?$less@PBUITEM_INFO@@@std@@V?$allocator@U?$pair@QBUITEM_INFO@@K@std@@@3@$0A@@std@@@0@ABQAU120@@Z 005d3a20 f i DissolveDialog.obj
 0002:0009ba50       ??$_Uninitialized_copy@Viterator@?$vector@PAVcIconGridDialog@@V?$allocator@PAVcIconGridDialog@@@std@@@std@@PAPAVcIconGridDialog@@V?$allocator@PAVcIconGridDialog@@@3@@std@@YAPAPAVcIconGridDialog@@Viterator@?$vector@PAVcIconGridDialog@@V?$allocator@PAVcIconGridDialog@@@std@@@0@0PAPAV1@AAV?$allocator@PAVcIconGridDialog@@@0@@Z 005d3a50 f i DissolveDialog.obj
 0002:0009baa0       ??$_Uninitialized_copy@Viterator@?$vector@PAVCItemShow@@V?$allocator@PAVCItemShow@@@std@@@std@@PAPAVCItemShow@@V?$allocator@PAVCItemShow@@@3@@std@@YAPAPAVCItemShow@@Viterator@?$vector@PAVCItemShow@@V?$allocator@PAVCItemShow@@@std@@@0@0PAPAV1@AAV?$allocator@PAVCItemShow@@@0@@Z 005d3aa0 f i DissolveDialog.obj
 0002:0009baf0       ??$_Ptr_cat@VcIconGridDialog@@@std@@YA?AU_Scalar_ptr_iterator_tag@0@PAPAVcIconGridDialog@@0@Z 005d3af0 f i DissolveDialog.obj
 0002:0009bb00       ??$_Destroy_range@PAVcIconGridDialog@@V?$allocator@PAVcIconGridDialog@@@std@@@std@@YAXPAPAVcIconGridDialog@@0AAV?$allocator@PAVcIconGridDialog@@@0@U_Scalar_ptr_iterator_tag@0@@Z 005d3b00 f i DissolveDialog.obj
 0002:0009bb10       ??$_Uninit_fill_n@PAVcIconGridDialog@@IPAV1@@std@@YAXPAPAVcIconGridDialog@@IABQAV1@AAV?$allocator@PAVcIconGridDialog@@@0@U_Scalar_ptr_iterator_tag@0@@Z 005d3b10 f i DissolveDialog.obj
 0002:0009bb30       ??$_Ptr_cat@VCItemShow@@@std@@YA?AU_Scalar_ptr_iterator_tag@0@PAPAVCItemShow@@0@Z 005d3b30 f i DissolveDialog.obj
 0002:0009bb40       ??$_Destroy_range@PAVCItemShow@@V?$allocator@PAVCItemShow@@@std@@@std@@YAXPAPAVCItemShow@@0AAV?$allocator@PAVCItemShow@@@0@U_Scalar_ptr_iterator_tag@0@@Z 005d3b40 f i DissolveDialog.obj
 0002:0009bb50       ??$_Uninit_fill_n@PAVCItemShow@@IPAV1@@std@@YAXPAPAVCItemShow@@IABQAV1@AAV?$allocator@PAVCItemShow@@@0@U_Scalar_ptr_iterator_tag@0@@Z 005d3b50 f i DissolveDialog.obj
 0002:0009bb70       ??$_Uninitialized_copy@PAPAVcIconGridDialog@@PAPAV1@V?$allocator@PAVcIconGridDialog@@@std@@@std@@YAPAPAVcIconGridDialog@@PAPAV1@00AAV?$allocator@PAVcIconGridDialog@@@0@@Z 005d3b70 f i DissolveDialog.obj
 0002:0009bbb0       ??$_Copy_backward_opt@PAPAVcIconGridDialog@@PAPAV1@@std@@YAPAPAVcIconGridDialog@@PAPAV1@00U_Scalar_ptr_iterator_tag@0@@Z 005d3bb0 f i DissolveDialog.obj
 0002:0009bbe0       ??$_Uninitialized_copy@PAPAVCItemShow@@PAPAV1@V?$allocator@PAVCItemShow@@@std@@@std@@YAPAPAVCItemShow@@PAPAV1@00AAV?$allocator@PAVCItemShow@@@0@@Z 005d3be0 f i DissolveDialog.obj
 0002:0009bc20       ??$_Copy_backward_opt@PAPAVCItemShow@@PAPAV1@@std@@YAPAPAVCItemShow@@PAPAV1@00U_Scalar_ptr_iterator_tag@0@@Z 005d3c20 f i DissolveDialog.obj
 0002:0009bc50       ??$_Ptr_cat@Viterator@?$vector@PAVcIconGridDialog@@V?$allocator@PAVcIconGridDialog@@@std@@@std@@PAPAVcIconGridDialog@@@std@@YA?AU_Nonscalar_ptr_iterator_tag@0@AAViterator@?$vector@PAVcIconGridDialog@@V?$allocator@PAVcIconGridDialog@@@std@@@0@AAPAPAVcIconGridDialog@@@Z 005d3c50 f i DissolveDialog.obj
 0002:0009bc60       ??$_Uninit_copy@Viterator@?$vector@PAVcIconGridDialog@@V?$allocator@PAVcIconGridDialog@@@std@@@std@@PAPAVcIconGridDialog@@V?$allocator@PAVcIconGridDialog@@@3@@std@@YAPAPAVcIconGridDialog@@Viterator@?$vector@PAVcIconGridDialog@@V?$allocator@PAVcIconGridDialog@@@std@@@0@0PAPAV1@AAV?$allocator@PAVcIconGridDialog@@@0@U_Nonscalar_ptr_iterator_tag@0@@Z 005d3c60 f i DissolveDialog.obj
 0002:0009bd30       ??$_Ptr_cat@Viterator@?$vector@PAVCItemShow@@V?$allocator@PAVCItemShow@@@std@@@std@@PAPAVCItemShow@@@std@@YA?AU_Nonscalar_ptr_iterator_tag@0@AAViterator@?$vector@PAVCItemShow@@V?$allocator@PAVCItemShow@@@std@@@0@AAPAPAVCItemShow@@@Z 005d3d30 f i DissolveDialog.obj
 0002:0009bd40       ??$_Uninit_copy@Viterator@?$vector@PAVCItemShow@@V?$allocator@PAVCItemShow@@@std@@@std@@PAPAVCItemShow@@V?$allocator@PAVCItemShow@@@3@@std@@YAPAPAVCItemShow@@Viterator@?$vector@PAVCItemShow@@V?$allocator@PAVCItemShow@@@std@@@0@0PAPAV1@AAV?$allocator@PAVCItemShow@@@0@U_Nonscalar_ptr_iterator_tag@0@@Z 005d3d40 f i DissolveDialog.obj
 0002:0009be10       ??$fill_n@PAPAVcIconGridDialog@@IPAV1@@std@@YAXPAPAVcIconGridDialog@@IABQAV1@@Z 005d3e10 f i DissolveDialog.obj
 0002:0009be40       ??$fill_n@PAPAVCItemShow@@IPAV1@@std@@YAXPAPAVCItemShow@@IABQAV1@@Z 005d3e40 f i DissolveDialog.obj
 0002:0009be70       ??$_Uninit_copy@PAVcIconGridDialog@@PAV1@@std@@YAPAPAVcIconGridDialog@@PAPAV1@00AAV?$allocator@PAVcIconGridDialog@@@0@U_Scalar_ptr_iterator_tag@0@@Z 005d3e70 f i DissolveDialog.obj
 0002:0009beb0       ??$_Uninit_copy@PAVCItemShow@@PAV1@@std@@YAPAPAVCItemShow@@PAPAV1@00AAV?$allocator@PAVCItemShow@@@0@U_Scalar_ptr_iterator_tag@0@@Z 005d3eb0 f i DissolveDialog.obj
 0002:0009bef0       ?construct@?$allocator@PAVcIconGridDialog@@@std@@QAEXPAPAVcIconGridDialog@@ABQAV3@@Z 005d3ef0 f i DissolveDialog.obj
 0002:0009bf10       ?destroy@?$allocator@PAVcIconGridDialog@@@std@@QAEXPAPAVcIconGridDialog@@@Z 005d3f10 f i DissolveDialog.obj
 0002:0009bf30       ?construct@?$allocator@PAVCItemShow@@@std@@QAEXPAPAVCItemShow@@ABQAV3@@Z 005d3f30 f i DissolveDialog.obj
 0002:0009bf50       ?destroy@?$allocator@PAVCItemShow@@@std@@QAEXPAPAVCItemShow@@@Z 005d3f50 f i DissolveDialog.obj
 0002:0009bf70       ??$_Construct@PAVcIconGridDialog@@PAV1@@std@@YAXPAPAVcIconGridDialog@@ABQAV1@@Z 005d3f70 f i DissolveDialog.obj
 0002:0009bfa0       ??$_Destroy@PAVcIconGridDialog@@@std@@YAXPAPAVcIconGridDialog@@@Z 005d3fa0 f i DissolveDialog.obj
 0002:0009bfb0       ??$_Construct@PAVCItemShow@@PAV1@@std@@YAXPAPAVCItemShow@@ABQAV1@@Z 005d3fb0 f i DissolveDialog.obj
 0002:0009bfe0       ??$_Destroy@PAVCItemShow@@@std@@YAXPAPAVCItemShow@@@Z 005d3fe0 f i DissolveDialog.obj
 0002:0009bff0       ??0CEnchantDialog@@QAE@XZ  005d3ff0 f   EnchantDialog.obj
 0002:0009c1e0       ??_GCEnchantDialog@@UAEPAXI@Z 005d41e0 f i EnchantDialog.obj
 0002:0009c1e0       ??_ECEnchantDialog@@UAEPAXI@Z 005d41e0 f i EnchantDialog.obj
 0002:0009c210       ??0MSG_ITEM_ENCHANT_SYN@@QAE@XZ 005d4210 f i EnchantDialog.obj
 0002:0009c220       ??1CEnchantDialog@@UAE@XZ  005d4220 f   EnchantDialog.obj
 0002:0009c2c0       ?Linking@CEnchantDialog@@QAEXXZ 005d42c0 f   EnchantDialog.obj
 0002:0009c340       ?FakeMoveIcon@CEnchantDialog@@UAEHJJPAVcIcon@@@Z 005d4340 f   EnchantDialog.obj
 0002:0009c970       ?GetSrcPosition@CVirtualItem@@QAEGXZ 005d4970 f i EnchantDialog.obj
 0002:0009c990       ?GetLinkItem@CVirtualItem@@QAEPAVCBaseItem@@XZ 005d4990 f i EnchantDialog.obj
 0002:0009c9a0       ?OnActionEvent@CEnchantDialog@@UAEXJPAXK@Z 005d49a0 f   EnchantDialog.obj
 0002:0009cb90       ?GetSrcItemIdx@CVirtualItem@@QAEKXZ 005d4b90 f i EnchantDialog.obj
 0002:0009cbb0       ?IsEnchantable@CEnchantDialog@@ABEHPBUITEMBASE@@PBUEnchantScript@@@Z 005d4bb0 f   EnchantDialog.obj
 0002:0009ccc0       ?SetActive@CEnchantDialog@@UAEXH@Z 005d4cc0 f   EnchantDialog.obj
 0002:0009d2e0       ?Succeed@CEnchantDialog@@QAEXABUMSG_ITEM_ENCHANT_ACK@@@Z 005d52e0 f   EnchantDialog.obj
 0002:0009d4a0       ?Fail@CEnchantDialog@@QAEXXZ 005d54a0 f   EnchantDialog.obj
 0002:0009d650       ?Restore@CEnchantDialog@@QAEXXZ 005d5650 f   EnchantDialog.obj
 0002:0009d670       ?RemoveMaterial@CEnchantDialog@@AAEXXZ 005d5670 f   EnchantDialog.obj
 0002:0009d750       ?Send@CEnchantDialog@@QAEXXZ 005d5750 f   EnchantDialog.obj
 0002:0009d790       ?SetProtectedActive@CEnchantDialog@@QAEXAAVCItem@@@Z 005d5790 f   EnchantDialog.obj
 0002:0009d820       ?end@?$_Hash@V?$_Hset_traits@W4eEquipSlot@@V?$hash_compare@W4eEquipSlot@@U?$less@W4eEquipSlot@@@std@@@stdext@@V?$allocator@W4eEquipSlot@@@std@@$0A@@stdext@@@stdext@@QBE?AVconst_iterator@?$list@W4eEquipSlot@@V?$allocator@W4eEquipSlot@@@std@@@std@@XZ 005d5820 f i EnchantDialog.obj
 0002:0009d840       ?find@?$_Hash@V?$_Hset_traits@W4eEquipSlot@@V?$hash_compare@W4eEquipSlot@@U?$less@W4eEquipSlot@@@std@@@stdext@@V?$allocator@W4eEquipSlot@@@std@@$0A@@stdext@@@stdext@@QBE?AVconst_iterator@?$list@W4eEquipSlot@@V?$allocator@W4eEquipSlot@@@std@@@std@@ABW4eEquipSlot@@@Z 005d5840 f i EnchantDialog.obj
 0002:0009d860       ?end@?$_Hash@V?$_Hmap_traits@KUData@EnchantProtection@CItemManager@@V?$hash_compare@KU?$less@K@std@@@stdext@@V?$allocator@U?$pair@$$CBKUData@EnchantProtection@CItemManager@@@std@@@std@@$0A@@stdext@@@stdext@@QBE?AVconst_iterator@?$list@U?$pair@$$CBKUData@EnchantProtection@CItemManager@@@std@@V?$allocator@U?$pair@$$CBKUData@EnchantProtection@CItemManager@@@std@@@2@@std@@XZ 005d5860 f i EnchantDialog.obj
 0002:0009d880       ?find@?$_Hash@V?$_Hmap_traits@KUData@EnchantProtection@CItemManager@@V?$hash_compare@KU?$less@K@std@@@stdext@@V?$allocator@U?$pair@$$CBKUData@EnchantProtection@CItemManager@@@std@@@std@@$0A@@stdext@@@stdext@@QBE?AVconst_iterator@?$list@U?$pair@$$CBKUData@EnchantProtection@CItemManager@@@std@@V?$allocator@U?$pair@$$CBKUData@EnchantProtection@CItemManager@@@std@@@2@@std@@ABK@Z 005d5880 f i EnchantDialog.obj
 0002:0009d8a0       ??Cconst_iterator@?$list@U?$pair@$$CBKUData@EnchantProtection@CItemManager@@@std@@V?$allocator@U?$pair@$$CBKUData@EnchantProtection@CItemManager@@@std@@@2@@std@@QBEPBU?$pair@$$CBKUData@EnchantProtection@CItemManager@@@2@XZ 005d58a0 f i EnchantDialog.obj
 0002:0009d8b0       ??9const_iterator@?$list@U?$pair@$$CBKUData@EnchantProtection@CItemManager@@@std@@V?$allocator@U?$pair@$$CBKUData@EnchantProtection@CItemManager@@@std@@@2@@std@@QBE_NABV012@@Z 005d58b0 f i EnchantDialog.obj
 0002:0009d8d0       ??8const_iterator@?$list@W4eEquipSlot@@V?$allocator@W4eEquipSlot@@@std@@@std@@QBE_NABV012@@Z 005d58d0 f i EnchantDialog.obj
 0002:0009d8f0       ?lower_bound@?$_Hash@V?$_Hset_traits@W4eEquipSlot@@V?$hash_compare@W4eEquipSlot@@U?$less@W4eEquipSlot@@@std@@@stdext@@V?$allocator@W4eEquipSlot@@@std@@$0A@@stdext@@@stdext@@QBE?AVconst_iterator@?$list@W4eEquipSlot@@V?$allocator@W4eEquipSlot@@@std@@@std@@ABW4eEquipSlot@@@Z 005d58f0 f i EnchantDialog.obj
 0002:0009da10       ?end@?$list@W4eEquipSlot@@V?$allocator@W4eEquipSlot@@@std@@@std@@QBE?AVconst_iterator@12@XZ 005d5a10 f i EnchantDialog.obj
 0002:0009da30       ?lower_bound@?$_Hash@V?$_Hmap_traits@KUData@EnchantProtection@CItemManager@@V?$hash_compare@KU?$less@K@std@@@stdext@@V?$allocator@U?$pair@$$CBKUData@EnchantProtection@CItemManager@@@std@@@std@@$0A@@stdext@@@stdext@@QBE?AVconst_iterator@?$list@U?$pair@$$CBKUData@EnchantProtection@CItemManager@@@std@@V?$allocator@U?$pair@$$CBKUData@EnchantProtection@CItemManager@@@std@@@2@@std@@ABK@Z 005d5a30 f i EnchantDialog.obj
 0002:0009db50       ?end@?$list@U?$pair@$$CBKUData@EnchantProtection@CItemManager@@@std@@V?$allocator@U?$pair@$$CBKUData@EnchantProtection@CItemManager@@@std@@@2@@std@@QBE?AVconst_iterator@12@XZ 005d5b50 f i EnchantDialog.obj
 0002:0009db70       ??Dconst_iterator@?$list@U?$pair@$$CBKUData@EnchantProtection@CItemManager@@@std@@V?$allocator@U?$pair@$$CBKUData@EnchantProtection@CItemManager@@@std@@@2@@std@@QBEABU?$pair@$$CBKUData@EnchantProtection@CItemManager@@@2@XZ 005d5b70 f i EnchantDialog.obj
 0002:0009db80       ??8const_iterator@?$list@U?$pair@$$CBKUData@EnchantProtection@CItemManager@@@std@@V?$allocator@U?$pair@$$CBKUData@EnchantProtection@CItemManager@@@std@@@2@@std@@QBE_NABV012@@Z 005d5b80 f i EnchantDialog.obj
 0002:0009dba0       ?_Hashval@?$_Hash@V?$_Hset_traits@W4eEquipSlot@@V?$hash_compare@W4eEquipSlot@@U?$less@W4eEquipSlot@@@std@@@stdext@@V?$allocator@W4eEquipSlot@@@std@@$0A@@stdext@@@stdext@@IBEIABW4eEquipSlot@@@Z 005d5ba0 f i EnchantDialog.obj
 0002:0009dbe0       ?_Kfn@?$_Hset_traits@W4eEquipSlot@@V?$hash_compare@W4eEquipSlot@@U?$less@W4eEquipSlot@@@std@@@stdext@@V?$allocator@W4eEquipSlot@@@std@@$0A@@stdext@@SAABW4eEquipSlot@@ABW43@@Z 005d5be0 f i EnchantDialog.obj
 0002:0009dbf0       ??R?$hash_compare@W4eEquipSlot@@U?$less@W4eEquipSlot@@@std@@@stdext@@QBE_NABW4eEquipSlot@@0@Z 005d5bf0 f i EnchantDialog.obj
 0002:0009dc00       ??A?$vector@Viterator@?$list@W4eEquipSlot@@V?$allocator@W4eEquipSlot@@@std@@@std@@V?$allocator@Viterator@?$list@W4eEquipSlot@@V?$allocator@W4eEquipSlot@@@std@@@std@@@3@@std@@QBEABViterator@?$list@W4eEquipSlot@@V?$allocator@W4eEquipSlot@@@std@@@1@I@Z 005d5c00 f i EnchantDialog.obj
 0002:0009dc30       ?_Hashval@?$_Hash@V?$_Hmap_traits@KUData@EnchantProtection@CItemManager@@V?$hash_compare@KU?$less@K@std@@@stdext@@V?$allocator@U?$pair@$$CBKUData@EnchantProtection@CItemManager@@@std@@@std@@$0A@@stdext@@@stdext@@IBEIABK@Z 005d5c30 f i EnchantDialog.obj
 0002:0009dc70       ?_Kfn@?$_Hmap_traits@KUData@EnchantProtection@CItemManager@@V?$hash_compare@KU?$less@K@std@@@stdext@@V?$allocator@U?$pair@$$CBKUData@EnchantProtection@CItemManager@@@std@@@std@@$0A@@stdext@@SAABKABU?$pair@$$CBKUData@EnchantProtection@CItemManager@@@std@@@Z 005d5c70 f i EnchantDialog.obj
 0002:0009dc80       ?_Myval@?$list@U?$pair@$$CBKUData@EnchantProtection@CItemManager@@@std@@V?$allocator@U?$pair@$$CBKUData@EnchantProtection@CItemManager@@@std@@@2@@std@@KAAAU?$pair@$$CBKUData@EnchantProtection@CItemManager@@@2@PAU_Node@?$_List_nod@U?$pair@$$CBKUData@EnchantProtection@CItemManager@@@std@@V?$allocator@U?$pair@$$CBKUData@EnchantProtection@CItemManager@@@std@@@2@@2@@Z 005d5c80 f i EnchantDialog.obj
 0002:0009dc90       ??A?$vector@Viterator@?$list@U?$pair@$$CBKUData@EnchantProtection@CItemManager@@@std@@V?$allocator@U?$pair@$$CBKUData@EnchantProtection@CItemManager@@@std@@@2@@std@@V?$allocator@Viterator@?$list@U?$pair@$$CBKUData@EnchantProtection@CItemManager@@@std@@V?$allocator@U?$pair@$$CBKUData@EnchantProtection@CItemManager@@@std@@@2@@std@@@3@@std@@QBEABViterator@?$list@U?$pair@$$CBKUData@EnchantProtection@CItemManager@@@std@@V?$allocator@U?$pair@$$CBKUData@EnchantProtection@CItemManager@@@std@@@2@@1@I@Z 005d5c90 f i EnchantDialog.obj
 0002:0009dcc0       ??0const_iterator@?$list@U?$pair@$$CBKUData@EnchantProtection@CItemManager@@@std@@V?$allocator@U?$pair@$$CBKUData@EnchantProtection@CItemManager@@@std@@@2@@std@@QAE@XZ 005d5cc0 f i EnchantDialog.obj
 0002:0009dcd0       ??0const_iterator@?$list@U?$pair@$$CBKUData@EnchantProtection@CItemManager@@@std@@V?$allocator@U?$pair@$$CBKUData@EnchantProtection@CItemManager@@@std@@@2@@std@@QAE@PAU_Node@?$_List_nod@U?$pair@$$CBKUData@EnchantProtection@CItemManager@@@std@@V?$allocator@U?$pair@$$CBKUData@EnchantProtection@CItemManager@@@std@@@2@@2@@Z 005d5cd0 f i EnchantDialog.obj
 0002:0009dce0       ??Econst_iterator@?$list@U?$pair@$$CBKUData@EnchantProtection@CItemManager@@@std@@V?$allocator@U?$pair@$$CBKUData@EnchantProtection@CItemManager@@@std@@@2@@std@@QAEAAV012@XZ 005d5ce0 f i EnchantDialog.obj
 0002:0009dd00       ??0const_iterator@?$list@W4eEquipSlot@@V?$allocator@W4eEquipSlot@@@std@@@std@@QAE@XZ 005d5d00 f i EnchantDialog.obj
 0002:0009dd10       ??0const_iterator@?$list@W4eEquipSlot@@V?$allocator@W4eEquipSlot@@@std@@@std@@QAE@PAU_Node@?$_List_nod@W4eEquipSlot@@V?$allocator@W4eEquipSlot@@@std@@@2@@Z 005d5d10 f i EnchantDialog.obj
 0002:0009dd20       ??Dconst_iterator@?$list@W4eEquipSlot@@V?$allocator@W4eEquipSlot@@@std@@@std@@QBEABW4eEquipSlot@@XZ 005d5d20 f i EnchantDialog.obj
 0002:0009dd30       ??Econst_iterator@?$list@W4eEquipSlot@@V?$allocator@W4eEquipSlot@@@std@@@std@@QAEAAV012@XZ 005d5d30 f i EnchantDialog.obj
 0002:0009dd50       ??9const_iterator@?$list@W4eEquipSlot@@V?$allocator@W4eEquipSlot@@@std@@@std@@QBE_NABV012@@Z 005d5d50 f i EnchantDialog.obj
 0002:0009dd70       ??R?$hash_compare@W4eEquipSlot@@U?$less@W4eEquipSlot@@@std@@@stdext@@QBEIABW4eEquipSlot@@@Z 005d5d70 f i EnchantDialog.obj
 0002:0009dd90       ??R?$less@W4eEquipSlot@@@std@@QBE_NABW4eEquipSlot@@0@Z 005d5d90 f i EnchantDialog.obj
 0002:0009ddb0       ?_Nextnode@?$list@W4eEquipSlot@@V?$allocator@W4eEquipSlot@@@std@@@std@@KAAAPAU_Node@?$_List_nod@W4eEquipSlot@@V?$allocator@W4eEquipSlot@@@std@@@2@PAU342@@Z 005d5db0 f i EnchantDialog.obj
 0002:0009ddc0       ?_Myval@?$list@W4eEquipSlot@@V?$allocator@W4eEquipSlot@@@std@@@std@@KAAAW4eEquipSlot@@PAU_Node@?$_List_nod@W4eEquipSlot@@V?$allocator@W4eEquipSlot@@@std@@@2@@Z 005d5dc0 f i EnchantDialog.obj
 0002:0009ddd0       ?begin@?$vector@Viterator@?$list@W4eEquipSlot@@V?$allocator@W4eEquipSlot@@@std@@@std@@V?$allocator@Viterator@?$list@W4eEquipSlot@@V?$allocator@W4eEquipSlot@@@std@@@std@@@3@@std@@QBE?AVconst_iterator@12@XZ 005d5dd0 f i EnchantDialog.obj
 0002:0009ddf0       ?_Nextnode@?$list@U?$pair@$$CBKUData@EnchantProtection@CItemManager@@@std@@V?$allocator@U?$pair@$$CBKUData@EnchantProtection@CItemManager@@@std@@@2@@std@@KAAAPAU_Node@?$_List_nod@U?$pair@$$CBKUData@EnchantProtection@CItemManager@@@std@@V?$allocator@U?$pair@$$CBKUData@EnchantProtection@CItemManager@@@std@@@2@@2@PAU342@@Z 005d5df0 f i EnchantDialog.obj
 0002:0009de00       ?begin@?$vector@Viterator@?$list@U?$pair@$$CBKUData@EnchantProtection@CItemManager@@@std@@V?$allocator@U?$pair@$$CBKUData@EnchantProtection@CItemManager@@@std@@@2@@std@@V?$allocator@Viterator@?$list@U?$pair@$$CBKUData@EnchantProtection@CItemManager@@@std@@V?$allocator@U?$pair@$$CBKUData@EnchantProtection@CItemManager@@@std@@@2@@std@@@3@@std@@QBE?AVconst_iterator@12@XZ 005d5e00 f i EnchantDialog.obj
 0002:0009de20       ??Dconst_iterator@?$vector@Viterator@?$list@W4eEquipSlot@@V?$allocator@W4eEquipSlot@@@std@@@std@@V?$allocator@Viterator@?$list@W4eEquipSlot@@V?$allocator@W4eEquipSlot@@@std@@@std@@@3@@std@@QBEABViterator@?$list@W4eEquipSlot@@V?$allocator@W4eEquipSlot@@@std@@@2@XZ 005d5e20 f i EnchantDialog.obj
 0002:0009de30       ??Hconst_iterator@?$vector@Viterator@?$list@W4eEquipSlot@@V?$allocator@W4eEquipSlot@@@std@@@std@@V?$allocator@Viterator@?$list@W4eEquipSlot@@V?$allocator@W4eEquipSlot@@@std@@@std@@@3@@std@@QBE?AV012@H@Z 005d5e30 f i EnchantDialog.obj
 0002:0009de60       ??Dconst_iterator@?$vector@Viterator@?$list@U?$pair@$$CBKUData@EnchantProtection@CItemManager@@@std@@V?$allocator@U?$pair@$$CBKUData@EnchantProtection@CItemManager@@@std@@@2@@std@@V?$allocator@Viterator@?$list@U?$pair@$$CBKUData@EnchantProtection@CItemManager@@@std@@V?$allocator@U?$pair@$$CBKUData@EnchantProtection@CItemManager@@@std@@@2@@std@@@3@@std@@QBEABViterator@?$list@U?$pair@$$CBKUData@EnchantProtection@CItemManager@@@std@@V?$allocator@U?$pair@$$CBKUData@EnchantProtection@CItemManager@@@std@@@2@@2@XZ 005d5e60 f i EnchantDialog.obj
 0002:0009de70       ??Hconst_iterator@?$vector@Viterator@?$list@U?$pair@$$CBKUData@EnchantProtection@CItemManager@@@std@@V?$allocator@U?$pair@$$CBKUData@EnchantProtection@CItemManager@@@std@@@2@@std@@V?$allocator@Viterator@?$list@U?$pair@$$CBKUData@EnchantProtection@CItemManager@@@std@@V?$allocator@U?$pair@$$CBKUData@EnchantProtection@CItemManager@@@std@@@2@@std@@@3@@std@@QBE?AV012@H@Z 005d5e70 f i EnchantDialog.obj
 0002:0009dea0       ??0const_iterator@?$vector@Viterator@?$list@W4eEquipSlot@@V?$allocator@W4eEquipSlot@@@std@@@std@@V?$allocator@Viterator@?$list@W4eEquipSlot@@V?$allocator@W4eEquipSlot@@@std@@@std@@@3@@std@@QAE@PAViterator@?$list@W4eEquipSlot@@V?$allocator@W4eEquipSlot@@@std@@@2@@Z 005d5ea0 f i EnchantDialog.obj
 0002:0009deb0       ??Yconst_iterator@?$vector@Viterator@?$list@W4eEquipSlot@@V?$allocator@W4eEquipSlot@@@std@@@std@@V?$allocator@Viterator@?$list@W4eEquipSlot@@V?$allocator@W4eEquipSlot@@@std@@@std@@@3@@std@@QAEAAV012@H@Z 005d5eb0 f i EnchantDialog.obj
 0002:0009ded0       ??0const_iterator@?$vector@Viterator@?$list@U?$pair@$$CBKUData@EnchantProtection@CItemManager@@@std@@V?$allocator@U?$pair@$$CBKUData@EnchantProtection@CItemManager@@@std@@@2@@std@@V?$allocator@Viterator@?$list@U?$pair@$$CBKUData@EnchantProtection@CItemManager@@@std@@V?$allocator@U?$pair@$$CBKUData@EnchantProtection@CItemManager@@@std@@@2@@std@@@3@@std@@QAE@PAViterator@?$list@U?$pair@$$CBKUData@EnchantProtection@CItemManager@@@std@@V?$allocator@U?$pair@$$CBKUData@EnchantProtection@CItemManager@@@std@@@2@@2@@Z 005d5ed0 f i EnchantDialog.obj
 0002:0009dee0       ??Yconst_iterator@?$vector@Viterator@?$list@U?$pair@$$CBKUData@EnchantProtection@CItemManager@@@std@@V?$allocator@U?$pair@$$CBKUData@EnchantProtection@CItemManager@@@std@@@2@@std@@V?$allocator@Viterator@?$list@U?$pair@$$CBKUData@EnchantProtection@CItemManager@@@std@@V?$allocator@U?$pair@$$CBKUData@EnchantProtection@CItemManager@@@std@@@2@@std@@@3@@std@@QAEAAV012@H@Z 005d5ee0 f i EnchantDialog.obj
 0002:0009df00       ??$hash_value@W4eEquipSlot@@@stdext@@YAIABW4eEquipSlot@@@Z 005d5f00 f i EnchantDialog.obj
 0002:0009df10       ?GetCurSelCellPos@cIconDialog@@QAEJXZ 005d5f10 f i InventoryExDialog.obj
 0002:0009df20       ?GetBaseMoveInfo@CObject@@QAEPAUMOVE_INFO@@XZ 005d5f20 f i InventoryExDialog.obj
 0002:0009df30       ?GetObjectBattleState@CObject@@QAEEXZ 005d5f30 f i InventoryExDialog.obj
 0002:0009df40       ?GetData@cIcon@@QAEKXZ     005d5f40 f i InventoryExDialog.obj
 0002:0009df50       ?SetItemParam@CItem@@QAEXK@Z 005d5f50 f i InventoryExDialog.obj
 0002:0009df60       ?SetDivideItemInfo@CItemManager@@QAEXGH@Z 005d5f60 f i InventoryExDialog.obj
 0002:0009df80       ?GetPartyIdx@CHero@@QAEKXZ 005d5f80 f i InventoryExDialog.obj
 0002:0009df90       ?GetGrade@CPet@@QAEEXZ     005d5f90 f i InventoryExDialog.obj
 0002:0009dfa0       ?GetLevel@CPet@@QAEEXZ     005d5fa0 f i InventoryExDialog.obj
 0002:0009dfb0       ?GetType@CHeroPet@@QAEEXZ  005d5fb0 f i InventoryExDialog.obj
